LX51 LINKER/LOCATER V4.66.30.0                                                          01/24/2020  09:48:17  PAGE 1


LX51 LINKER/LOCATER V4.66.30.0, INVOKED BY:
C:\SILICONLABS\SIMPLICITYSTUDIO\V4\DEVELOPER\TOOLCHAINS\KEIL_8051\9.53\BIN\LX51.EXE ./lib/efm8_assert/assert.OBJ, ./lib/
>> efm8bb1/peripheralDrivers/src/pca_0.OBJ, ./src/EFM8BB1_BLDC_PORT.OBJ, ./src/InitDevice.OBJ, ./src/Interrupts.OBJ, ./s
>> rc/MCP_Core.OBJ, ./src/MCP_Registers.OBJ, ./src/SILABS_STARTUP.OBJ, ./src/UART_Driver.OBJ, ./src/adc.OBJ, ./src/btn.O
>> BJ, ./src/comp.OBJ, ./src/motor.OBJ, ./src/mtrapp.OBJ, ./src/mtrpid.OBJ, ./src/pca.OBJ, ./src/timers.OBJ TO EFM8BB1_B
>> LDC_PORT.OMF.CRBUILD REMOVEUNUSED PRINT (.\EFM8BB1_BLDC_PORT.m51) PAGEWIDTH (120) PAGELENGTH (65) CLASSES (ECODE (C:0
>> X0-C:0X1FFE), HCONST (C:0X0-C:0X1FFE), XDATA (X:0X0-X:0XFF), HDATA (X:0X0-X:0XFF))


CPU MODE:     8051 MODE
MEMORY MODEL: SMALL


INPUT MODULES INCLUDED:
  ./lib/efm8_assert/assert.OBJ (ASSERT)
         COMMENT TYPE 0: C51 V9.53.0.0
  ./lib/efm8bb1/peripheralDrivers/src/pca_0.OBJ (PCA_0)
         COMMENT TYPE 0: C51 V9.53.0.0
  ./src/EFM8BB1_BLDC_PORT.OBJ (EFM8BB1_BLDC_PORT)
         COMMENT TYPE 0: C51 V9.53.0.0
  ./src/InitDevice.OBJ (INITDEVICE)
         COMMENT TYPE 0: C51 V9.53.0.0
  ./src/Interrupts.OBJ (INTERRUPTS)
         COMMENT TYPE 0: C51 V9.53.0.0
  ./src/MCP_Core.OBJ (MCP_CORE)
         COMMENT TYPE 0: C51 V9.53.0.0
  ./src/MCP_Registers.OBJ (MCP_REGISTERS)
         COMMENT TYPE 0: C51 V9.53.0.0
  ./src/SILABS_STARTUP.OBJ (?C_STARTUP)
         COMMENT TYPE 0: AX51 V3.12.0.0
  ./src/UART_Driver.OBJ (UART_DRIVER)
         COMMENT TYPE 0: C51 V9.53.0.0
  ./src/adc.OBJ (ADC)
         COMMENT TYPE 0: C51 V9.53.0.0
  ./src/btn.OBJ (BTN)
         COMMENT TYPE 0: C51 V9.53.0.0
  ./src/comp.OBJ (COMP)
         COMMENT TYPE 0: C51 V9.53.0.0
  ./src/motor.OBJ (MOTOR)
         COMMENT TYPE 0: C51 V9.53.0.0
  ./src/mtrapp.OBJ (MTRAPP)
         COMMENT TYPE 0: C51 V9.53.0.0
  ./src/mtrpid.OBJ (MTRPID)
         COMMENT TYPE 0: C51 V9.53.0.0
  ./src/pca.OBJ (PCA)
         COMMENT TYPE 0: C51 V9.53.0.0
  ./src/timers.OBJ (TIMERS)
         COMMENT TYPE 0: C51 V9.53.0.0
  C:\SILICONLABS\SIMPLICITYSTUDIO\V4\DEVELOPER\TOOLCHAINS\KEIL_8051\9.53\LIB\C51S.LIB (?C_INIT)
         COMMENT TYPE 1: A51 / ASM51 Assembler
  C:\SILICONLABS\SIMPLICITYSTUDIO\V4\DEVELOPER\TOOLCHAINS\KEIL_8051\9.53\LIB\C51S.LIB (?C?IMUL)
         COMMENT TYPE 1: A51 / ASM51 Assembler
  C:\SILICONLABS\SIMPLICITYSTUDIO\V4\DEVELOPER\TOOLCHAINS\KEIL_8051\9.53\LIB\C51S.LIB (?C?UIDIV)
         COMMENT TYPE 1: A51 / ASM51 Assembler
  C:\SILICONLABS\SIMPLICITYSTUDIO\V4\DEVELOPER\TOOLCHAINS\KEIL_8051\9.53\LIB\C51S.LIB (?C?LMUL)
         COMMENT TYPE 1: A51 / ASM51 Assembler
  C:\SILICONLABS\SIMPLICITYSTUDIO\V4\DEVELOPER\TOOLCHAINS\KEIL_8051\9.53\LIB\C51S.LIB (?C?ULDIV)
         COMMENT TYPE 1: A51 / ASM51 Assembler
  C:\SILICONLABS\SIMPLICITYSTUDIO\V4\DEVELOPER\TOOLCHAINS\KEIL_8051\9.53\LIB\C51S.LIB (?C?LNEG)
         COMMENT TYPE 1: A51 / ASM51 Assembler
  C:\SILICONLABS\SIMPLICITYSTUDIO\V4\DEVELOPER\TOOLCHAINS\KEIL_8051\9.53\LIB\C51S.LIB (?C?SLCMP)
         COMMENT TYPE 1: A51 / ASM51 Assembler
  C:\SILICONLABS\SIMPLICITYSTUDIO\V4\DEVELOPER\TOOLCHAINS\KEIL_8051\9.53\LIB\C51S.LIB (?C?ULCMP)
LX51 LINKER/LOCATER V4.66.30.0                                                        01/24/2020  09:48:17  PAGE 2


         COMMENT TYPE 1: A51 / ASM51 Assembler
  C:\SILICONLABS\SIMPLICITYSTUDIO\V4\DEVELOPER\TOOLCHAINS\KEIL_8051\9.53\LIB\C51S.LIB (?C?ULSHR)
         COMMENT TYPE 1: A51 / ASM51 Assembler
  C:\SILICONLABS\SIMPLICITYSTUDIO\V4\DEVELOPER\TOOLCHAINS\KEIL_8051\9.53\LIB\C51S.LIB (?C?SLSHR)
         COMMENT TYPE 1: A51 / ASM51 Assembler
  C:\SILICONLABS\SIMPLICITYSTUDIO\V4\DEVELOPER\TOOLCHAINS\KEIL_8051\9.53\LIB\C51S.LIB (?C?LSTXDATA)
         COMMENT TYPE 1: A51 / ASM51 Assembler
  C:\SILICONLABS\SIMPLICITYSTUDIO\V4\DEVELOPER\TOOLCHAINS\KEIL_8051\9.53\LIB\C51S.LIB (?C?LSTKXDATA)
         COMMENT TYPE 1: A51 / ASM51 Assembler
  C:\SILICONLABS\SIMPLICITYSTUDIO\V4\DEVELOPER\TOOLCHAINS\KEIL_8051\9.53\LIB\C51S.LIB (?C?OFFXADD)
         COMMENT TYPE 1: A51 / ASM51 Assembler
  C:\SILICONLABS\SIMPLICITYSTUDIO\V4\DEVELOPER\TOOLCHAINS\KEIL_8051\9.53\LIB\C51S.LIB (?C?ICASE)
         COMMENT TYPE 1: A51 / ASM51 Assembler
  C:\SILICONLABS\SIMPLICITYSTUDIO\V4\DEVELOPER\TOOLCHAINS\KEIL_8051\9.53\LIB\C51S.LIB (?C?ICALL)
         COMMENT TYPE 1: A51 / ASM51 Assembler
  C:\SILICONLABS\SIMPLICITYSTUDIO\V4\DEVELOPER\TOOLCHAINS\KEIL_8051\9.53\LIB\C51S.LIB (?C?LIMUL)
         COMMENT TYPE 1: A51 / ASM51 Assembler


ACTIVE MEMORY CLASSES OF MODULE:  EFM8BB1_BLDC_PORT.OMF.CRBUILD (ASSERT)

BASE        START       END         USED      MEMORY CLASS
==========================================================
C:000000H   C:000000H   C:001FFEH             ECODE
B00:0000H   C:000000H   C:001FFEH             HCONST
X:000000H   X:000000H   X:0000FFH   00008FH   XDATA
X:000000H   X:000000H   X:0000FFH             HDATA
C:000000H   C:000000H   C:00FFFFH   001E6BH   CODE
I:000020H.0 I:000020H.0 I:00002FH.7 000003H.0 BIT
I:000000H   I:000000H   I:00007FH   000070H   DATA
I:000000H   I:000000H   I:0000FFH   000041H   IDATA
C:000000H   C:000000H   C:00FFFFH   000033H   CONST


MEMORY MAP OF MODULE:  EFM8BB1_BLDC_PORT.OMF.CRBUILD (ASSERT)


START     STOP      LENGTH    ALIGN  RELOC    MEMORY CLASS   SEGMENT NAME
=========================================================================

* * * * * * * * * * *   D A T A   M E M O R Y   * * * * * * * * * * * * *
000000H   000007H   000008H   ---    AT..     DATA           "REG BANK 0"
000008H   000019H   000012H   BYTE   UNIT     DATA           ?DT?MCP_CORE
00001AH   00001FH   000006H   BYTE   UNIT     DATA           ?DT?MTRPID
000020H.0 000021H.2 000001H.3 BIT    UNIT     BIT            ?BI?MOTOR
000021H.3 000021H.6 000000H.4 BIT    UNIT     BIT            _BIT_GROUP_
000021H.7 000022H.1 000000H.3 BIT    UNIT     BIT            ?BI?MCP_CORE
000022H.2 000022H.4 000000H.3 BIT    UNIT     BIT            ?BI?MTRAPP
000022H.5 000022H.5 000000H.1 BIT    UNIT     BIT            ?BI?UART_DRIVER
000022H.6 000022H.6 000000H.1 BIT    UNIT     BIT            ?BI?MTRPID
000022H.7 000022H.7 000000H.1 BIT    UNIT     BIT            ?BI?PCA
000023H   000045H   000023H   BYTE   UNIT     DATA           ?DT?MOTOR
000046H   000051H   00000CH   BYTE   UNIT     DATA           ?DT?MCP_REGISTERS
000052H   00005CH   00000BH   BYTE   UNIT     DATA           ?DT?PCA
00005DH   000063H   000007H   BYTE   UNIT     DATA           _DATA_GROUP_
000064H   000068H   000005H   BYTE   UNIT     DATA           ?DT?MTRAPP
000069H   00006CH   000004H   BYTE   UNIT     DATA           ?DT?UART_DRIVER
00006DH   000070H   000004H   BYTE   UNIT     DATA           ?DT?TIMERS
000071H   000071H   000001H   BYTE   UNIT     DATA           ?DT?ADC
000072H   000072H   000001H   BYTE   UNIT     DATA           ?DT?BTN
000073H   000092H   000020H   BYTE   UNIT     IDATA          ?ID?UART_DRIVER
000093H   0000B0H   00001EH   BYTE   UNIT     IDATA          ?ID?MCP_CORE
LX51 LINKER/LOCATER V4.66.30.0                                                        01/24/2020  09:48:17  PAGE 3


0000B1H   0000B1H   000001H   BYTE   UNIT     IDATA          ?ID?ADC
0000B2H   0000B2H   000001H   BYTE   UNIT     IDATA          ?ID?MOTOR
0000B3H   0000B3H   000001H   BYTE   UNIT     IDATA          ?STACK

* * * * * * * * * * *   C O D E   M E M O R Y   * * * * * * * * * * * * *
000000H   000002H   000003H   ---    OFFS..   CODE           ?CO?SILABS_STARTUP?3
000003H   000009H   000007H   BYTE   UNIT     CODE           ?PR?SILABS_STARTUP?EFM8BB1_BLDC_PORT
00000AH   00000AH   000001H   ---    ---      **GAP**
00000BH   00000DH   000003H   BYTE   OFFS..   CODE           ?MOTOR?0000B
00000EH   000022H   000015H   BYTE   UNIT     CODE           ?PR?MCP_INIT_COMMANDBUF?MCP_CORE
000023H   000025H   000003H   BYTE   OFFS..   CODE           ?UART_DRIVER?00023
000026H   000040H   00001BH   BYTE   UNIT     CODE           ?C_INITSEG
000041H   000042H   000002H   ---    ---      **GAP**
000043H   000045H   000003H   BYTE   OFFS..   CODE           ?INTERRUPTS?00043
000046H   000059H   000014H   BYTE   UNIT     CODE           ?PR?_SL_MTR_CHANGE_NUM_POLES?MOTOR
00005AH   00005AH   000001H   ---    ---      **GAP**
00005BH   00005DH   000003H   BYTE   OFFS..   CODE           ?PCA?0005B
00005EH   000062H   000005H   BYTE   UNIT     CODE           ?PR?APP_RESET?EFM8BB1_BLDC_PORT
000063H   000065H   000003H   BYTE   OFFS..   CODE           ?MOTOR?00063
000066H   0002EEH   000289H   BYTE   UNIT     CODE           ?C?LIB_CODE
0002EFH   0004D1H   0001E3H   BYTE   UNIT     CODE           ?PR?MTR_PID_COMPUTE_THREAD?MTRPID
0004D2H   000662H   000191H   BYTE   UNIT     CODE           ?PR?MTR_START_SPINNING?MOTOR
000663H   0007EAH   000188H   BYTE   UNIT     CODE           ?PR?MTR_DO_QUICKSTART?MOTOR
0007EBH   00096CH   000182H   BYTE   UNIT     CODE           ?PR?MCP_PROCESS_COMMAND?MCP_CORE
00096DH   000AC4H   000158H   BYTE   UNIT     CODE           ?PR?CMP0_ISR?MOTOR
000AC5H   000C17H   000153H   BYTE   UNIT     CODE           ?PR?MTR_PROCESS_ADC?MOTOR
000C18H   000D64H   00014DH   BYTE   UNIT     CODE           ?PR?MTR_PROCESS_ERRORS?MOTOR
000D65H   000E9BH   000137H   BYTE   UNIT     CODE           ?PR?MCP_COMMAND_TASK?MCP_CORE
000E9CH   000FA7H   00010CH   BYTE   UNIT     CODE           ?PR?MTRAPP_TASK?MTRAPP
000FA8H   001087H   0000E0H   BYTE   UNIT     CODE           ?PR?MTRAPP_READ_TARGET_SPEED?MTRAPP
001088H   001143H   0000BCH   BYTE   UNIT     CODE           ?PR?TIMER0_ISR?MOTOR
001144H   0011E8H   0000A5H   BYTE   UNIT     CODE           ?PR?MCP_UPDATE_STATUS?MCP_CORE
0011E9H   00127AH   000092H   BYTE   UNIT     CODE           ?PR?_PCA_CHANGE_DUTY_CYCLE?PCA
00127BH   001309H   00008FH   BYTE   UNIT     CODE           ?C_C51STARTUP
00130AH   001397H   00008EH   BYTE   UNIT     CODE           ?PR?PCA0_ISR?PCA
001398H   00141EH   000087H   BYTE   UNIT     CODE           ?PR?MCP_STATUS_UPDATE_TASK?MCP_CORE
00141FH   00149BH   00007DH   BYTE   UNIT     CODE           ?PR?MCP_INIT_REGISTERS?MCP_REGISTERS
00149CH   00150EH   000073H   BYTE   UNIT     CODE           ?PR?_MCP_STATUS_UPDATE_REGISTER?MCP_REGISTERS
00150FH   001574H   000066H   BYTE   UNIT     CODE           ?PR?_MCP_SET_16BIT_REGISTER?MCP_REGISTERS
001575H   0015D6H   000062H   BYTE   UNIT     CODE           ?PR?MTR_CHECK_MOTOR_SPINNING?MOTOR
0015D7H   001633H   00005DH   BYTE   UNIT     CODE           ?PR?_MCP_DEC_TO_ASCNUMBUF?MCP_CORE
001634H   00168EH   00005BH   BYTE   UNIT     CODE           ?PR?MCP_RECEIVE_COMMAND?MCP_CORE
00168FH   0016E4H   000056H   BYTE   UNIT     CODE           ?PR?UART0_ISR?UART_DRIVER
0016E5H   00172DH   000049H   BYTE   UNIT     CODE           ?PR?WDT_0_ENTER_DEFAULTMODE_FROM_RESET?INITDEVICE
00172EH   001775H   000048H   BYTE   UNIT     CODE           ?PR?MTR_PRE_COMMUTATION?MOTOR
001776H   0017BCH   000047H   BYTE   UNIT     CODE           ?PR?MTR_CALCULATE_MOTOR_RPM?MOTOR
0017BDH   001801H   000045H   BYTE   UNIT     CODE           ?PR?MTR_COMMUTATE?MOTOR
001802H   001842H   000041H   BYTE   UNIT     CODE           ?PR?_MCP_SET_8BIT_REGISTER?MCP_REGISTERS
001843H   001883H   000041H   BYTE   UNIT     CODE           ?PR?SL_MTR_STOP_MOTOR?MOTOR
001884H   0018C3H   000040H   BYTE   UNIT     CODE           ?PR?MTRAPP_INIT?MTRAPP
0018C4H   001902H   00003FH   BYTE   UNIT     CODE           ?PR?ADC_TASK?ADC
001903H   00193EH   00003CH   BYTE   UNIT     CODE           ?PR?_MCP_IS_16BIT_STATUS_UPDATE_ENABLED?MCP_REGISTERS
00193FH   001976H   000038H   BYTE   UNIT     CODE           ?PR?MTR_SAVE_ZERO_CROSSING_TIME?MOTOR
001977H   0019ADH   000037H   BYTE   UNIT     CODE           ?PR?SL_MTR_INIT?MOTOR
0019AEH   0019E4H   000037H   BYTE   UNIT     CODE           ?PR?SL_MTR_MOTOR?MOTOR
0019E5H   001A1AH   000036H   BYTE   UNIT     CODE           ?PR?_MCP_HEX_TO_DEC?MCP_CORE
001A1BH   001A4FH   000035H   BYTE   UNIT     CODE           ?PR?MAIN?EFM8BB1_BLDC_PORT
001A50H   001A84H   000035H   BYTE   UNIT     CODE           ?PR?_MCP_IS_8BIT_STATUS_UPDATE_ENABLED?MCP_REGISTERS
001A85H   001AB9H   000035H   BYTE   UNIT     CODE           ?PR?MTRAPP_READ_DIRECTION?MTRAPP
001ABAH   001AE8H   00002FH   BYTE   UNIT     CODE           ?PR?BTN_PROCESS?BTN
001AE9H   001B16H   00002EH   BYTE   UNIT     CODE           ?PR?_UART_SEND_BYTE?UART_DRIVER
001B17H   001B43H   00002DH   BYTE   UNIT     CODE           ?PR?ENTER_DEFAULTMODE_FROM_RESET?INITDEVICE
LX51 LINKER/LOCATER V4.66.30.0                                                        01/24/2020  09:48:17  PAGE 4


001B44H   001B6CH   000029H   BYTE   UNIT     CODE           ?PR?_UART_RECEIVE_BYTE?UART_DRIVER
001B6DH   001B94H   000028H   BYTE   UNIT     CODE           ?PR?ADC_INITIALIZE_ADC?ADC
001B95H   001BBCH   000028H   BYTE   UNIT     CODE           ?PR?PCA_INITIALIZE_PCA?PCA
001BBDH   001BE3H   000027H   BYTE   UNIT     CODE           ?PR?SL_MTR_START_MOTOR?MOTOR
001BE4H   001C0AH   000027H   BYTE   UNIT     CODE           ?PR?_TMR_DELAY_TIMER3?TIMERS
001C0BH   001C30H   000026H   BYTE   UNIT     CODE           ?PR?MCP_INIT?MCP_CORE
001C31H   001C55H   000025H   BYTE   UNIT     CODE           ?PR?PORT_SETUP?EFM8BB1_BLDC_PORT
001C56H   001C79H   000024H   BYTE   UNIT     CODE           ?PR?MCP_GET_REGISTER_ADDRESS?MCP_CORE
001C7AH   001C9AH   000021H   BYTE   UNIT     CODE           ?PR?IS_BTN1_PRESSED?BTN
001C9BH   001CBAH   000020H   BYTE   UNIT     CODE           ?PR?_MCP_GET_16BIT_REGISTER?MCP_REGISTERS
001CBBH   001CD4H   00001AH   BYTE   UNIT     CODE           ?PR?_MCP_SEND_ASCII_VALUE?MCP_CORE
001CD5H   001CEBH   000017H   BYTE   UNIT     CODE           ?PR?UART_SET_BAUD?UART_DRIVER
001CECH   001D01H   000016H   BYTE   UNIT     CODE           ?PR?_MCP_CHECK_ADDRESS?MCP_REGISTERS
001D02H   001D15H   000014H   BYTE   UNIT     CODE           ?PR?MTR_PID_INIT?MTRPID
001D16H   001D28H   000013H   BYTE   UNIT     CODE           ?PR?TIMER01_0_ENTER_DEFAULTMODE_FROM_RESET?INITDEVICE
001D29H   001D3BH   000013H   BYTE   UNIT     CODE           ?PR?TIMER16_2_ENTER_DEFAULTMODE_FROM_RESET?INITDEVICE
001D3CH   001D4EH   000013H   BYTE   UNIT     CODE           ?PR?UART_INIT?UART_DRIVER
001D4FH   001D60H   000012H   BYTE   UNIT     CODE           ?PR?UART_GET_TX_BUFFER_FREE_BYTES?UART_DRIVER
001D61H   001D72H   000012H   BYTE   UNIT     CODE           ?PR?TMR_INIT_TIMER3?TIMERS
001D73H   001D83H   000011H   BYTE   UNIT     CODE           ?PR?_SL_MTR_CHANGE_PID_GAIN?MTRPID
001D84H   001D94H   000011H   BYTE   UNIT     CODE           ?PR?TMR_INIT_TIMER0?TIMERS
001D95H   001DA3H   00000FH   BYTE   UNIT     CODE           ?PR?SL_MTR_TIME?MOTOR
001DA4H   001DB1H   00000EH   BYTE   UNIT     CODE           ?PR?PCA_0_ENTER_DEFAULTMODE_FROM_RESET?INITDEVICE
001DB2H   001DBFH   00000EH   BYTE   UNIT     CODE           ?PR?MTR_PID_COMPUTE_NEWPWM?MTRPID
001DC0H   001DCCH   00000DH   BYTE   UNIT     CODE           ?PR?PORTS_0_ENTER_DEFAULTMODE_FROM_RESET?INITDEVICE
001DCDH   001DD9H   00000DH   BYTE   UNIT     CODE           ?PR?PORTS_1_ENTER_DEFAULTMODE_FROM_RESET?INITDEVICE
001DDAH   001DE6H   00000DH   BYTE   UNIT     CODE           ?PR?TIMER16_3_ENTER_DEFAULTMODE_FROM_RESET?INITDEVICE
001DE7H   001DF3H   00000DH   BYTE   UNIT     CODE           ?PR?_MCP_GET_8BIT_REGISTER?MCP_REGISTERS
001DF4H   001E00H   00000DH   BYTE   UNIT     CODE           ?PR?UART_INIT_BUFFERS?UART_DRIVER
001E01H   001E0BH   00000BH   BYTE   UNIT     CODE           ?PR?COMP_INITIALIZE_COMP?COMP
001E0CH   001E15H   00000AH   BYTE   UNIT     CODE           ?PR?PBCFG_0_ENTER_DEFAULTMODE_FROM_RESET?INITDEVICE
001E16H   001E1FH   00000AH   BYTE   UNIT     CODE           ?PR?PCACH_0_ENTER_DEFAULTMODE_FROM_RESET?INITDEVICE
001E20H   001E29H   00000AH   BYTE   UNIT     CODE           ?PR?ADC_0_ENTER_DEFAULTMODE_FROM_RESET?INITDEVICE
001E2AH   001E33H   00000AH   BYTE   UNIT     CODE           ?PR?TIMER_SETUP_0_ENTER_DEFAULTMODE_FROM_RESET?INITDEVICE
001E34H   001E3DH   00000AH   BYTE   UNIT     CODE           ?PR?CMP_0_ENTER_DEFAULTMODE_FROM_RESET?INITDEVICE
001E3EH   001E47H   00000AH   BYTE   UNIT     CODE           ?PR?MTR_CALCULATE_PID?MOTOR
001E48H   001E4EH   000007H   BYTE   UNIT     CODE           ?PR?INTERRUPT_0_ENTER_DEFAULTMODE_FROM_RESET?INITDEVICE
001E4FH   001E55H   000007H   BYTE   UNIT     CODE           ?PR?PCA_ENABLE_PWM?PCA
001E56H   001E5BH   000006H   BYTE   UNIT     CODE           ?PR?MCP_TASK?MCP_CORE
001E5CH   001E5FH   000004H   BYTE   UNIT     CODE           ?PR?CLOCK_0_ENTER_DEFAULTMODE_FROM_RESET?INITDEVICE
001E60H   001E63H   000004H   BYTE   UNIT     CODE           ?PR?UART_0_ENTER_DEFAULTMODE_FROM_RESET?INITDEVICE
001E64H   001E67H   000004H   BYTE   UNIT     CODE           ?PR?PMATCH_ISR?INTERRUPTS
001E68H   001E6BH   000004H   BYTE   UNIT     CODE           ?PR?PCA_SET_INITIAL_POLARITY?PCA
001E6CH   001E6EH   000003H   BYTE   UNIT     CODE           ?PR?_APP_TUNE_CALLBACK?EFM8BB1_BLDC_PORT
001E6FH   001E98H   00002AH   BYTE   UNIT     CONST          ?CO?MOTOR
001E99H   001E9EH   000006H   BYTE   UNIT     CONST          ?CO?MCP_REGISTERS
001E9FH   001EA1H   000003H   BYTE   UNIT     CONST          ?CO?ADC

* * * * * * * * * * *  X D A T A   M E M O R Y  * * * * * * * * * * * * *
000000H   00002FH   000030H   BYTE   UNIT     XDATA          ?XD?MCP_REGISTERS
000030H   000056H   000027H   BYTE   UNIT     XDATA          ?XD?MOTOR
000057H   00006CH   000016H   BYTE   UNIT     XDATA          ?XD?MCP_CORE
00006DH   000078H   00000CH   BYTE   UNIT     XDATA          _XDATA_GROUP_
000079H   000082H   00000AH   BYTE   UNIT     XDATA          ?XD?MTRPID
000083H   000088H   000006H   BYTE   UNIT     XDATA          ?XD?ADC
000089H   00008CH   000004H   BYTE   UNIT     XDATA          ?XD?MTRAPP
00008DH   00008EH   000002H   BYTE   UNIT     XDATA          ?XD?BTN

* * * * * * * * *   R E M O V E D     S E G M E N T S   * * * * * * * *
   *DEL*:           000002H   BYTE   UNIT     CODE           ?PR?SLAB_ASSERT?ASSERT
   *DEL*:           00000CH   BYTE   UNIT     CODE           ?PR?PCA0_GETINTFLAGS?PCA_0
   *DEL*:           00000DH   BYTE   UNIT     CODE           ?PR?_PCA0_CLEARINTFLAG?PCA_0
LX51 LINKER/LOCATER V4.66.30.0                                                        01/24/2020  09:48:17  PAGE 5


   *DEL*:           00003DH   BYTE   UNIT     CODE           ?PR?_PCA0_ENABLEINT?PCA_0
   *DEL*:           000000H.1 BIT    UNIT     BIT            ?BI?_PCA0_ENABLEINT?PCA_0
   *DEL*:           00001EH   BYTE   UNIT     CODE           ?PR?_PCA0_READCHANNEL?PCA_0
   *DEL*:           00001EH   BYTE   UNIT     CODE           ?PR?_PCA0_WRITECHANNEL?PCA_0
   *DEL*:           00000FH   BYTE   UNIT     CODE           ?PR?PCA0_READCOUNTER?PCA_0
   *DEL*:           000005H   BYTE   UNIT     CODE           ?PR?_PCA0_WRITECOUNTER?PCA_0
   *DEL*:           000003H   BYTE   UNIT     CODE           ?PR?PCA0_RUN?PCA_0
   *DEL*:           000003H   BYTE   UNIT     CODE           ?PR?PCA0_HALT?PCA_0
   *DEL*:           000008H   BYTE   UNIT     CODE           ?PR?_PCA0_INIT?PCA_0
   *DEL*:           00006FH   BYTE   UNIT     CODE           ?PR?_PCA0_INITCHANNEL?PCA_0
   *DEL*:           00001DH   BYTE   UNIT     CODE           ?PR?PCA0_RESET?PCA_0
   *DEL*:           000001H   BYTE   UNIT     DATA           ?DT?PCA0_RESET?PCA_0
   *DEL*:           000033H   BYTE   UNIT     CODE           ?PR?_PCA0_RESETCHANNEL?PCA_0
   *DEL*:           00000AH   BYTE   UNIT     CODE           ?PR?CMP_1_ENTER_DEFAULTMODE_FROM_RESET?INITDEVICE
   *DEL*:           000001H   BYTE   UNIT     CODE           ?PR?PORTS_2_ENTER_DEFAULTMODE_FROM_RESET?INITDEVICE
   *DEL*:           000022H   BYTE   UNIT     CODE           ?PR?_MCP_SET_8BIT_REGISTER_ISR?MCP_REGISTERS
   *DEL*:           00003BH   BYTE   UNIT     CODE           ?PR?_MCP_SET_16BIT_REGISTER_ISR?MCP_REGISTERS
   *DEL*:           00000DH   BYTE   UNIT     CODE           ?PR?_MCP_GET_8BIT_REGISTER_ISR?MCP_REGISTERS
   *DEL*:           00001AH   BYTE   UNIT     CODE           ?PR?_MCP_GET_16BIT_REGISTER_ISR?MCP_REGISTERS
   *DEL*:           000007H   BYTE   UNIT     CODE           ?PR?PCA_DISABLE_PWM?PCA



OVERLAY MAP OF MODULE:   EFM8BB1_BLDC_PORT.OMF.CRBUILD (ASSERT)


FUNCTION/MODULE                                BIT_GROUP   DATA_GROUP   XDATA_GROUP
--> CALLED FUNCTION/MODULE                    START  STOP  START  STOP  START  STOP
===================================================================================
PMATCH_ISR/INTERRUPTS                         ----- -----  ----- -----  ----- -----

*** NEW ROOT ********************************

?C_C51STARTUP                                 ----- -----  ----- -----  ----- -----
  +--> SILABS_STARTUP/EFM8BB1_BLDC_PORT
  +--> MAIN/EFM8BB1_BLDC_PORT
  +--> ?C_INITSEG

SILABS_STARTUP/EFM8BB1_BLDC_PORT              ----- -----  ----- -----  ----- -----

MAIN/EFM8BB1_BLDC_PORT                        ----- -----  ----- -----  ----- -----
  +--> ENTER_DEFAULTMODE_FROM_RESET/INITDEVICE
  +--> PORT_SETUP/EFM8BB1_BLDC_PORT
  +--> UART_INIT/UART_DRIVER
  +--> ADC_INITIALIZE_ADC/ADC
  +--> _APP_TUNE_CALLBACK/EFM8BB1_BLDC_PORT
  +--> APP_RESET/EFM8BB1_BLDC_PORT
  +--> MCP_INIT/MCP_CORE
  +--> SL_MTR_INIT/MOTOR
  +--> MTRAPP_INIT/MTRAPP
  +--> ADC_TASK/ADC
  +--> BTN_PROCESS/BTN
  +--> MTRAPP_TASK/MTRAPP
  +--> MCP_TASK/MCP_CORE

ENTER_DEFAULTMODE_FROM_RESET/INITDEVICE       ----- -----  ----- -----  ----- -----
  +--> WDT_0_ENTER_DEFAULTMODE_FROM_RESET/INITDEVICE
  +--> PORTS_0_ENTER_DEFAULTMODE_FROM_RESET/INITDEVICE
  +--> PORTS_1_ENTER_DEFAULTMODE_FROM_RESET/INITDEVICE
  +--> PBCFG_0_ENTER_DEFAULTMODE_FROM_RESET/INITDEVICE
  +--> ADC_0_ENTER_DEFAULTMODE_FROM_RESET/INITDEVICE
  +--> CMP_0_ENTER_DEFAULTMODE_FROM_RESET/INITDEVICE
LX51 LINKER/LOCATER V4.66.30.0                                                        01/24/2020  09:48:17  PAGE 6


  +--> CLOCK_0_ENTER_DEFAULTMODE_FROM_RESET/INITDEVICE
  +--> TIMER01_0_ENTER_DEFAULTMODE_FROM_RESET/INITDEVICE
  +--> TIMER16_2_ENTER_DEFAULTMODE_FROM_RESET/INITDEVICE
  +--> TIMER16_3_ENTER_DEFAULTMODE_FROM_RESET/INITDEVICE
  +--> TIMER_SETUP_0_ENTER_DEFAULTMODE_FROM_RESET/INITDEVICE
  +--> PCA_0_ENTER_DEFAULTMODE_FROM_RESET/INITDEVICE
  +--> PCACH_0_ENTER_DEFAULTMODE_FROM_RESET/INITDEVICE
  +--> UART_0_ENTER_DEFAULTMODE_FROM_RESET/INITDEVICE
  +--> INTERRUPT_0_ENTER_DEFAULTMODE_FROM_RESET/INITDEVICE

WDT_0_ENTER_DEFAULTMODE_FROM_RESET/INITD+     21H.3 21H.3  005DH 0060H  ----- -----
... EVICE

PORTS_0_ENTER_DEFAULTMODE_FROM_RESET/INI+     ----- -----  ----- -----  ----- -----
... TDEVICE

PORTS_1_ENTER_DEFAULTMODE_FROM_RESET/INI+     ----- -----  ----- -----  ----- -----
... TDEVICE

PBCFG_0_ENTER_DEFAULTMODE_FROM_RESET/INI+     ----- -----  ----- -----  ----- -----
... TDEVICE

ADC_0_ENTER_DEFAULTMODE_FROM_RESET/INITD+     ----- -----  ----- -----  ----- -----
... EVICE

CMP_0_ENTER_DEFAULTMODE_FROM_RESET/INITD+     ----- -----  ----- -----  ----- -----
... EVICE

CLOCK_0_ENTER_DEFAULTMODE_FROM_RESET/INI+     ----- -----  ----- -----  ----- -----
... TDEVICE

TIMER01_0_ENTER_DEFAULTMODE_FROM_RESET/I+     ----- -----  ----- -----  ----- -----
... NITDEVICE

TIMER16_2_ENTER_DEFAULTMODE_FROM_RESET/I+     ----- -----  ----- -----  ----- -----
... NITDEVICE

TIMER16_3_ENTER_DEFAULTMODE_FROM_RESET/I+     ----- -----  ----- -----  ----- -----
... NITDEVICE

TIMER_SETUP_0_ENTER_DEFAULTMODE_FROM_RES+     ----- -----  ----- -----  ----- -----
... ET/INITDEVICE

PCA_0_ENTER_DEFAULTMODE_FROM_RESET/INITD+     ----- -----  ----- -----  ----- -----
... EVICE

PCACH_0_ENTER_DEFAULTMODE_FROM_RESET/INI+     ----- -----  ----- -----  ----- -----
... TDEVICE

UART_0_ENTER_DEFAULTMODE_FROM_RESET/INIT+     ----- -----  ----- -----  ----- -----
... DEVICE

INTERRUPT_0_ENTER_DEFAULTMODE_FROM_RESET+     ----- -----  ----- -----  ----- -----
... /INITDEVICE

PORT_SETUP/EFM8BB1_BLDC_PORT                  ----- -----  ----- -----  ----- -----

UART_INIT/UART_DRIVER                         ----- -----  ----- -----  ----- -----
  +--> UART_SET_BAUD/UART_DRIVER
  +--> UART_INIT_BUFFERS/UART_DRIVER

UART_SET_BAUD/UART_DRIVER                     ----- -----  ----- -----  ----- -----
LX51 LINKER/LOCATER V4.66.30.0                                                        01/24/2020  09:48:17  PAGE 7



UART_INIT_BUFFERS/UART_DRIVER                 ----- -----  ----- -----  ----- -----

ADC_INITIALIZE_ADC/ADC                        ----- -----  ----- -----  ----- -----
  +--> ?CO?ADC

?CO?ADC                                       ----- -----  ----- -----  ----- -----

_APP_TUNE_CALLBACK/EFM8BB1_BLDC_PORT          ----- -----  ----- -----  ----- -----

APP_RESET/EFM8BB1_BLDC_PORT                   ----- -----  ----- -----  ----- -----
  +--> SL_MTR_STOP_MOTOR/MOTOR

SL_MTR_STOP_MOTOR/MOTOR                       21H.4 21H.4  ----- -----  ----- -----
  +--> _PCA_CHANGE_DUTY_CYCLE/PCA

_PCA_CHANGE_DUTY_CYCLE/PCA                    21H.6 21H.6  0062H 0063H  ----- -----

MCP_INIT/MCP_CORE                             ----- -----  ----- -----  ----- -----
  +--> MCP_INIT_COMMANDBUF/MCP_CORE
  +--> MCP_INIT_REGISTERS/MCP_REGISTERS

MCP_INIT_COMMANDBUF/MCP_CORE                  ----- -----  ----- -----  ----- -----

MCP_INIT_REGISTERS/MCP_REGISTERS              ----- -----  ----- -----  ----- -----

SL_MTR_INIT/MOTOR                             ----- -----  ----- -----  ----- -----
  +--> PCA_INITIALIZE_PCA/PCA
  +--> TMR_INIT_TIMER3/TIMERS
  +--> TMR_INIT_TIMER0/TIMERS
  +--> COMP_INITIALIZE_COMP/COMP
  +--> PCA_ENABLE_PWM/PCA

PCA_INITIALIZE_PCA/PCA                        ----- -----  ----- -----  ----- -----

TMR_INIT_TIMER3/TIMERS                        ----- -----  ----- -----  ----- -----

TMR_INIT_TIMER0/TIMERS                        ----- -----  ----- -----  ----- -----

COMP_INITIALIZE_COMP/COMP                     ----- -----  ----- -----  ----- -----
  +--> ?CO?MOTOR

?CO?MOTOR                                     ----- -----  ----- -----  ----- -----

PCA_ENABLE_PWM/PCA                            ----- -----  ----- -----  ----- -----

MTRAPP_INIT/MTRAPP                            ----- -----  ----- -----  ----- -----
  +--> _MCP_GET_8BIT_REGISTER/MCP_REGISTERS
  +--> _MCP_GET_16BIT_REGISTER/MCP_REGISTERS

_MCP_GET_8BIT_REGISTER/MCP_REGISTERS          ----- -----  ----- -----  ----- -----

_MCP_GET_16BIT_REGISTER/MCP_REGISTERS         21H.4 21H.4  ----- -----  ----- -----

ADC_TASK/ADC                                  ----- -----  ----- -----  ----- -----
  +--> ?CO?ADC

BTN_PROCESS/BTN                               ----- -----  ----- -----  ----- -----
  +--> SL_MTR_TIME/MOTOR

SL_MTR_TIME/MOTOR                             21H.6 21H.6  ----- -----  ----- -----

LX51 LINKER/LOCATER V4.66.30.0                                                        01/24/2020  09:48:17  PAGE 8


MTRAPP_TASK/MTRAPP                            21H.3 21H.3  005DH 005DH  006DH 0070H
  +--> SL_MTR_MOTOR/MOTOR
  +--> IS_BTN1_PRESSED/BTN
  +--> SL_MTR_START_MOTOR/MOTOR
  +--> _MCP_SET_8BIT_REGISTER/MCP_REGISTERS
  +--> MTRAPP_READ_DIRECTION/MTRAPP
  +--> _MCP_GET_8BIT_REGISTER/MCP_REGISTERS
  +--> _MCP_GET_16BIT_REGISTER/MCP_REGISTERS
  +--> _SL_MTR_CHANGE_NUM_POLES/MOTOR
  +--> _SL_MTR_CHANGE_PID_GAIN/MTRPID
  +--> SL_MTR_STOP_MOTOR/MOTOR
  +--> SL_MTR_TIME/MOTOR
  +--> _MCP_SET_16BIT_REGISTER/MCP_REGISTERS
  +--> MTRAPP_READ_TARGET_SPEED/MTRAPP

SL_MTR_MOTOR/MOTOR                            ----- -----  ----- -----  ----- -----
  +--> MTR_PROCESS_ERRORS/MOTOR
  +--> MTR_PROCESS_ADC/MOTOR
  +--> MTR_CALCULATE_MOTOR_RPM/MOTOR
  +--> MTR_CALCULATE_PID/MOTOR

MTR_PROCESS_ERRORS/MOTOR                      ----- -----  005EH 0061H  ----- -----
  +--> SL_MTR_TIME/MOTOR
  +--> SL_MTR_STOP_MOTOR/MOTOR

MTR_PROCESS_ADC/MOTOR                         ----- -----  ----- -----  0071H 0072H

MTR_CALCULATE_MOTOR_RPM/MOTOR                 21H.4 21H.4  ----- -----  0071H 0074H

MTR_CALCULATE_PID/MOTOR                       ----- -----  ----- -----  ----- -----
  +--> MTR_PID_COMPUTE_NEWPWM/MTRPID
  +--> _PCA_CHANGE_DUTY_CYCLE/PCA

MTR_PID_COMPUTE_NEWPWM/MTRPID                 ----- -----  ----- -----  ----- -----
  +--> MTR_PID_COMPUTE_THREAD/MTRPID

MTR_PID_COMPUTE_THREAD/MTRPID                 ----- -----  005EH 005EH  ----- -----

IS_BTN1_PRESSED/BTN                           ----- -----  ----- -----  ----- -----
  +--> BTN_PROCESS/BTN

SL_MTR_START_MOTOR/MOTOR                      ----- -----  ----- -----  ----- -----
  +--> MTR_CHECK_MOTOR_SPINNING/MOTOR
  +--> MTR_START_SPINNING/MOTOR
  +--> MTR_DO_QUICKSTART/MOTOR

MTR_CHECK_MOTOR_SPINNING/MOTOR                21H.4 21H.5  005EH 005EH  ----- -----
  +--> SL_MTR_TIME/MOTOR

MTR_START_SPINNING/MOTOR                      21H.4 21H.4  005EH 0061H  0071H 0078H
  +--> PCA_SET_INITIAL_POLARITY/PCA
  +--> _TMR_DELAY_TIMER3/TIMERS
  +--> _PCA_CHANGE_DUTY_CYCLE/PCA
  +--> MTR_COMMUTATE/MOTOR
  +--> ?CO?MOTOR

PCA_SET_INITIAL_POLARITY/PCA                  ----- -----  ----- -----  ----- -----

_TMR_DELAY_TIMER3/TIMERS                      ----- -----  ----- -----  ----- -----

MTR_COMMUTATE/MOTOR                           ----- -----  ----- -----  ----- -----
  +--> MTR_PRE_COMMUTATION/MOTOR
LX51 LINKER/LOCATER V4.66.30.0                                                        01/24/2020  09:48:17  PAGE 9



MTR_PRE_COMMUTATION/MOTOR                     ----- -----  ----- -----  ----- -----
  +--> ?CO?MOTOR

MTR_DO_QUICKSTART/MOTOR                       21H.4 21H.5  005EH 0061H  ----- -----
  +--> _TMR_DELAY_TIMER3/TIMERS
  +--> MTR_SAVE_ZERO_CROSSING_TIME/MOTOR
  +--> MTR_PRE_COMMUTATION/MOTOR
  +--> _PCA_CHANGE_DUTY_CYCLE/PCA
  +--> MTR_PID_INIT/MTRPID

MTR_SAVE_ZERO_CROSSING_TIME/MOTOR             ----- -----  ----- -----  ----- -----

MTR_PID_INIT/MTRPID                           ----- -----  ----- -----  ----- -----

_MCP_SET_8BIT_REGISTER/MCP_REGISTERS          21H.4 21H.4  ----- -----  ----- -----
  +--> ?CO?MCP_REGISTERS

?CO?MCP_REGISTERS                             ----- -----  ----- -----  ----- -----

MTRAPP_READ_DIRECTION/MTRAPP                  ----- -----  ----- -----  ----- -----
  +--> _MCP_SET_8BIT_REGISTER/MCP_REGISTERS
  +--> _MCP_GET_8BIT_REGISTER/MCP_REGISTERS

_SL_MTR_CHANGE_NUM_POLES/MOTOR                ----- -----  ----- -----  ----- -----

_SL_MTR_CHANGE_PID_GAIN/MTRPID                ----- -----  ----- -----  ----- -----

_MCP_SET_16BIT_REGISTER/MCP_REGISTERS         21H.4 21H.5  0060H 0063H  ----- -----
  +--> ?CO?MCP_REGISTERS

MTRAPP_READ_TARGET_SPEED/MTRAPP               ----- -----  005EH 005FH  ----- -----
  +--> SL_MTR_TIME/MOTOR
  +--> _MCP_GET_16BIT_REGISTER/MCP_REGISTERS
  +--> _MCP_SET_16BIT_REGISTER/MCP_REGISTERS

MCP_TASK/MCP_CORE                             ----- -----  ----- -----  ----- -----
  +--> MCP_COMMAND_TASK/MCP_CORE
  +--> MCP_STATUS_UPDATE_TASK/MCP_CORE

MCP_COMMAND_TASK/MCP_CORE                     ----- -----  005DH 005DH  ----- -----
  +--> MCP_RECEIVE_COMMAND/MCP_CORE
  +--> MCP_PROCESS_COMMAND/MCP_CORE
  +--> UART_GET_TX_BUFFER_FREE_BYTES/UART_DRIVER
  +--> _UART_SEND_BYTE/UART_DRIVER
  +--> MCP_INIT_COMMANDBUF/MCP_CORE

MCP_RECEIVE_COMMAND/MCP_CORE                  ----- -----  ----- -----  ----- -----
  +--> _UART_RECEIVE_BYTE/UART_DRIVER

_UART_RECEIVE_BYTE/UART_DRIVER                ----- -----  ----- -----  ----- -----

MCP_PROCESS_COMMAND/MCP_CORE                  ----- -----  005EH 005EH  ----- -----
  +--> MCP_GET_REGISTER_ADDRESS/MCP_CORE
  +--> _MCP_GET_8BIT_REGISTER/MCP_REGISTERS
  +--> _MCP_SEND_ASCII_VALUE/MCP_CORE
  +--> _MCP_SET_8BIT_REGISTER/MCP_REGISTERS
  +--> _MCP_SET_16BIT_REGISTER/MCP_REGISTERS
  +--> _MCP_GET_16BIT_REGISTER/MCP_REGISTERS
  +--> _MCP_STATUS_UPDATE_REGISTER/MCP_REGISTERS

MCP_GET_REGISTER_ADDRESS/MCP_CORE             ----- -----  ----- -----  ----- -----
LX51 LINKER/LOCATER V4.66.30.0                                                        01/24/2020  09:48:17  PAGE 10


  +--> _MCP_HEX_TO_DEC/MCP_CORE

_MCP_HEX_TO_DEC/MCP_CORE                      ----- -----  ----- -----  ----- -----

_MCP_SEND_ASCII_VALUE/MCP_CORE                ----- -----  ----- -----  ----- -----
  +--> _MCP_DEC_TO_ASCNUMBUF/MCP_CORE

_MCP_DEC_TO_ASCNUMBUF/MCP_CORE                ----- -----  005FH 0063H  ----- -----

_MCP_STATUS_UPDATE_REGISTER/MCP_REGISTER+     21H.3 21H.3  005FH 005FH  ----- -----
... S
  +--> _MCP_CHECK_ADDRESS/MCP_REGISTERS

_MCP_CHECK_ADDRESS/MCP_REGISTERS              ----- -----  ----- -----  ----- -----

UART_GET_TX_BUFFER_FREE_BYTES/UART_DRIVE+     ----- -----  ----- -----  ----- -----
... R

_UART_SEND_BYTE/UART_DRIVER                   ----- -----  ----- -----  ----- -----

MCP_STATUS_UPDATE_TASK/MCP_CORE               ----- -----  005DH 005DH  ----- -----
  +--> MCP_UPDATE_STATUS/MCP_CORE
  +--> UART_GET_TX_BUFFER_FREE_BYTES/UART_DRIVER
  +--> _UART_SEND_BYTE/UART_DRIVER

MCP_UPDATE_STATUS/MCP_CORE                    ----- -----  ----- -----  ----- -----
  +--> _MCP_IS_8BIT_STATUS_UPDATE_ENABLED/MCP_REGISTERS
  +--> _MCP_GET_8BIT_REGISTER/MCP_REGISTERS
  +--> _MCP_IS_16BIT_STATUS_UPDATE_ENABLED/MCP_REGISTERS
  +--> _MCP_GET_16BIT_REGISTER/MCP_REGISTERS

_MCP_IS_8BIT_STATUS_UPDATE_ENABLED/MCP_R+     ----- -----  ----- -----  ----- -----
... EGISTERS

_MCP_IS_16BIT_STATUS_UPDATE_ENABLED/MCP_+     ----- -----  ----- -----  ----- -----
... REGISTERS

?C_INITSEG                                    ----- -----  ----- -----  ----- -----

*** NEW ROOT ********************************

UART0_ISR/UART_DRIVER                         ----- -----  ----- -----  ----- -----

*** NEW ROOT ********************************

CMP0_ISR/MOTOR                                ----- -----  ----- -----  ----- -----
  +--> MTR_SAVE_ZERO_CROSSING_TIME/MOTOR
  +--> MTR_PRE_COMMUTATION/MOTOR

*** NEW ROOT ********************************

TIMER0_ISR/MOTOR                              ----- -----  ----- -----  ----- -----
  +--> MTR_COMMUTATE/MOTOR
  +--> ?CO?MOTOR

*** NEW ROOT ********************************

PCA0_ISR/PCA                                  ----- -----  ----- -----  ----- -----



PUBLIC SYMBOLS OF MODULE:  EFM8BB1_BLDC_PORT.OMF.CRBUILD (ASSERT)
LX51 LINKER/LOCATER V4.66.30.0                                                        01/24/2020  09:48:17  PAGE 11




      VALUE       CLASS    TYPE      PUBLIC SYMBOL NAME
      =================================================
      00000021H.4 BIT      BIT       ?_MCP_set_16bit_register?BIT
      00000021H.4 BIT      BIT       ?_MCP_set_8bit_register?BIT
      00000021H.3 BIT      BIT       ?_MCP_status_update_register?BIT
*DEL*:00000000H.0 BIT      BIT       ?_PCA0_enableInt?BIT
      00000000H   NUMBER   ---       ?C?CODESEG
      010002BCH   CODE     ---       ?C?ICALL
      010002C0H   CODE     ---       ?C?ICALL2
      0100028FH   CODE     ---       ?C?ICASE
      01000066H   CODE     ---       ?C?IMUL
      010002C2H   CODE     ---       ?C?LIMUL
      010000CDH   CODE     ---       ?C?LMUL
      010001EAH   CODE     ---       ?C?LNEG
      01000252H   CODE     ---       ?C?LSTKXDATA
      01000246H   CODE     ---       ?C?LSTXDATA
      01000283H   CODE     ---       ?C?OFFXADD
      010001F8H   CODE     ---       ?C?SLCMP
      01000232H   CODE     ---       ?C?SLSHR
      01000078H   CODE     ---       ?C?UIDIV
      0100020EH   CODE     ---       ?C?ULCMP
      01000158H   CODE     ---       ?C?ULDIV
      0100021FH   CODE     ---       ?C?ULSHR
      00000000H   NUMBER   ---       ?C?XDATASEG
      010012C5H   CODE     ---       ?C_START
      01000000H   CODE     NEAR LAB  ?C_STARTUP
      01001C9BH   CODE     ---       _MCP_get_16bit_register
*DEL*:00000000H   CODE     ---       _MCP_get_16bit_register_isr
      01001DE7H   CODE     ---       _MCP_get_8bit_register
*DEL*:00000000H   CODE     ---       _MCP_get_8bit_register_isr
      01001903H   CODE     ---       _MCP_is_16bit_status_update_enabled
      01001A50H   CODE     ---       _MCP_is_8bit_status_update_enabled
      0100150FH   CODE     ---       _MCP_set_16bit_register
*DEL*:00000000H   CODE     ---       _MCP_set_16bit_register_isr
      01001802H   CODE     ---       _MCP_set_8bit_register
*DEL*:00000000H   CODE     ---       _MCP_set_8bit_register_isr
      0100149CH   CODE     ---       _MCP_status_update_register
      00000008H   DATA     ---       _MCP_tune_callback
*DEL*:00000000H   CODE     ---       _PCA0_clearIntFlag
*DEL*:00000000H   CODE     ---       _PCA0_enableInt
*DEL*:00000000H   CODE     ---       _PCA0_init
*DEL*:00000000H   CODE     ---       _PCA0_initChannel
*DEL*:00000000H   CODE     ---       _PCA0_readChannel
*DEL*:00000000H   CODE     ---       _PCA0_resetChannel
*DEL*:00000000H   CODE     ---       _PCA0_writeChannel
*DEL*:00000000H   CODE     ---       _PCA0_writeCounter
      010011E9H   CODE     ---       _PCA_change_duty_cycle
      01000046H   CODE     ---       _SL_MTR_change_num_poles
      01001D73H   CODE     ---       _SL_MTR_change_pid_gain
      01001BE4H   CODE     ---       _TMR_delay_timer3
      01001B44H   CODE     ---       _UART_receive_byte
      01001AE9H   CODE     ---       _UART_send_byte
*SFR* 000000E0H   DATA     BYTE      ACC
*SFR* 000000E0H   DATA     BIT       ACC_ACC0
*SFR* 000000E0H.1 DATA     BIT       ACC_ACC1
*SFR* 000000E0H.2 DATA     BIT       ACC_ACC2
*SFR* 000000E0H.3 DATA     BIT       ACC_ACC3
*SFR* 000000E0H.4 DATA     BIT       ACC_ACC4
*SFR* 000000E0H.5 DATA     BIT       ACC_ACC5
*SFR* 000000E0H.6 DATA     BIT       ACC_ACC6
LX51 LINKER/LOCATER V4.66.30.0                                                        01/24/2020  09:48:17  PAGE 12


*SFR* 000000E0H.7 DATA     BIT       ACC_ACC7
      01001E93H   CONST    ---       active_gpio
*SFR* 000000BDH   DATA     WORD      ADC0
*SFR* 000000B3H   DATA     BYTE      ADC0AC
*SFR* 000000BCH   DATA     BYTE      ADC0CF
*SFR* 000000E8H   DATA     BYTE      ADC0CN0
*SFR* 000000E8H.6 DATA     BIT       ADC0CN0_ADBMEN
*SFR* 000000E8H.4 DATA     BIT       ADC0CN0_ADBUSY
*SFR* 000000E8H   DATA     BIT       ADC0CN0_ADCM0
*SFR* 000000E8H.1 DATA     BIT       ADC0CN0_ADCM1
*SFR* 000000E8H.2 DATA     BIT       ADC0CN0_ADCM2
*SFR* 000000E8H.7 DATA     BIT       ADC0CN0_ADEN
*SFR* 000000E8H.5 DATA     BIT       ADC0CN0_ADINT
*SFR* 000000E8H.3 DATA     BIT       ADC0CN0_ADWINT
*SFR* 000000B2H   DATA     BYTE      ADC0CN1
*SFR* 000000C3H   DATA     WORD      ADC0GT
*SFR* 000000C4H   DATA     BYTE      ADC0GTH
*SFR* 000000C3H   DATA     BYTE      ADC0GTL
*SFR* 000000BEH   DATA     BYTE      ADC0H
*SFR* 000000BDH   DATA     BYTE      ADC0L
*SFR* 000000C5H   DATA     WORD      ADC0LT
*SFR* 000000C6H   DATA     BYTE      ADC0LTH
*SFR* 000000C5H   DATA     BYTE      ADC0LTL
*SFR* 000000BBH   DATA     BYTE      ADC0MX
*SFR* 000000DFH   DATA     BYTE      ADC0PWR
*SFR* 000000B9H   DATA     BYTE      ADC0TK
      01001E20H   CODE     ---       ADC_0_enter_DefaultMode_from_RESET
      00000071H   DATA     BYTE      adc_flags
      01001B6DH   CODE     ---       ADC_initialize_adc
      01001E9FH   CONST    ---       adc_mux
      02000083H   XDATA    ---       adc_result
      010018C4H   CODE     ---       ADC_task
*SFR* 000000F0H   DATA     BYTE      B
*SFR* 000000F0H   DATA     BIT       B_B0
*SFR* 000000F0H.1 DATA     BIT       B_B1
*SFR* 000000F0H.2 DATA     BIT       B_B2
*SFR* 000000F0H.3 DATA     BIT       B_B3
*SFR* 000000F0H.4 DATA     BIT       B_B4
*SFR* 000000F0H.5 DATA     BIT       B_B5
*SFR* 000000F0H.6 DATA     BIT       B_B6
*SFR* 000000F0H.7 DATA     BIT       B_B7
*SFR* 00000080H.2 DATA     BIT       BSP_BTN0
*SFR* 00000090H.4 DATA     BIT       BSP_LED0
*SFR* 00000080H.2 DATA     BIT       BTN0
*SFR* 00000090H.1 DATA     BIT       BTN1
      01001ABAH   CODE     ---       btn_process
      00000072H   DATA     BYTE      btn_released_time
*SFR* 0000008EH   DATA     BYTE      CKCON0
*SFR* 000000A9H   DATA     BYTE      CLKSEL
      01001E5CH   CODE     ---       CLOCK_0_enter_DefaultMode_from_RESET
      0100096DH   CODE     ---       CMP0_ISR
*SFR* 0000009BH   DATA     BYTE      CMP0CN0
*SFR* 0000009DH   DATA     BYTE      CMP0MD
*SFR* 0000009FH   DATA     BYTE      CMP0MX
*SFR* 000000BFH   DATA     BYTE      CMP1CN0
*SFR* 000000ABH   DATA     BYTE      CMP1MD
*SFR* 000000AAH   DATA     BYTE      CMP1MX
      01001E34H   CODE     ---       CMP_0_enter_DefaultMode_from_RESET
*DEL*:00000000H   CODE     ---       CMP_1_enter_DefaultMode_from_RESET
      00000038H   DATA     BYTE      commutation_index
      01001E01H   CODE     ---       COMP_initialize_comp
      01001E75H   CONST    ---       compMux
LX51 LINKER/LOCATER V4.66.30.0                                                        01/24/2020  09:48:17  PAGE 13


*SFR* 000000D2H   DATA     BYTE      CRC0AUTO
*SFR* 000000CEH   DATA     BYTE      CRC0CN0
*SFR* 000000D3H   DATA     BYTE      CRC0CNT
*SFR* 000000DEH   DATA     BYTE      CRC0DAT
*SFR* 000000CFH   DATA     BYTE      CRC0FLIP
*SFR* 000000DDH   DATA     BYTE      CRC0IN
*SFR* 000000ADH   DATA     BYTE      DERIVID
*SFR* 000000B5H   DATA     BYTE      DEVICEID
*SFR* 00000082H   DATA     WORD      DP
*SFR* 00000083H   DATA     BYTE      DPH
*SFR* 00000082H   DATA     BYTE      DPL
*SFR* 000000E6H   DATA     BYTE      EIE1
*SFR* 000000F3H   DATA     BYTE      EIP1
      01001B17H   CODE     ---       enter_DefaultMode_from_RESET
      02000042H   XDATA    WORD      error_event_time
*SFR* 000000B7H   DATA     BYTE      FLKEY
      01001E8DH   CONST    ---       freeterminal
      00000020H.2 BIT      BIT       handle_motor_error
*SFR* 000000C7H   DATA     BYTE      HFO0CAL
*SFR* 000000A8H   DATA     BYTE      IE
*SFR* 000000A8H.7 DATA     BIT       IE_EA
*SFR* 000000A8H.4 DATA     BIT       IE_ES0
*SFR* 000000A8H.6 DATA     BIT       IE_ESPI0
*SFR* 000000A8H.1 DATA     BIT       IE_ET0
*SFR* 000000A8H.3 DATA     BIT       IE_ET1
*SFR* 000000A8H.5 DATA     BIT       IE_ET2
*SFR* 000000A8H   DATA     BIT       IE_EX0
*SFR* 000000A8H.2 DATA     BIT       IE_EX1
      01001E48H   CODE     ---       INTERRUPT_0_enter_DefaultMode_from_RESET
*SFR* 000000B8H   DATA     BYTE      IP
*SFR* 000000B8H.4 DATA     BIT       IP_PS0
*SFR* 000000B8H.6 DATA     BIT       IP_PSPI0
*SFR* 000000B8H.1 DATA     BIT       IP_PT0
*SFR* 000000B8H.3 DATA     BIT       IP_PT1
*SFR* 000000B8H.5 DATA     BIT       IP_PT2
*SFR* 000000B8H   DATA     BIT       IP_PX0
*SFR* 000000B8H.2 DATA     BIT       IP_PX1
      01001C7AH   CODE     ---       is_btn1_pressed
*SFR* 000000E4H   DATA     BYTE      IT01CF
      00000020H.3 BIT      BIT       last_motor_stalled
*SFR* 000000B1H   DATA     BYTE      LFO0CN
      01001A1BH   CODE     ---       main
      02000057H   XDATA    ---       mcp
      02000000H   XDATA    ---       MCP_16_bit_registers
      02000020H   XDATA    ---       MCP_8_bit_registers
      01001C0BH   CODE     ---       MCP_init
      0100141FH   CODE     ---       MCP_init_registers
      01001E9BH   CONST    ---       MCP_reg16_access_type
      00000048H   DATA     ---       MCP_reg16_dirty_bit_map
      0000004EH   DATA     ---       MCP_reg16_status_update_map
      01001E99H   CONST    WORD      MCP_reg8_access_type
      00000046H   DATA     WORD      MCP_reg8_dirty_bit_map
      0000004CH   DATA     WORD      MCP_reg8_status_update_map
      00000017H   DATA     ---       MCP_reset_callback
      02000069H   XDATA    ---       mcp_status
      01001E56H   CODE     ---       MCP_task
      0200006BH   XDATA    ---       mcp_tune
      01001776H   CODE     ---       MTR_calculate_motor_rpm
      01001E3EH   CODE     ---       MTR_calculate_pid
      01001575H   CODE     ---       MTR_check_motor_spinning
      010017C6H   CODE     ---       MTR_commutate
      01000663H   CODE     ---       MTR_do_quickstart
LX51 LINKER/LOCATER V4.66.30.0                                                        01/24/2020  09:48:17  PAGE 14


      01001DB2H   CODE     ---       MTR_pid_compute_newpwm
      01001D02H   CODE     ---       MTR_pid_init
      0100172EH   CODE     ---       MTR_pre_commutation
      0100193FH   CODE     ---       MTR_save_zero_crossing_time
      010004D2H   CODE     ---       MTR_start_spinning
      01001884H   CODE     ---       MTRAPP_init
      01001A85H   CODE     ---       MTRAPP_read_direction
      01000FA8H   CODE     ---       MTRAPP_read_target_speed
      01000E9CH   CODE     ---       MTRAPP_task
      02000045H   XDATA    BYTE      num_poles
      00000037H   DATA     BYTE      open_phase
*SFR* 00000080H   DATA     BYTE      P0
*SFR* 00000080H   DATA     BIT       P0_B0
*SFR* 00000080H.1 DATA     BIT       P0_B1
*SFR* 00000080H.2 DATA     BIT       P0_B2
*SFR* 00000080H.3 DATA     BIT       P0_B3
*SFR* 00000080H.4 DATA     BIT       P0_B4
*SFR* 00000080H.5 DATA     BIT       P0_B5
*SFR* 00000080H.6 DATA     BIT       P0_B6
*SFR* 00000080H.7 DATA     BIT       P0_B7
*SFR* 000000FEH   DATA     BYTE      P0MASK
*SFR* 000000FDH   DATA     BYTE      P0MAT
*SFR* 000000F1H   DATA     BYTE      P0MDIN
*SFR* 000000A4H   DATA     BYTE      P0MDOUT
*SFR* 000000D4H   DATA     BYTE      P0SKIP
*SFR* 00000090H   DATA     BYTE      P1
*SFR* 00000090H   DATA     BIT       P1_B0
*SFR* 00000090H.1 DATA     BIT       P1_B1
*SFR* 00000090H.2 DATA     BIT       P1_B2
*SFR* 00000090H.3 DATA     BIT       P1_B3
*SFR* 00000090H.4 DATA     BIT       P1_B4
*SFR* 00000090H.5 DATA     BIT       P1_B5
*SFR* 00000090H.6 DATA     BIT       P1_B6
*SFR* 00000090H.7 DATA     BIT       P1_B7
*SFR* 000000EEH   DATA     BYTE      P1MASK
*SFR* 000000EDH   DATA     BYTE      P1MAT
*SFR* 000000F2H   DATA     BYTE      P1MDIN
*SFR* 000000A5H   DATA     BYTE      P1MDOUT
*SFR* 000000D5H   DATA     BYTE      P1SKIP
*SFR* 000000A0H   DATA     BYTE      P2
*SFR* 000000A0H   DATA     BIT       P2_B0
*SFR* 000000A0H.1 DATA     BIT       P2_B1
*SFR* 000000A6H   DATA     BYTE      P2MDOUT
      01001E0CH   CODE     ---       PBCFG_0_enter_DefaultMode_from_RESET
*SFR* 000000F9H   DATA     WORD      PCA0
*DEL*:00000000H   CODE     ---       PCA0_getIntFlags
*DEL*:00000000H   CODE     ---       PCA0_halt
      0100130AH   CODE     ---       PCA0_ISR
*DEL*:00000000H   CODE     ---       PCA0_readCounter
*DEL*:00000000H   CODE     ---       PCA0_reset
*DEL*:00000000H   CODE     ---       PCA0_run
*SFR* 0000009EH   DATA     BYTE      PCA0CENT
*SFR* 0000009CH   DATA     BYTE      PCA0CLR
*SFR* 000000D8H   DATA     BYTE      PCA0CN0
*SFR* 000000D8H   DATA     BIT       PCA0CN0_CCF0
*SFR* 000000D8H.1 DATA     BIT       PCA0CN0_CCF1
*SFR* 000000D8H.2 DATA     BIT       PCA0CN0_CCF2
*SFR* 000000D8H.7 DATA     BIT       PCA0CN0_CF
*SFR* 000000D8H.6 DATA     BIT       PCA0CN0_CR
*SFR* 000000FBH   DATA     WORD      PCA0CP0
*SFR* 000000E9H   DATA     WORD      PCA0CP1
*SFR* 000000EBH   DATA     WORD      PCA0CP2
LX51 LINKER/LOCATER V4.66.30.0                                                        01/24/2020  09:48:17  PAGE 15


*SFR* 000000FCH   DATA     BYTE      PCA0CPH0
*SFR* 000000EAH   DATA     BYTE      PCA0CPH1
*SFR* 000000ECH   DATA     BYTE      PCA0CPH2
*SFR* 000000FBH   DATA     BYTE      PCA0CPL0
*SFR* 000000E9H   DATA     BYTE      PCA0CPL1
*SFR* 000000EBH   DATA     BYTE      PCA0CPL2
*SFR* 000000DAH   DATA     BYTE      PCA0CPM0
*SFR* 000000DBH   DATA     BYTE      PCA0CPM1
*SFR* 000000DCH   DATA     BYTE      PCA0CPM2
*SFR* 000000FAH   DATA     BYTE      PCA0H
*SFR* 000000F9H   DATA     BYTE      PCA0L
*SFR* 000000D9H   DATA     BYTE      PCA0MD
*SFR* 00000096H   DATA     BYTE      PCA0POL
*SFR* 000000F7H   DATA     BYTE      PCA0PWM
      01001DA4H   CODE     ---       PCA_0_enter_DefaultMode_from_RESET
*DEL*:00000000H   CODE     ---       PCA_disable_pwm
      01001E4FH   CODE     ---       PCA_enable_pwm
      01001B95H   CODE     ---       PCA_initialize_pca
      01001E68H   CODE     ---       PCA_set_initial_polarity
      01001E16H   CODE     ---       PCACH_0_enter_DefaultMode_from_RESET
*SFR* 00000087H   DATA     BYTE      PCON0
      02000032H   XDATA    BYTE      pid_calc_interval
      00000022H.6 BIT      BIT       pid_done
      00000020H.4 BIT      BIT       pid_flag
      01001E64H   CODE     ---       PMATCH_ISR
      01001C31H   CODE     ---       Port_Setup
      01001DC0H   CODE     ---       PORTS_0_enter_DefaultMode_from_RESET
      01001DCDH   CODE     ---       PORTS_1_enter_DefaultMode_from_RESET
*DEL*:00000000H   CODE     ---       PORTS_2_enter_DefaultMode_from_RESET
*SFR* 000000A0H   DATA     BYTE      PPAGE_SFR
      02000033H   XDATA    BYTE      pre_p0skip
      02000034H   XDATA    BYTE      pre_p1skip
      0200003FH   XDATA    BYTE      pre_port1
      0000002DH   DATA     ---       prev_zc_time
*SFR* 000000F6H   DATA     BYTE      PRTDRV
*SFR* 0000008FH   DATA     BYTE      PSCTL
*SFR* 000000D0H   DATA     BYTE      PSW
*SFR* 000000D0H.6 DATA     BIT       PSW_AC
*SFR* 000000D0H.7 DATA     BIT       PSW_CY
*SFR* 000000D0H.5 DATA     BIT       PSW_F0
*SFR* 000000D0H.1 DATA     BIT       PSW_F1
*SFR* 000000D0H.2 DATA     BIT       PSW_OV
*SFR* 000000D0H   DATA     BIT       PSW_PARITY
*SFR* 000000D0H.3 DATA     BIT       PSW_RS0
*SFR* 000000D0H.4 DATA     BIT       PSW_RS1
*SFR* 000000D1H   DATA     BYTE      REF0CN
*SFR* 000000C9H   DATA     BYTE      REG0CN
      0000006DH   DATA     BYTE      repeated_timer0
*SFR* 000000B6H   DATA     BYTE      REVID
*SFR* 000000EFH   DATA     BYTE      RSTSRC
*SFR* 00000099H   DATA     BYTE      SBUF0
*SFR* 00000098H   DATA     BYTE      SCON0
*SFR* 00000098H.5 DATA     BIT       SCON0_MCE
*SFR* 00000098H.2 DATA     BIT       SCON0_RB8
*SFR* 00000098H.4 DATA     BIT       SCON0_REN
*SFR* 00000098H   DATA     BIT       SCON0_RI
*SFR* 00000098H.7 DATA     BIT       SCON0_SMODE
*SFR* 00000098H.3 DATA     BIT       SCON0_TB8
*SFR* 00000098H.1 DATA     BIT       SCON0_TI
      01000003H   CODE     ---       SiLabs_Startup
      01001E81H   CONST    ---       skipPattern
      01001977H   CODE     ---       SL_MTR_init
LX51 LINKER/LOCATER V4.66.30.0                                                        01/24/2020  09:48:17  PAGE 16


      010019AEH   CODE     ---       SL_MTR_motor
      01001BBDH   CODE     ---       SL_MTR_start_motor
      01001843H   CODE     ---       SL_MTR_stop_motor
      01001D95H   CODE     ---       SL_MTR_time
*DEL*:00000000H   CODE     ---       slab_Assert
      00000044H   DATA     ---       SLR_minimum_duty
      0000002BH   DATA     WORD      SLR_minimum_rpm
      02000052H   XDATA    WORD      SLR_motor_current
      0200003DH   XDATA    WORD      SLR_motor_current_rpm
      00000020H.6 BIT      BIT       SLR_motor_stalled
      000000B2H   IDATA    BYTE      SLR_motor_state
      02000046H   XDATA    WORD      SLR_motor_voltage
      0000003DH   DATA     WORD      SLR_pwm_duty
      02000048H   XDATA    BYTE      SLW_current_limit
      0200004DH   XDATA    WORD      SLW_motor_max_rpm
      02000044H   XDATA    BYTE      SLW_oc_debounce
      00000021H.2 BIT      BIT       SLW_pwm_updated
      00000021H.1 BIT      BIT       SLW_rpm_updated
      02000040H   XDATA    WORD      SLW_target_pwm_duty
      00000031H   DATA     WORD      SLW_target_rpm
      00000020H.5 BIT      BIT       SLW_user_direction
*SFR* 000000D6H   DATA     BYTE      SMB0ADM
*SFR* 000000D7H   DATA     BYTE      SMB0ADR
*SFR* 000000C1H   DATA     BYTE      SMB0CF
*SFR* 000000C0H   DATA     BYTE      SMB0CN0
*SFR* 000000C0H.1 DATA     BIT       SMB0CN0_ACK
*SFR* 000000C0H.3 DATA     BIT       SMB0CN0_ACKRQ
*SFR* 000000C0H.2 DATA     BIT       SMB0CN0_ARBLOST
*SFR* 000000C0H.7 DATA     BIT       SMB0CN0_MASTER
*SFR* 000000C0H   DATA     BIT       SMB0CN0_SI
*SFR* 000000C0H.5 DATA     BIT       SMB0CN0_STA
*SFR* 000000C0H.4 DATA     BIT       SMB0CN0_STO
*SFR* 000000C0H.6 DATA     BIT       SMB0CN0_TXMODE
*SFR* 000000C2H   DATA     BYTE      SMB0DAT
*SFR* 000000ACH   DATA     BYTE      SMB0TC
*SFR* 00000081H   DATA     BYTE      SP
      00000021H.0 BIT      BIT       speed_updated
*SFR* 000000A1H   DATA     BYTE      SPI0CFG
*SFR* 000000A2H   DATA     BYTE      SPI0CKR
*SFR* 000000F8H   DATA     BYTE      SPI0CN0
*SFR* 000000F8H.5 DATA     BIT       SPI0CN0_MODF
*SFR* 000000F8H.2 DATA     BIT       SPI0CN0_NSSMD0
*SFR* 000000F8H.3 DATA     BIT       SPI0CN0_NSSMD1
*SFR* 000000F8H.4 DATA     BIT       SPI0CN0_RXOVRN
*SFR* 000000F8H   DATA     BIT       SPI0CN0_SPIEN
*SFR* 000000F8H.7 DATA     BIT       SPI0CN0_SPIF
*SFR* 000000F8H.1 DATA     BIT       SPI0CN0_TXBMT
*SFR* 000000F8H.6 DATA     BIT       SPI0CN0_WCOL
*SFR* 000000A3H   DATA     BYTE      SPI0DAT
      01001E6FH   CONST    ---       start_delay
*SFR* 00000088H   DATA     BYTE      TCON
*SFR* 00000088H.1 DATA     BIT       TCON_IE0
*SFR* 00000088H.3 DATA     BIT       TCON_IE1
*SFR* 00000088H   DATA     BIT       TCON_IT0
*SFR* 00000088H.2 DATA     BIT       TCON_IT1
*SFR* 00000088H.5 DATA     BIT       TCON_TF0
*SFR* 00000088H.7 DATA     BIT       TCON_TF1
*SFR* 00000088H.4 DATA     BIT       TCON_TR0
*SFR* 00000088H.6 DATA     BIT       TCON_TR1
*SFR* 0000008CH   DATA     BYTE      TH0
*SFR* 0000008DH   DATA     BYTE      TH1
      00000039H   DATA     ---       time_per_rotate
LX51 LINKER/LOCATER V4.66.30.0                                                        01/24/2020  09:48:17  PAGE 17


      01001D16H   CODE     ---       TIMER01_0_enter_DefaultMode_from_RESET
      01001088H   CODE     ---       TIMER0_ISR
      0000006FH   DATA     ---       timer0_next
      0000006EH   DATA     BYTE      timer0_state
      01001D29H   CODE     ---       TIMER16_2_enter_DefaultMode_from_RESET
      01001DDAH   CODE     ---       TIMER16_3_enter_DefaultMode_from_RESET
      01001E2AH   CODE     ---       TIMER_SETUP_0_enter_DefaultMode_from_RESET
*SFR* 0000008AH   DATA     BYTE      TL0
*SFR* 0000008BH   DATA     BYTE      TL1
*SFR* 00000089H   DATA     BYTE      TMOD
*SFR* 000000CCH   DATA     WORD      TMR2
*SFR* 000000C8H   DATA     BYTE      TMR2CN0
*SFR* 000000C8H.3 DATA     BIT       TMR2CN0_T2SPLIT
*SFR* 000000C8H   DATA     BIT       TMR2CN0_T2XCLK
*SFR* 000000C8H.4 DATA     BIT       TMR2CN0_TF2CEN
*SFR* 000000C8H.7 DATA     BIT       TMR2CN0_TF2H
*SFR* 000000C8H.6 DATA     BIT       TMR2CN0_TF2L
*SFR* 000000C8H.5 DATA     BIT       TMR2CN0_TF2LEN
*SFR* 000000C8H.2 DATA     BIT       TMR2CN0_TR2
*SFR* 000000CDH   DATA     BYTE      TMR2H
*SFR* 000000CCH   DATA     BYTE      TMR2L
*SFR* 000000CAH   DATA     WORD      TMR2RL
*SFR* 000000CBH   DATA     BYTE      TMR2RLH
*SFR* 000000CAH   DATA     BYTE      TMR2RLL
*SFR* 00000094H   DATA     WORD      TMR3
*SFR* 00000091H   DATA     BYTE      TMR3CN0
*SFR* 00000095H   DATA     BYTE      TMR3H
*SFR* 00000094H   DATA     BYTE      TMR3L
*SFR* 00000092H   DATA     WORD      TMR3RL
*SFR* 00000093H   DATA     BYTE      TMR3RLH
*SFR* 00000092H   DATA     BYTE      TMR3RLL
      01001D84H   CODE     ---       TMR_init_timer0
      01001D61H   CODE     ---       TMR_init_timer3
      0100168FH   CODE     ---       UART0_ISR
      01001E60H   CODE     ---       UART_0_enter_DefaultMode_from_RESET
      01001D4FH   CODE     ---       UART_get_tx_buffer_free_bytes
      01001D3CH   CODE     ---       UART_init
      01001DF4H   CODE     ---       UART_init_buffers
      00000073H   IDATA    ---       UART_rx_buffer
      00000069H   DATA     ---       UART_rx_buffer_head
      0000006BH   DATA     ---       UART_rx_buffer_tail
      00000083H   IDATA    ---       UART_tx_buffer
      0000006AH   DATA     ---       UART_tx_buffer_head
      0000006CH   DATA     ---       UART_tx_buffer_tail
      00000022H.5 BIT      BIT       UART_tx_busy
      00000057H   DATA     WORD      user_timer
*SFR* 000000FFH   DATA     BYTE      VDM0CN
      010016E5H   CODE     ---       WDT_0_enter_DefaultMode_from_RESET
*SFR* 00000097H   DATA     BYTE      WDTCN
*SFR* 000000E1H   DATA     BYTE      XBR0
*SFR* 000000E2H   DATA     BYTE      XBR1
*SFR* 000000E3H   DATA     BYTE      XBR2
      00000033H   DATA     ---       zc_commutate_time
      0000003FH   DATA     BYTE      zc_count
      00000040H   DATA     ---       zc_time
      02000056H   XDATA    BYTE      zc_total_count
      02000049H   XDATA    DWORD     zc_total_per_mech_rotation



SYMBOL TABLE OF MODULE:  EFM8BB1_BLDC_PORT.OMF.CRBUILD (ASSERT)

LX51 LINKER/LOCATER V4.66.30.0                                                        01/24/2020  09:48:17  PAGE 18


      VALUE       REP       CLASS    TYPE      SYMBOL NAME
      ====================================================
      ---         MODULE    ---      ---       ASSERT

      ---         MODULE    ---      ---       PCA_0
      000000A2H   SFRSYM    DATA     BYTE      SPI0CKR
      00000080H   SFRSYM    DATA     BYTE      P0
      000000D0H.2 SFRSYM    DATA     BIT       PSW_OV
      00000090H   SFRSYM    DATA     BYTE      P1
      00000097H   SFRSYM    DATA     BYTE      WDTCN
      000000A0H   SFRSYM    DATA     BYTE      P2
      000000BCH   SFRSYM    DATA     BYTE      ADC0CF
      000000C8H   SFRSYM    DATA     BIT       TMR2CN0_T2XCLK
      000000C0H.7 SFRSYM    DATA     BIT       SMB0CN0_MASTER
      000000F9H   SFRSYM    DATA     WORD      PCA0
      000000E6H   SFRSYM    DATA     BYTE      EIE1
      000000C0H.1 SFRSYM    DATA     BIT       SMB0CN0_ACK
      0000008FH   SFRSYM    DATA     BYTE      PSCTL
      000000E4H   SFRSYM    DATA     BYTE      IT01CF
      000000C0H.6 SFRSYM    DATA     BIT       SMB0CN0_TXMODE
      000000ADH   SFRSYM    DATA     BYTE      DERIVID
      000000A4H   SFRSYM    DATA     BYTE      P0MDOUT
      000000A5H   SFRSYM    DATA     BYTE      P1MDOUT
      000000E8H.5 SFRSYM    DATA     BIT       ADC0CN0_ADINT
      000000CBH   SFRSYM    DATA     BYTE      TMR2RLH
      000000A6H   SFRSYM    DATA     BYTE      P2MDOUT
      000000A8H   SFRSYM    DATA     BYTE      IE
      00000093H   SFRSYM    DATA     BYTE      TMR3RLH
      000000F3H   SFRSYM    DATA     BYTE      EIP1
      00000098H.2 SFRSYM    DATA     BIT       SCON0_RB8
      000000CAH   SFRSYM    DATA     BYTE      TMR2RLL
      000000FCH   SFRSYM    DATA     BYTE      PCA0CPH0
      00000092H   SFRSYM    DATA     BYTE      TMR3RLL
      000000EAH   SFRSYM    DATA     BYTE      PCA0CPH1
      00000098H.3 SFRSYM    DATA     BIT       SCON0_TB8
      000000F0H   SFRSYM    DATA     BIT       B_B0
      00000082H   SFRSYM    DATA     WORD      DP
      000000ECH   SFRSYM    DATA     BYTE      PCA0CPH2
      000000F0H.1 SFRSYM    DATA     BIT       B_B1
      000000C3H   SFRSYM    DATA     WORD      ADC0GT
      000000F0H.2 SFRSYM    DATA     BIT       B_B2
      000000FBH   SFRSYM    DATA     BYTE      PCA0CPL0
      000000F0H.3 SFRSYM    DATA     BIT       B_B3
      000000D9H   SFRSYM    DATA     BYTE      PCA0MD
      000000DAH   SFRSYM    DATA     BYTE      PCA0CPM0
      000000E9H   SFRSYM    DATA     BYTE      PCA0CPL1
      000000F0H.4 SFRSYM    DATA     BIT       B_B4
      000000DBH   SFRSYM    DATA     BYTE      PCA0CPM1
      000000EBH   SFRSYM    DATA     BYTE      PCA0CPL2
      000000F0H.5 SFRSYM    DATA     BIT       B_B5
      000000DCH   SFRSYM    DATA     BYTE      PCA0CPM2
      000000B8H   SFRSYM    DATA     BYTE      IP
      000000B9H   SFRSYM    DATA     BYTE      ADC0TK
      000000F0H.6 SFRSYM    DATA     BIT       B_B6
      000000C5H   SFRSYM    DATA     WORD      ADC0LT
      00000098H.5 SFRSYM    DATA     BIT       SCON0_MCE
      000000F0H.7 SFRSYM    DATA     BIT       B_B7
      000000E1H   SFRSYM    DATA     BYTE      XBR0
      000000C1H   SFRSYM    DATA     BYTE      SMB0CF
      000000E2H   SFRSYM    DATA     BYTE      XBR1
      000000C0H.5 SFRSYM    DATA     BIT       SMB0CN0_STA
      000000E3H   SFRSYM    DATA     BYTE      XBR2
LX51 LINKER/LOCATER V4.66.30.0                                                        01/24/2020  09:48:17  PAGE 19


      000000BBH   SFRSYM    DATA     BYTE      ADC0MX
      000000E0H   SFRSYM    DATA     BIT       ACC_ACC0
      000000D1H   SFRSYM    DATA     BYTE      REF0CN
      0000008EH   SFRSYM    DATA     BYTE      CKCON0
      000000E0H.1 SFRSYM    DATA     BIT       ACC_ACC1
      000000C9H   SFRSYM    DATA     BYTE      REG0CN
      000000DDH   SFRSYM    DATA     BYTE      CRC0IN
      000000C8H.2 SFRSYM    DATA     BIT       TMR2CN0_TR2
      000000E0H.2 SFRSYM    DATA     BIT       ACC_ACC2
      000000E0H.3 SFRSYM    DATA     BIT       ACC_ACC3
      00000081H   SFRSYM    DATA     BYTE      SP
      0000009DH   SFRSYM    DATA     BYTE      CMP0MD
      000000E0H.4 SFRSYM    DATA     BIT       ACC_ACC4
      000000B1H   SFRSYM    DATA     BYTE      LFO0CN
      000000ABH   SFRSYM    DATA     BYTE      CMP1MD
      000000D8H   SFRSYM    DATA     BIT       PCA0CN0_CCF0
      000000E0H.5 SFRSYM    DATA     BIT       ACC_ACC5
      000000D8H.1 SFRSYM    DATA     BIT       PCA0CN0_CCF1
      000000E0H.6 SFRSYM    DATA     BIT       ACC_ACC6
      000000CCH   SFRSYM    DATA     WORD      TMR2
      000000D8H.2 SFRSYM    DATA     BIT       PCA0CN0_CCF2
      000000E0H.7 SFRSYM    DATA     BIT       ACC_ACC7
      00000094H   SFRSYM    DATA     WORD      TMR3
      000000C0H.3 SFRSYM    DATA     BIT       SMB0CN0_ACKRQ
      000000FFH   SFRSYM    DATA     BYTE      VDM0CN
      000000F1H   SFRSYM    DATA     BYTE      P0MDIN
      00000098H.4 SFRSYM    DATA     BIT       SCON0_REN
      000000ACH   SFRSYM    DATA     BYTE      SMB0TC
      000000F2H   SFRSYM    DATA     BYTE      P1MDIN
      000000C0H.4 SFRSYM    DATA     BIT       SMB0CN0_STO
      000000FEH   SFRSYM    DATA     BYTE      P0MASK
      000000EEH   SFRSYM    DATA     BYTE      P1MASK
      000000D0H.3 SFRSYM    DATA     BIT       PSW_RS0
      000000D8H.7 SFRSYM    DATA     BIT       PCA0CN0_CF
      0000009EH   SFRSYM    DATA     BYTE      PCA0CENT
      000000F8H.4 SFRSYM    DATA     BIT       SPI0CN0_RXOVRN
      000000D0H.4 SFRSYM    DATA     BIT       PSW_RS1
      000000E8H.7 SFRSYM    DATA     BIT       ADC0CN0_ADEN
      00000089H   SFRSYM    DATA     BYTE      TMOD
      00000088H   SFRSYM    DATA     BYTE      TCON
      000000CFH   SFRSYM    DATA     BYTE      CRC0FLIP
      000000D0H   SFRSYM    DATA     BIT       PSW_PARITY
      000000A8H.4 SFRSYM    DATA     BIT       IE_ES0
      0000009FH   SFRSYM    DATA     BYTE      CMP0MX
      000000A8H.1 SFRSYM    DATA     BIT       IE_ET0
      000000AAH   SFRSYM    DATA     BYTE      CMP1MX
      000000A8H.3 SFRSYM    DATA     BIT       IE_ET1
      000000D4H   SFRSYM    DATA     BYTE      P0SKIP
      000000A8H.5 SFRSYM    DATA     BIT       IE_ET2
      000000D5H   SFRSYM    DATA     BYTE      P1SKIP
      000000E8H   SFRSYM    DATA     BYTE      ADC0CN0
      000000A8H   SFRSYM    DATA     BIT       IE_EX0
      000000B2H   SFRSYM    DATA     BYTE      ADC0CN1
      000000D8H.6 SFRSYM    DATA     BIT       PCA0CN0_CR
      000000A8H.2 SFRSYM    DATA     BIT       IE_EX1
      00000098H.7 SFRSYM    DATA     BIT       SCON0_SMODE
      000000B5H   SFRSYM    DATA     BYTE      DEVICEID
      000000A9H   SFRSYM    DATA     BYTE      CLKSEL
      000000F8H   SFRSYM    DATA     BIT       SPI0CN0_SPIEN
      000000F0H   SFRSYM    DATA     BYTE      B
      000000BEH   SFRSYM    DATA     BYTE      ADC0H
      000000D2H   SFRSYM    DATA     BYTE      CRC0AUTO
LX51 LINKER/LOCATER V4.66.30.0                                                        01/24/2020  09:48:17  PAGE 20


      000000E8H.6 SFRSYM    DATA     BIT       ADC0CN0_ADBMEN
      000000CAH   SFRSYM    DATA     WORD      TMR2RL
      000000BDH   SFRSYM    DATA     BYTE      ADC0L
      00000092H   SFRSYM    DATA     WORD      TMR3RL
      000000D8H   SFRSYM    DATA     BYTE      PCA0CN0
      000000E0H   SFRSYM    DATA     BYTE      ACC
      000000FBH   SFRSYM    DATA     WORD      PCA0CP0
      000000E9H   SFRSYM    DATA     WORD      PCA0CP1
      000000EBH   SFRSYM    DATA     WORD      PCA0CP2
      000000CEH   SFRSYM    DATA     BYTE      CRC0CN0
      0000008CH   SFRSYM    DATA     BYTE      TH0
      000000B8H.4 SFRSYM    DATA     BIT       IP_PS0
      0000008DH   SFRSYM    DATA     BYTE      TH1
      000000FAH   SFRSYM    DATA     BYTE      PCA0H
      000000B8H.1 SFRSYM    DATA     BIT       IP_PT0
      000000B8H.3 SFRSYM    DATA     BIT       IP_PT1
      000000C0H.2 SFRSYM    DATA     BIT       SMB0CN0_ARBLOST
      000000B8H.5 SFRSYM    DATA     BIT       IP_PT2
      0000008AH   SFRSYM    DATA     BYTE      TL0
      000000F8H.1 SFRSYM    DATA     BIT       SPI0CN0_TXBMT
      000000D0H.5 SFRSYM    DATA     BIT       PSW_F0
      000000A8H.6 SFRSYM    DATA     BIT       IE_ESPI0
      0000008BH   SFRSYM    DATA     BYTE      TL1
      000000F9H   SFRSYM    DATA     BYTE      PCA0L
      000000C0H   SFRSYM    DATA     BIT       SMB0CN0_SI
      000000D0H.1 SFRSYM    DATA     BIT       PSW_F1
      00000080H   SFRSYM    DATA     BIT       P0_B0
      000000B8H   SFRSYM    DATA     BIT       IP_PX0
      00000090H   SFRSYM    DATA     BIT       P1_B0
      00000080H.1 SFRSYM    DATA     BIT       P0_B1
      000000B8H.2 SFRSYM    DATA     BIT       IP_PX1
      0000009BH   SFRSYM    DATA     BYTE      CMP0CN0
      00000088H.1 SFRSYM    DATA     BIT       TCON_IE0
      000000A0H   SFRSYM    DATA     BIT       P2_B0
      00000090H.1 SFRSYM    DATA     BIT       P1_B1
      00000080H.2 SFRSYM    DATA     BIT       P0_B2
      000000BFH   SFRSYM    DATA     BYTE      CMP1CN0
      00000088H.3 SFRSYM    DATA     BIT       TCON_IE1
      000000A0H.1 SFRSYM    DATA     BIT       P2_B1
      00000090H.2 SFRSYM    DATA     BIT       P1_B2
      00000080H.3 SFRSYM    DATA     BIT       P0_B3
      000000C0H   SFRSYM    DATA     BYTE      SMB0CN0
      00000090H.3 SFRSYM    DATA     BIT       P1_B3
      00000080H.4 SFRSYM    DATA     BIT       P0_B4
      00000090H.4 SFRSYM    DATA     BIT       P1_B4
      00000080H.5 SFRSYM    DATA     BIT       P0_B5
      00000090H.5 SFRSYM    DATA     BIT       P1_B5
      00000080H.6 SFRSYM    DATA     BIT       P0_B6
      00000090H.6 SFRSYM    DATA     BIT       P1_B6
      00000080H.7 SFRSYM    DATA     BIT       P0_B7
      00000090H.7 SFRSYM    DATA     BIT       P1_B7
      00000083H   SFRSYM    DATA     BYTE      DPH
      000000C4H   SFRSYM    DATA     BYTE      ADC0GTH
      000000C8H.7 SFRSYM    DATA     BIT       TMR2CN0_TF2H
      000000C8H.3 SFRSYM    DATA     BIT       TMR2CN0_T2SPLIT
      000000D0H.6 SFRSYM    DATA     BIT       PSW_AC
      000000F8H   SFRSYM    DATA     BYTE      SPI0CN0
      000000C7H   SFRSYM    DATA     BYTE      HFO0CAL
      00000088H.5 SFRSYM    DATA     BIT       TCON_TF0
      00000098H   SFRSYM    DATA     BIT       SCON0_RI
      00000082H   SFRSYM    DATA     BYTE      DPL
      00000088H.7 SFRSYM    DATA     BIT       TCON_TF1
LX51 LINKER/LOCATER V4.66.30.0                                                        01/24/2020  09:48:17  PAGE 21


      00000099H   SFRSYM    DATA     BYTE      SBUF0
      00000087H   SFRSYM    DATA     BYTE      PCON0
      000000C3H   SFRSYM    DATA     BYTE      ADC0GTL
      000000C8H.6 SFRSYM    DATA     BIT       TMR2CN0_TF2L
      00000098H.1 SFRSYM    DATA     BIT       SCON0_TI
      000000E8H   SFRSYM    DATA     BIT       ADC0CN0_ADCM0
      000000C6H   SFRSYM    DATA     BYTE      ADC0LTH
      00000088H   SFRSYM    DATA     BIT       TCON_IT0
      000000E8H.1 SFRSYM    DATA     BIT       ADC0CN0_ADCM1
      000000EFH   SFRSYM    DATA     BYTE      RSTSRC
      000000FDH   SFRSYM    DATA     BYTE      P0MAT
      000000DEH   SFRSYM    DATA     BYTE      CRC0DAT
      00000088H.2 SFRSYM    DATA     BIT       TCON_IT1
      000000E8H.2 SFRSYM    DATA     BIT       ADC0CN0_ADCM2
      00000098H   SFRSYM    DATA     BYTE      SCON0
      000000F6H   SFRSYM    DATA     BYTE      PRTDRV
      000000EDH   SFRSYM    DATA     BYTE      P1MAT
      000000E8H.3 SFRSYM    DATA     BIT       ADC0CN0_ADWINT
      000000E8H.4 SFRSYM    DATA     BIT       ADC0CN0_ADBUSY
      000000D6H   SFRSYM    DATA     BYTE      SMB0ADM
      000000C5H   SFRSYM    DATA     BYTE      ADC0LTL
      000000F8H.5 SFRSYM    DATA     BIT       SPI0CN0_MODF
      000000B8H.6 SFRSYM    DATA     BIT       IP_PSPI0
      0000009CH   SFRSYM    DATA     BYTE      PCA0CLR
      000000C8H   SFRSYM    DATA     BYTE      TMR2CN0
      00000091H   SFRSYM    DATA     BYTE      TMR3CN0
      000000D7H   SFRSYM    DATA     BYTE      SMB0ADR
      00000088H.4 SFRSYM    DATA     BIT       TCON_TR0
      000000C8H.4 SFRSYM    DATA     BIT       TMR2CN0_TF2CEN
      00000088H.6 SFRSYM    DATA     BIT       TCON_TR1
      000000C2H   SFRSYM    DATA     BYTE      SMB0DAT
      000000CDH   SFRSYM    DATA     BYTE      TMR2H
      000000A1H   SFRSYM    DATA     BYTE      SPI0CFG
      00000095H   SFRSYM    DATA     BYTE      TMR3H
      000000D3H   SFRSYM    DATA     BYTE      CRC0CNT
      00000096H   SFRSYM    DATA     BYTE      PCA0POL
      000000CCH   SFRSYM    DATA     BYTE      TMR2L
      000000F8H.7 SFRSYM    DATA     BIT       SPI0CN0_SPIF
      00000094H   SFRSYM    DATA     BYTE      TMR3L
      000000DFH   SFRSYM    DATA     BYTE      ADC0PWR
      000000A8H.7 SFRSYM    DATA     BIT       IE_EA
      000000C8H.5 SFRSYM    DATA     BIT       TMR2CN0_TF2LEN
      000000F8H.6 SFRSYM    DATA     BIT       SPI0CN0_WCOL
      000000F8H.2 SFRSYM    DATA     BIT       SPI0CN0_NSSMD0
      000000D0H.7 SFRSYM    DATA     BIT       PSW_CY
      000000A3H   SFRSYM    DATA     BYTE      SPI0DAT
      000000F8H.3 SFRSYM    DATA     BIT       SPI0CN0_NSSMD1
      000000BDH   SFRSYM    DATA     WORD      ADC0
      000000D0H   SFRSYM    DATA     BYTE      PSW
      000000F7H   SFRSYM    DATA     BYTE      PCA0PWM
      000000B6H   SFRSYM    DATA     BYTE      REVID
      000000B7H   SFRSYM    DATA     BYTE      FLKEY
      000000B3H   SFRSYM    DATA     BYTE      ADC0AC
      00000007H   SYMBOL    DATA     BYTE      val
      00000007H   SYMBOL    DATA     BYTE      flag
      00000007H   SYMBOL    DATA     BYTE      flag
      00000006H   SYMBOL    DATA     BYTE      en
      00000007H   SYMBOL    DATA     BYTE      channel
      00000003H   SYMBOL    DATA     BYTE      channel
      00000004H   SYMBOL    DATA     WORD      value
      00000007H   SYMBOL    DATA     BYTE      lower
      00000006H   SYMBOL    DATA     WORD      value
LX51 LINKER/LOCATER V4.66.30.0                                                        01/24/2020  09:48:17  PAGE 22


      00000007H   SYMBOL    DATA     BYTE      timebase
      00000005H   SYMBOL    DATA     BYTE      idleState
      00000007H   SYMBOL    DATA     BYTE      channel
      00000005H   SYMBOL    DATA     BYTE      mode
      00000003H   SYMBOL    DATA     BYTE      pol
      00000006H   SYMBOL    DATA     BYTE      pwmValue
      00000007H   SYMBOL    DATA     BYTE      channel

      ---         MODULE    ---      ---       EFM8BB1_BLDC_PORT
      01001C31H   PUBLIC    CODE     ---       Port_Setup
      01001A1BH   PUBLIC    CODE     ---       main
      01000003H   PUBLIC    CODE     ---       SiLabs_Startup
      000000A2H   SFRSYM    DATA     BYTE      SPI0CKR
      00000080H   SFRSYM    DATA     BYTE      P0
      000000D0H.2 SFRSYM    DATA     BIT       PSW_OV
      00000090H   SFRSYM    DATA     BYTE      P1
      00000097H   SFRSYM    DATA     BYTE      WDTCN
      000000A0H   SFRSYM    DATA     BYTE      P2
      000000BCH   SFRSYM    DATA     BYTE      ADC0CF
      000000C8H   SFRSYM    DATA     BIT       TMR2CN0_T2XCLK
      000000C0H.7 SFRSYM    DATA     BIT       SMB0CN0_MASTER
      000000F9H   SFRSYM    DATA     WORD      PCA0
      000000E6H   SFRSYM    DATA     BYTE      EIE1
      000000C0H.1 SFRSYM    DATA     BIT       SMB0CN0_ACK
      0000008FH   SFRSYM    DATA     BYTE      PSCTL
      000000E4H   SFRSYM    DATA     BYTE      IT01CF
      000000C0H.6 SFRSYM    DATA     BIT       SMB0CN0_TXMODE
      000000ADH   SFRSYM    DATA     BYTE      DERIVID
      000000A4H   SFRSYM    DATA     BYTE      P0MDOUT
      000000A5H   SFRSYM    DATA     BYTE      P1MDOUT
      000000E8H.5 SFRSYM    DATA     BIT       ADC0CN0_ADINT
      000000CBH   SFRSYM    DATA     BYTE      TMR2RLH
      000000A6H   SFRSYM    DATA     BYTE      P2MDOUT
      000000A8H   SFRSYM    DATA     BYTE      IE
      00000093H   SFRSYM    DATA     BYTE      TMR3RLH
      000000F3H   SFRSYM    DATA     BYTE      EIP1
      00000098H.2 SFRSYM    DATA     BIT       SCON0_RB8
      000000CAH   SFRSYM    DATA     BYTE      TMR2RLL
      000000FCH   SFRSYM    DATA     BYTE      PCA0CPH0
      00000092H   SFRSYM    DATA     BYTE      TMR3RLL
      000000EAH   SFRSYM    DATA     BYTE      PCA0CPH1
      00000098H.3 SFRSYM    DATA     BIT       SCON0_TB8
      000000F0H   SFRSYM    DATA     BIT       B_B0
      00000082H   SFRSYM    DATA     WORD      DP
      000000ECH   SFRSYM    DATA     BYTE      PCA0CPH2
      00000080H.2 SFRSYM    DATA     BIT       BTN0
      000000F0H.1 SFRSYM    DATA     BIT       B_B1
      000000C3H   SFRSYM    DATA     WORD      ADC0GT
      00000090H.1 SFRSYM    DATA     BIT       BTN1
      000000F0H.2 SFRSYM    DATA     BIT       B_B2
      000000FBH   SFRSYM    DATA     BYTE      PCA0CPL0
      000000F0H.3 SFRSYM    DATA     BIT       B_B3
      000000D9H   SFRSYM    DATA     BYTE      PCA0MD
      000000DAH   SFRSYM    DATA     BYTE      PCA0CPM0
      000000E9H   SFRSYM    DATA     BYTE      PCA0CPL1
      000000F0H.4 SFRSYM    DATA     BIT       B_B4
      000000DBH   SFRSYM    DATA     BYTE      PCA0CPM1
      000000EBH   SFRSYM    DATA     BYTE      PCA0CPL2
      000000F0H.5 SFRSYM    DATA     BIT       B_B5
      000000DCH   SFRSYM    DATA     BYTE      PCA0CPM2
      000000B8H   SFRSYM    DATA     BYTE      IP
      000000B9H   SFRSYM    DATA     BYTE      ADC0TK
LX51 LINKER/LOCATER V4.66.30.0                                                        01/24/2020  09:48:17  PAGE 23


      000000F0H.6 SFRSYM    DATA     BIT       B_B6
      000000C5H   SFRSYM    DATA     WORD      ADC0LT
      00000098H.5 SFRSYM    DATA     BIT       SCON0_MCE
      000000F0H.7 SFRSYM    DATA     BIT       B_B7
      000000E1H   SFRSYM    DATA     BYTE      XBR0
      000000C1H   SFRSYM    DATA     BYTE      SMB0CF
      000000E2H   SFRSYM    DATA     BYTE      XBR1
      000000C0H.5 SFRSYM    DATA     BIT       SMB0CN0_STA
      000000E3H   SFRSYM    DATA     BYTE      XBR2
      000000BBH   SFRSYM    DATA     BYTE      ADC0MX
      000000E0H   SFRSYM    DATA     BIT       ACC_ACC0
      000000D1H   SFRSYM    DATA     BYTE      REF0CN
      0000008EH   SFRSYM    DATA     BYTE      CKCON0
      000000E0H.1 SFRSYM    DATA     BIT       ACC_ACC1
      000000C9H   SFRSYM    DATA     BYTE      REG0CN
      000000DDH   SFRSYM    DATA     BYTE      CRC0IN
      000000C8H.2 SFRSYM    DATA     BIT       TMR2CN0_TR2
      000000E0H.2 SFRSYM    DATA     BIT       ACC_ACC2
      000000E0H.3 SFRSYM    DATA     BIT       ACC_ACC3
      00000081H   SFRSYM    DATA     BYTE      SP
      0000009DH   SFRSYM    DATA     BYTE      CMP0MD
      000000E0H.4 SFRSYM    DATA     BIT       ACC_ACC4
      000000B1H   SFRSYM    DATA     BYTE      LFO0CN
      000000ABH   SFRSYM    DATA     BYTE      CMP1MD
      000000D8H   SFRSYM    DATA     BIT       PCA0CN0_CCF0
      000000E0H.5 SFRSYM    DATA     BIT       ACC_ACC5
      000000D8H.1 SFRSYM    DATA     BIT       PCA0CN0_CCF1
      000000E0H.6 SFRSYM    DATA     BIT       ACC_ACC6
      000000CCH   SFRSYM    DATA     WORD      TMR2
      000000D8H.2 SFRSYM    DATA     BIT       PCA0CN0_CCF2
      000000E0H.7 SFRSYM    DATA     BIT       ACC_ACC7
      00000094H   SFRSYM    DATA     WORD      TMR3
      000000C0H.3 SFRSYM    DATA     BIT       SMB0CN0_ACKRQ
      000000FFH   SFRSYM    DATA     BYTE      VDM0CN
      000000F1H   SFRSYM    DATA     BYTE      P0MDIN
      00000098H.4 SFRSYM    DATA     BIT       SCON0_REN
      000000ACH   SFRSYM    DATA     BYTE      SMB0TC
      000000F2H   SFRSYM    DATA     BYTE      P1MDIN
      000000C0H.4 SFRSYM    DATA     BIT       SMB0CN0_STO
      000000FEH   SFRSYM    DATA     BYTE      P0MASK
      000000EEH   SFRSYM    DATA     BYTE      P1MASK
      000000D0H.3 SFRSYM    DATA     BIT       PSW_RS0
      000000D8H.7 SFRSYM    DATA     BIT       PCA0CN0_CF
      0000009EH   SFRSYM    DATA     BYTE      PCA0CENT
      000000F8H.4 SFRSYM    DATA     BIT       SPI0CN0_RXOVRN
      000000D0H.4 SFRSYM    DATA     BIT       PSW_RS1
      000000E8H.7 SFRSYM    DATA     BIT       ADC0CN0_ADEN
      00000089H   SFRSYM    DATA     BYTE      TMOD
      00000088H   SFRSYM    DATA     BYTE      TCON
      000000CFH   SFRSYM    DATA     BYTE      CRC0FLIP
      000000D0H   SFRSYM    DATA     BIT       PSW_PARITY
      000000A8H.4 SFRSYM    DATA     BIT       IE_ES0
      0000009FH   SFRSYM    DATA     BYTE      CMP0MX
      000000A8H.1 SFRSYM    DATA     BIT       IE_ET0
      000000AAH   SFRSYM    DATA     BYTE      CMP1MX
      000000A8H.3 SFRSYM    DATA     BIT       IE_ET1
      000000D4H   SFRSYM    DATA     BYTE      P0SKIP
      000000A8H.5 SFRSYM    DATA     BIT       IE_ET2
      000000D5H   SFRSYM    DATA     BYTE      P1SKIP
      000000E8H   SFRSYM    DATA     BYTE      ADC0CN0
      000000A8H   SFRSYM    DATA     BIT       IE_EX0
      000000B2H   SFRSYM    DATA     BYTE      ADC0CN1
LX51 LINKER/LOCATER V4.66.30.0                                                        01/24/2020  09:48:17  PAGE 24


      000000D8H.6 SFRSYM    DATA     BIT       PCA0CN0_CR
      000000A8H.2 SFRSYM    DATA     BIT       IE_EX1
      00000098H.7 SFRSYM    DATA     BIT       SCON0_SMODE
      000000B5H   SFRSYM    DATA     BYTE      DEVICEID
      000000A9H   SFRSYM    DATA     BYTE      CLKSEL
      000000F8H   SFRSYM    DATA     BIT       SPI0CN0_SPIEN
      000000F0H   SFRSYM    DATA     BYTE      B
      000000BEH   SFRSYM    DATA     BYTE      ADC0H
      000000D2H   SFRSYM    DATA     BYTE      CRC0AUTO
      000000E8H.6 SFRSYM    DATA     BIT       ADC0CN0_ADBMEN
      000000CAH   SFRSYM    DATA     WORD      TMR2RL
      000000BDH   SFRSYM    DATA     BYTE      ADC0L
      00000092H   SFRSYM    DATA     WORD      TMR3RL
      000000D8H   SFRSYM    DATA     BYTE      PCA0CN0
      000000E0H   SFRSYM    DATA     BYTE      ACC
      000000FBH   SFRSYM    DATA     WORD      PCA0CP0
      000000E9H   SFRSYM    DATA     WORD      PCA0CP1
      000000EBH   SFRSYM    DATA     WORD      PCA0CP2
      000000CEH   SFRSYM    DATA     BYTE      CRC0CN0
      00000090H.4 SFRSYM    DATA     BIT       BSP_LED0
      0000008CH   SFRSYM    DATA     BYTE      TH0
      000000B8H.4 SFRSYM    DATA     BIT       IP_PS0
      0000008DH   SFRSYM    DATA     BYTE      TH1
      000000FAH   SFRSYM    DATA     BYTE      PCA0H
      000000B8H.1 SFRSYM    DATA     BIT       IP_PT0
      000000B8H.3 SFRSYM    DATA     BIT       IP_PT1
      000000C0H.2 SFRSYM    DATA     BIT       SMB0CN0_ARBLOST
      000000B8H.5 SFRSYM    DATA     BIT       IP_PT2
      0000008AH   SFRSYM    DATA     BYTE      TL0
      000000F8H.1 SFRSYM    DATA     BIT       SPI0CN0_TXBMT
      000000D0H.5 SFRSYM    DATA     BIT       PSW_F0
      000000A8H.6 SFRSYM    DATA     BIT       IE_ESPI0
      0000008BH   SFRSYM    DATA     BYTE      TL1
      000000F9H   SFRSYM    DATA     BYTE      PCA0L
      000000C0H   SFRSYM    DATA     BIT       SMB0CN0_SI
      000000D0H.1 SFRSYM    DATA     BIT       PSW_F1
      00000080H   SFRSYM    DATA     BIT       P0_B0
      000000B8H   SFRSYM    DATA     BIT       IP_PX0
      00000090H   SFRSYM    DATA     BIT       P1_B0
      00000080H.1 SFRSYM    DATA     BIT       P0_B1
      000000B8H.2 SFRSYM    DATA     BIT       IP_PX1
      0000009BH   SFRSYM    DATA     BYTE      CMP0CN0
      00000088H.1 SFRSYM    DATA     BIT       TCON_IE0
      000000A0H   SFRSYM    DATA     BIT       P2_B0
      00000090H.1 SFRSYM    DATA     BIT       P1_B1
      00000080H.2 SFRSYM    DATA     BIT       P0_B2
      000000BFH   SFRSYM    DATA     BYTE      CMP1CN0
      00000088H.3 SFRSYM    DATA     BIT       TCON_IE1
      000000A0H.1 SFRSYM    DATA     BIT       P2_B1
      00000090H.2 SFRSYM    DATA     BIT       P1_B2
      00000080H.3 SFRSYM    DATA     BIT       P0_B3
      000000C0H   SFRSYM    DATA     BYTE      SMB0CN0
      00000090H.3 SFRSYM    DATA     BIT       P1_B3
      00000080H.4 SFRSYM    DATA     BIT       P0_B4
      00000090H.4 SFRSYM    DATA     BIT       P1_B4
      00000080H.5 SFRSYM    DATA     BIT       P0_B5
      00000090H.5 SFRSYM    DATA     BIT       P1_B5
      00000080H.6 SFRSYM    DATA     BIT       P0_B6
      00000090H.6 SFRSYM    DATA     BIT       P1_B6
      00000080H.7 SFRSYM    DATA     BIT       P0_B7
      00000090H.7 SFRSYM    DATA     BIT       P1_B7
      00000080H.2 SFRSYM    DATA     BIT       BSP_BTN0
LX51 LINKER/LOCATER V4.66.30.0                                                        01/24/2020  09:48:17  PAGE 25


      00000083H   SFRSYM    DATA     BYTE      DPH
      000000C4H   SFRSYM    DATA     BYTE      ADC0GTH
      000000C8H.7 SFRSYM    DATA     BIT       TMR2CN0_TF2H
      000000C8H.3 SFRSYM    DATA     BIT       TMR2CN0_T2SPLIT
      000000D0H.6 SFRSYM    DATA     BIT       PSW_AC
      000000F8H   SFRSYM    DATA     BYTE      SPI0CN0
      000000C7H   SFRSYM    DATA     BYTE      HFO0CAL
      00000088H.5 SFRSYM    DATA     BIT       TCON_TF0
      00000098H   SFRSYM    DATA     BIT       SCON0_RI
      00000082H   SFRSYM    DATA     BYTE      DPL
      00000088H.7 SFRSYM    DATA     BIT       TCON_TF1
      00000099H   SFRSYM    DATA     BYTE      SBUF0
      00000087H   SFRSYM    DATA     BYTE      PCON0
      000000C3H   SFRSYM    DATA     BYTE      ADC0GTL
      000000C8H.6 SFRSYM    DATA     BIT       TMR2CN0_TF2L
      00000098H.1 SFRSYM    DATA     BIT       SCON0_TI
      000000E8H   SFRSYM    DATA     BIT       ADC0CN0_ADCM0
      000000C6H   SFRSYM    DATA     BYTE      ADC0LTH
      00000088H   SFRSYM    DATA     BIT       TCON_IT0
      000000E8H.1 SFRSYM    DATA     BIT       ADC0CN0_ADCM1
      000000EFH   SFRSYM    DATA     BYTE      RSTSRC
      000000FDH   SFRSYM    DATA     BYTE      P0MAT
      000000DEH   SFRSYM    DATA     BYTE      CRC0DAT
      00000088H.2 SFRSYM    DATA     BIT       TCON_IT1
      000000E8H.2 SFRSYM    DATA     BIT       ADC0CN0_ADCM2
      00000098H   SFRSYM    DATA     BYTE      SCON0
      000000F6H   SFRSYM    DATA     BYTE      PRTDRV
      000000EDH   SFRSYM    DATA     BYTE      P1MAT
      000000E8H.3 SFRSYM    DATA     BIT       ADC0CN0_ADWINT
      000000E8H.4 SFRSYM    DATA     BIT       ADC0CN0_ADBUSY
      000000D6H   SFRSYM    DATA     BYTE      SMB0ADM
      000000C5H   SFRSYM    DATA     BYTE      ADC0LTL
      000000F8H.5 SFRSYM    DATA     BIT       SPI0CN0_MODF
      000000B8H.6 SFRSYM    DATA     BIT       IP_PSPI0
      0000009CH   SFRSYM    DATA     BYTE      PCA0CLR
      000000C8H   SFRSYM    DATA     BYTE      TMR2CN0
      00000091H   SFRSYM    DATA     BYTE      TMR3CN0
      000000D7H   SFRSYM    DATA     BYTE      SMB0ADR
      00000088H.4 SFRSYM    DATA     BIT       TCON_TR0
      000000C8H.4 SFRSYM    DATA     BIT       TMR2CN0_TF2CEN
      00000088H.6 SFRSYM    DATA     BIT       TCON_TR1
      000000C2H   SFRSYM    DATA     BYTE      SMB0DAT
      000000CDH   SFRSYM    DATA     BYTE      TMR2H
      000000A1H   SFRSYM    DATA     BYTE      SPI0CFG
      00000095H   SFRSYM    DATA     BYTE      TMR3H
      000000D3H   SFRSYM    DATA     BYTE      CRC0CNT
      00000096H   SFRSYM    DATA     BYTE      PCA0POL
      000000CCH   SFRSYM    DATA     BYTE      TMR2L
      000000F8H.7 SFRSYM    DATA     BIT       SPI0CN0_SPIF
      00000094H   SFRSYM    DATA     BYTE      TMR3L
      000000DFH   SFRSYM    DATA     BYTE      ADC0PWR
      000000A8H.7 SFRSYM    DATA     BIT       IE_EA
      000000C8H.5 SFRSYM    DATA     BIT       TMR2CN0_TF2LEN
      000000F8H.6 SFRSYM    DATA     BIT       SPI0CN0_WCOL
      000000F8H.2 SFRSYM    DATA     BIT       SPI0CN0_NSSMD0
      000000D0H.7 SFRSYM    DATA     BIT       PSW_CY
      000000A3H   SFRSYM    DATA     BYTE      SPI0DAT
      000000F8H.3 SFRSYM    DATA     BIT       SPI0CN0_NSSMD1
      000000BDH   SFRSYM    DATA     WORD      ADC0
      000000D0H   SFRSYM    DATA     BYTE      PSW
      000000F7H   SFRSYM    DATA     BYTE      PCA0PWM
      000000B6H   SFRSYM    DATA     BYTE      REVID
LX51 LINKER/LOCATER V4.66.30.0                                                        01/24/2020  09:48:17  PAGE 26


      000000B7H   SFRSYM    DATA     BYTE      FLKEY
      000000B3H   SFRSYM    DATA     BYTE      ADC0AC
      01001E6CH   SYMBOL    CODE     ---       _APP_tune_callback
      0100005EH   SYMBOL    CODE     ---       APP_reset

      01000003H   BLOCK     CODE     ---       LVL=0
      01000003H   LINE      CODE     ---       #29
      01000003H   LINE      CODE     ---       #30
      01000003H   LINE      CODE     ---       #31
      01000006H   LINE      CODE     ---       #32
      01000009H   LINE      CODE     ---       #33
      ---         BLOCKEND  ---      ---       LVL=0

      01001A1BH   BLOCK     CODE     ---       LVL=0
      01001A1BH   LINE      CODE     ---       #39
      01001A1BH   LINE      CODE     ---       #40
      01001A1BH   LINE      CODE     ---       #41
      01001A1EH   LINE      CODE     ---       #43
      01001A21H   LINE      CODE     ---       #44
      01001A24H   LINE      CODE     ---       #45
      01001A27H   LINE      CODE     ---       #46
      01001A30H   LINE      CODE     ---       #47
      01001A39H   LINE      CODE     ---       #48
      01001A3CH   LINE      CODE     ---       #49
      01001A3FH   LINE      CODE     ---       #50
      01001A42H   LINE      CODE     ---       #53
      01001A42H   LINE      CODE     ---       #54
      01001A42H   LINE      CODE     ---       #55
      01001A45H   LINE      CODE     ---       #56
      01001A48H   LINE      CODE     ---       #57
      01001A4BH   LINE      CODE     ---       #58
      01001A4EH   LINE      CODE     ---       #59
      ---         BLOCKEND  ---      ---       LVL=0

      01001C31H   BLOCK     CODE     ---       LVL=0
      01001C31H   LINE      CODE     ---       #81
      01001C31H   LINE      CODE     ---       #82
      01001C31H   LINE      CODE     ---       #83
      01001C34H   LINE      CODE     ---       #84
      01001C37H   LINE      CODE     ---       #85
      01001C3AH   LINE      CODE     ---       #92
      01001C3DH   LINE      CODE     ---       #93
      01001C40H   LINE      CODE     ---       #96
      01001C43H   LINE      CODE     ---       #99
      01001C46H   LINE      CODE     ---       #103
      01001C49H   LINE      CODE     ---       #104
      01001C4CH   LINE      CODE     ---       #109
      01001C4FH   LINE      CODE     ---       #110
      01001C52H   LINE      CODE     ---       #111
      01001C55H   LINE      CODE     ---       #113
      ---         BLOCKEND  ---      ---       LVL=0

      01001E6CH   BLOCK     CODE     ---       LVL=0
      00000006H   SYMBOL    DATA     WORD      pwm
      00000004H   SYMBOL    DATA     WORD      disp
      01001E6CH   LINE      CODE     ---       #240
      01001E6CH   LINE      CODE     ---       #241
      01001E6CH   LINE      CODE     ---       #243
      01001E6CH   LINE      CODE     ---       #244
      01001E6EH   LINE      CODE     ---       #245
      ---         BLOCKEND  ---      ---       LVL=0

LX51 LINKER/LOCATER V4.66.30.0                                                        01/24/2020  09:48:17  PAGE 27


      0100005EH   BLOCK     CODE     ---       LVL=0
      0100005EH   LINE      CODE     ---       #257
      0100005EH   LINE      CODE     ---       #258
      0100005EH   LINE      CODE     ---       #259
      01000061H   LINE      CODE     ---       #260
      01000062H   LINE      CODE     ---       #261
      ---         BLOCKEND  ---      ---       LVL=0

      ---         MODULE    ---      ---       INITDEVICE
      01001E34H   PUBLIC    CODE     ---       CMP_0_enter_DefaultMode_from_RESET
      01001DDAH   PUBLIC    CODE     ---       TIMER16_3_enter_DefaultMode_from_RESET
      01001E48H   PUBLIC    CODE     ---       INTERRUPT_0_enter_DefaultMode_from_RESET
      01001E60H   PUBLIC    CODE     ---       UART_0_enter_DefaultMode_from_RESET
      01001E2AH   PUBLIC    CODE     ---       TIMER_SETUP_0_enter_DefaultMode_from_RESET
      01001D29H   PUBLIC    CODE     ---       TIMER16_2_enter_DefaultMode_from_RESET
      01001D16H   PUBLIC    CODE     ---       TIMER01_0_enter_DefaultMode_from_RESET
      01001E20H   PUBLIC    CODE     ---       ADC_0_enter_DefaultMode_from_RESET
      01001E16H   PUBLIC    CODE     ---       PCACH_0_enter_DefaultMode_from_RESET
      01001DA4H   PUBLIC    CODE     ---       PCA_0_enter_DefaultMode_from_RESET
      01001E5CH   PUBLIC    CODE     ---       CLOCK_0_enter_DefaultMode_from_RESET
      01001E0CH   PUBLIC    CODE     ---       PBCFG_0_enter_DefaultMode_from_RESET
      01001DCDH   PUBLIC    CODE     ---       PORTS_1_enter_DefaultMode_from_RESET
      01001DC0H   PUBLIC    CODE     ---       PORTS_0_enter_DefaultMode_from_RESET
      010016E5H   PUBLIC    CODE     ---       WDT_0_enter_DefaultMode_from_RESET
      01001B17H   PUBLIC    CODE     ---       enter_DefaultMode_from_RESET
      000000A2H   SFRSYM    DATA     BYTE      SPI0CKR
      00000080H   SFRSYM    DATA     BYTE      P0
      000000D0H.2 SFRSYM    DATA     BIT       PSW_OV
      00000090H   SFRSYM    DATA     BYTE      P1
      00000097H   SFRSYM    DATA     BYTE      WDTCN
      000000A0H   SFRSYM    DATA     BYTE      P2
      000000BCH   SFRSYM    DATA     BYTE      ADC0CF
      000000C8H   SFRSYM    DATA     BIT       TMR2CN0_T2XCLK
      000000C0H.7 SFRSYM    DATA     BIT       SMB0CN0_MASTER
      000000F9H   SFRSYM    DATA     WORD      PCA0
      000000E6H   SFRSYM    DATA     BYTE      EIE1
      000000C0H.1 SFRSYM    DATA     BIT       SMB0CN0_ACK
      0000008FH   SFRSYM    DATA     BYTE      PSCTL
      000000E4H   SFRSYM    DATA     BYTE      IT01CF
      000000C0H.6 SFRSYM    DATA     BIT       SMB0CN0_TXMODE
      000000ADH   SFRSYM    DATA     BYTE      DERIVID
      000000A4H   SFRSYM    DATA     BYTE      P0MDOUT
      000000A5H   SFRSYM    DATA     BYTE      P1MDOUT
      000000E8H.5 SFRSYM    DATA     BIT       ADC0CN0_ADINT
      000000CBH   SFRSYM    DATA     BYTE      TMR2RLH
      000000A6H   SFRSYM    DATA     BYTE      P2MDOUT
      000000A8H   SFRSYM    DATA     BYTE      IE
      00000093H   SFRSYM    DATA     BYTE      TMR3RLH
      000000F3H   SFRSYM    DATA     BYTE      EIP1
      00000098H.2 SFRSYM    DATA     BIT       SCON0_RB8
      000000CAH   SFRSYM    DATA     BYTE      TMR2RLL
      000000FCH   SFRSYM    DATA     BYTE      PCA0CPH0
      00000092H   SFRSYM    DATA     BYTE      TMR3RLL
      000000EAH   SFRSYM    DATA     BYTE      PCA0CPH1
      00000098H.3 SFRSYM    DATA     BIT       SCON0_TB8
      000000F0H   SFRSYM    DATA     BIT       B_B0
      00000082H   SFRSYM    DATA     WORD      DP
      000000ECH   SFRSYM    DATA     BYTE      PCA0CPH2
      000000F0H.1 SFRSYM    DATA     BIT       B_B1
      000000C3H   SFRSYM    DATA     WORD      ADC0GT
      000000F0H.2 SFRSYM    DATA     BIT       B_B2
      000000FBH   SFRSYM    DATA     BYTE      PCA0CPL0
LX51 LINKER/LOCATER V4.66.30.0                                                        01/24/2020  09:48:17  PAGE 28


      000000F0H.3 SFRSYM    DATA     BIT       B_B3
      000000D9H   SFRSYM    DATA     BYTE      PCA0MD
      000000DAH   SFRSYM    DATA     BYTE      PCA0CPM0
      000000E9H   SFRSYM    DATA     BYTE      PCA0CPL1
      000000F0H.4 SFRSYM    DATA     BIT       B_B4
      000000DBH   SFRSYM    DATA     BYTE      PCA0CPM1
      000000EBH   SFRSYM    DATA     BYTE      PCA0CPL2
      000000F0H.5 SFRSYM    DATA     BIT       B_B5
      000000DCH   SFRSYM    DATA     BYTE      PCA0CPM2
      000000B8H   SFRSYM    DATA     BYTE      IP
      000000B9H   SFRSYM    DATA     BYTE      ADC0TK
      000000F0H.6 SFRSYM    DATA     BIT       B_B6
      000000C5H   SFRSYM    DATA     WORD      ADC0LT
      00000098H.5 SFRSYM    DATA     BIT       SCON0_MCE
      000000F0H.7 SFRSYM    DATA     BIT       B_B7
      000000E1H   SFRSYM    DATA     BYTE      XBR0
      000000C1H   SFRSYM    DATA     BYTE      SMB0CF
      000000E2H   SFRSYM    DATA     BYTE      XBR1
      000000C0H.5 SFRSYM    DATA     BIT       SMB0CN0_STA
      000000E3H   SFRSYM    DATA     BYTE      XBR2
      000000BBH   SFRSYM    DATA     BYTE      ADC0MX
      000000E0H   SFRSYM    DATA     BIT       ACC_ACC0
      000000D1H   SFRSYM    DATA     BYTE      REF0CN
      0000008EH   SFRSYM    DATA     BYTE      CKCON0
      000000E0H.1 SFRSYM    DATA     BIT       ACC_ACC1
      000000C9H   SFRSYM    DATA     BYTE      REG0CN
      000000DDH   SFRSYM    DATA     BYTE      CRC0IN
      000000C8H.2 SFRSYM    DATA     BIT       TMR2CN0_TR2
      000000E0H.2 SFRSYM    DATA     BIT       ACC_ACC2
      000000E0H.3 SFRSYM    DATA     BIT       ACC_ACC3
      00000081H   SFRSYM    DATA     BYTE      SP
      0000009DH   SFRSYM    DATA     BYTE      CMP0MD
      000000E0H.4 SFRSYM    DATA     BIT       ACC_ACC4
      000000B1H   SFRSYM    DATA     BYTE      LFO0CN
      000000ABH   SFRSYM    DATA     BYTE      CMP1MD
      000000D8H   SFRSYM    DATA     BIT       PCA0CN0_CCF0
      000000E0H.5 SFRSYM    DATA     BIT       ACC_ACC5
      000000D8H.1 SFRSYM    DATA     BIT       PCA0CN0_CCF1
      000000E0H.6 SFRSYM    DATA     BIT       ACC_ACC6
      000000CCH   SFRSYM    DATA     WORD      TMR2
      000000D8H.2 SFRSYM    DATA     BIT       PCA0CN0_CCF2
      000000E0H.7 SFRSYM    DATA     BIT       ACC_ACC7
      00000094H   SFRSYM    DATA     WORD      TMR3
      000000C0H.3 SFRSYM    DATA     BIT       SMB0CN0_ACKRQ
      000000FFH   SFRSYM    DATA     BYTE      VDM0CN
      000000F1H   SFRSYM    DATA     BYTE      P0MDIN
      00000098H.4 SFRSYM    DATA     BIT       SCON0_REN
      000000ACH   SFRSYM    DATA     BYTE      SMB0TC
      000000F2H   SFRSYM    DATA     BYTE      P1MDIN
      000000C0H.4 SFRSYM    DATA     BIT       SMB0CN0_STO
      000000FEH   SFRSYM    DATA     BYTE      P0MASK
      000000EEH   SFRSYM    DATA     BYTE      P1MASK
      000000D0H.3 SFRSYM    DATA     BIT       PSW_RS0
      000000D8H.7 SFRSYM    DATA     BIT       PCA0CN0_CF
      0000009EH   SFRSYM    DATA     BYTE      PCA0CENT
      000000F8H.4 SFRSYM    DATA     BIT       SPI0CN0_RXOVRN
      000000D0H.4 SFRSYM    DATA     BIT       PSW_RS1
      000000E8H.7 SFRSYM    DATA     BIT       ADC0CN0_ADEN
      00000089H   SFRSYM    DATA     BYTE      TMOD
      00000088H   SFRSYM    DATA     BYTE      TCON
      000000CFH   SFRSYM    DATA     BYTE      CRC0FLIP
      000000D0H   SFRSYM    DATA     BIT       PSW_PARITY
LX51 LINKER/LOCATER V4.66.30.0                                                        01/24/2020  09:48:17  PAGE 29


      000000A8H.4 SFRSYM    DATA     BIT       IE_ES0
      0000009FH   SFRSYM    DATA     BYTE      CMP0MX
      000000A8H.1 SFRSYM    DATA     BIT       IE_ET0
      000000AAH   SFRSYM    DATA     BYTE      CMP1MX
      000000A8H.3 SFRSYM    DATA     BIT       IE_ET1
      000000D4H   SFRSYM    DATA     BYTE      P0SKIP
      000000A8H.5 SFRSYM    DATA     BIT       IE_ET2
      000000D5H   SFRSYM    DATA     BYTE      P1SKIP
      000000E8H   SFRSYM    DATA     BYTE      ADC0CN0
      000000A8H   SFRSYM    DATA     BIT       IE_EX0
      000000B2H   SFRSYM    DATA     BYTE      ADC0CN1
      000000D8H.6 SFRSYM    DATA     BIT       PCA0CN0_CR
      000000A8H.2 SFRSYM    DATA     BIT       IE_EX1
      00000098H.7 SFRSYM    DATA     BIT       SCON0_SMODE
      000000B5H   SFRSYM    DATA     BYTE      DEVICEID
      000000A9H   SFRSYM    DATA     BYTE      CLKSEL
      000000F8H   SFRSYM    DATA     BIT       SPI0CN0_SPIEN
      000000F0H   SFRSYM    DATA     BYTE      B
      000000BEH   SFRSYM    DATA     BYTE      ADC0H
      000000D2H   SFRSYM    DATA     BYTE      CRC0AUTO
      000000E8H.6 SFRSYM    DATA     BIT       ADC0CN0_ADBMEN
      000000CAH   SFRSYM    DATA     WORD      TMR2RL
      000000BDH   SFRSYM    DATA     BYTE      ADC0L
      00000092H   SFRSYM    DATA     WORD      TMR3RL
      000000D8H   SFRSYM    DATA     BYTE      PCA0CN0
      000000E0H   SFRSYM    DATA     BYTE      ACC
      000000FBH   SFRSYM    DATA     WORD      PCA0CP0
      000000E9H   SFRSYM    DATA     WORD      PCA0CP1
      000000EBH   SFRSYM    DATA     WORD      PCA0CP2
      000000CEH   SFRSYM    DATA     BYTE      CRC0CN0
      0000008CH   SFRSYM    DATA     BYTE      TH0
      000000B8H.4 SFRSYM    DATA     BIT       IP_PS0
      0000008DH   SFRSYM    DATA     BYTE      TH1
      000000FAH   SFRSYM    DATA     BYTE      PCA0H
      000000B8H.1 SFRSYM    DATA     BIT       IP_PT0
      000000B8H.3 SFRSYM    DATA     BIT       IP_PT1
      000000C0H.2 SFRSYM    DATA     BIT       SMB0CN0_ARBLOST
      000000B8H.5 SFRSYM    DATA     BIT       IP_PT2
      0000008AH   SFRSYM    DATA     BYTE      TL0
      000000F8H.1 SFRSYM    DATA     BIT       SPI0CN0_TXBMT
      000000D0H.5 SFRSYM    DATA     BIT       PSW_F0
      000000A8H.6 SFRSYM    DATA     BIT       IE_ESPI0
      0000008BH   SFRSYM    DATA     BYTE      TL1
      000000F9H   SFRSYM    DATA     BYTE      PCA0L
      000000C0H   SFRSYM    DATA     BIT       SMB0CN0_SI
      000000D0H.1 SFRSYM    DATA     BIT       PSW_F1
      00000080H   SFRSYM    DATA     BIT       P0_B0
      000000B8H   SFRSYM    DATA     BIT       IP_PX0
      00000090H   SFRSYM    DATA     BIT       P1_B0
      00000080H.1 SFRSYM    DATA     BIT       P0_B1
      000000B8H.2 SFRSYM    DATA     BIT       IP_PX1
      0000009BH   SFRSYM    DATA     BYTE      CMP0CN0
      00000088H.1 SFRSYM    DATA     BIT       TCON_IE0
      000000A0H   SFRSYM    DATA     BIT       P2_B0
      00000090H.1 SFRSYM    DATA     BIT       P1_B1
      00000080H.2 SFRSYM    DATA     BIT       P0_B2
      000000BFH   SFRSYM    DATA     BYTE      CMP1CN0
      00000088H.3 SFRSYM    DATA     BIT       TCON_IE1
      000000A0H.1 SFRSYM    DATA     BIT       P2_B1
      00000090H.2 SFRSYM    DATA     BIT       P1_B2
      00000080H.3 SFRSYM    DATA     BIT       P0_B3
      000000C0H   SFRSYM    DATA     BYTE      SMB0CN0
LX51 LINKER/LOCATER V4.66.30.0                                                        01/24/2020  09:48:17  PAGE 30


      00000090H.3 SFRSYM    DATA     BIT       P1_B3
      00000080H.4 SFRSYM    DATA     BIT       P0_B4
      00000090H.4 SFRSYM    DATA     BIT       P1_B4
      00000080H.5 SFRSYM    DATA     BIT       P0_B5
      00000090H.5 SFRSYM    DATA     BIT       P1_B5
      00000080H.6 SFRSYM    DATA     BIT       P0_B6
      00000090H.6 SFRSYM    DATA     BIT       P1_B6
      00000080H.7 SFRSYM    DATA     BIT       P0_B7
      00000090H.7 SFRSYM    DATA     BIT       P1_B7
      00000083H   SFRSYM    DATA     BYTE      DPH
      000000C4H   SFRSYM    DATA     BYTE      ADC0GTH
      000000C8H.7 SFRSYM    DATA     BIT       TMR2CN0_TF2H
      000000C8H.3 SFRSYM    DATA     BIT       TMR2CN0_T2SPLIT
      000000D0H.6 SFRSYM    DATA     BIT       PSW_AC
      000000F8H   SFRSYM    DATA     BYTE      SPI0CN0
      000000C7H   SFRSYM    DATA     BYTE      HFO0CAL
      00000088H.5 SFRSYM    DATA     BIT       TCON_TF0
      00000098H   SFRSYM    DATA     BIT       SCON0_RI
      00000082H   SFRSYM    DATA     BYTE      DPL
      00000088H.7 SFRSYM    DATA     BIT       TCON_TF1
      00000099H   SFRSYM    DATA     BYTE      SBUF0
      00000087H   SFRSYM    DATA     BYTE      PCON0
      000000C3H   SFRSYM    DATA     BYTE      ADC0GTL
      000000C8H.6 SFRSYM    DATA     BIT       TMR2CN0_TF2L
      00000098H.1 SFRSYM    DATA     BIT       SCON0_TI
      000000E8H   SFRSYM    DATA     BIT       ADC0CN0_ADCM0
      000000C6H   SFRSYM    DATA     BYTE      ADC0LTH
      00000088H   SFRSYM    DATA     BIT       TCON_IT0
      000000E8H.1 SFRSYM    DATA     BIT       ADC0CN0_ADCM1
      000000EFH   SFRSYM    DATA     BYTE      RSTSRC
      000000FDH   SFRSYM    DATA     BYTE      P0MAT
      000000DEH   SFRSYM    DATA     BYTE      CRC0DAT
      00000088H.2 SFRSYM    DATA     BIT       TCON_IT1
      000000E8H.2 SFRSYM    DATA     BIT       ADC0CN0_ADCM2
      00000098H   SFRSYM    DATA     BYTE      SCON0
      000000F6H   SFRSYM    DATA     BYTE      PRTDRV
      000000EDH   SFRSYM    DATA     BYTE      P1MAT
      000000E8H.3 SFRSYM    DATA     BIT       ADC0CN0_ADWINT
      000000E8H.4 SFRSYM    DATA     BIT       ADC0CN0_ADBUSY
      000000D6H   SFRSYM    DATA     BYTE      SMB0ADM
      000000C5H   SFRSYM    DATA     BYTE      ADC0LTL
      000000F8H.5 SFRSYM    DATA     BIT       SPI0CN0_MODF
      000000B8H.6 SFRSYM    DATA     BIT       IP_PSPI0
      0000009CH   SFRSYM    DATA     BYTE      PCA0CLR
      000000C8H   SFRSYM    DATA     BYTE      TMR2CN0
      00000091H   SFRSYM    DATA     BYTE      TMR3CN0
      000000D7H   SFRSYM    DATA     BYTE      SMB0ADR
      00000088H.4 SFRSYM    DATA     BIT       TCON_TR0
      000000C8H.4 SFRSYM    DATA     BIT       TMR2CN0_TF2CEN
      00000088H.6 SFRSYM    DATA     BIT       TCON_TR1
      000000C2H   SFRSYM    DATA     BYTE      SMB0DAT
      000000CDH   SFRSYM    DATA     BYTE      TMR2H
      000000A1H   SFRSYM    DATA     BYTE      SPI0CFG
      00000095H   SFRSYM    DATA     BYTE      TMR3H
      000000D3H   SFRSYM    DATA     BYTE      CRC0CNT
      00000096H   SFRSYM    DATA     BYTE      PCA0POL
      000000CCH   SFRSYM    DATA     BYTE      TMR2L
      000000F8H.7 SFRSYM    DATA     BIT       SPI0CN0_SPIF
      00000094H   SFRSYM    DATA     BYTE      TMR3L
      000000DFH   SFRSYM    DATA     BYTE      ADC0PWR
      000000A8H.7 SFRSYM    DATA     BIT       IE_EA
      000000C8H.5 SFRSYM    DATA     BIT       TMR2CN0_TF2LEN
LX51 LINKER/LOCATER V4.66.30.0                                                        01/24/2020  09:48:17  PAGE 31


      000000F8H.6 SFRSYM    DATA     BIT       SPI0CN0_WCOL
      000000F8H.2 SFRSYM    DATA     BIT       SPI0CN0_NSSMD0
      000000D0H.7 SFRSYM    DATA     BIT       PSW_CY
      000000A3H   SFRSYM    DATA     BYTE      SPI0DAT
      000000F8H.3 SFRSYM    DATA     BIT       SPI0CN0_NSSMD1
      000000BDH   SFRSYM    DATA     WORD      ADC0
      000000D0H   SFRSYM    DATA     BYTE      PSW
      000000F7H   SFRSYM    DATA     BYTE      PCA0PWM
      000000B6H   SFRSYM    DATA     BYTE      REVID
      000000B7H   SFRSYM    DATA     BYTE      FLKEY
      000000B3H   SFRSYM    DATA     BYTE      ADC0AC

      01001B17H   BLOCK     CODE     ---       LVL=0
      01001B17H   LINE      CODE     ---       #22
      01001B17H   LINE      CODE     ---       #24
      01001B1AH   LINE      CODE     ---       #25
      01001B1DH   LINE      CODE     ---       #26
      01001B20H   LINE      CODE     ---       #27
      01001B23H   LINE      CODE     ---       #28
      01001B26H   LINE      CODE     ---       #29
      01001B29H   LINE      CODE     ---       #30
      01001B2CH   LINE      CODE     ---       #31
      01001B2FH   LINE      CODE     ---       #32
      01001B32H   LINE      CODE     ---       #33
      01001B35H   LINE      CODE     ---       #34
      01001B38H   LINE      CODE     ---       #35
      01001B3BH   LINE      CODE     ---       #36
      01001B3EH   LINE      CODE     ---       #37
      01001B41H   LINE      CODE     ---       #38
      ---         BLOCKEND  ---      ---       LVL=0

      010016E5H   BLOCK     CODE     ---       LVL=0
      010016E5H   BLOCK     CODE     NEAR LAB  LVL=1
      0000005DH   SYMBOL    DATA     DWORD     i
      00000021H.3 SYMBOL    BIT      BIT       ea
      ---         BLOCKEND  ---      ---       LVL=1
      010016E5H   LINE      CODE     ---       #46
      010016E5H   LINE      CODE     ---       #59
      010016E8H   LINE      CODE     ---       #62
      01001705H   LINE      CODE     ---       #63
      01001706H   LINE      CODE     ---       #64
      0100171DH   LINE      CODE     ---       #67
      01001721H   LINE      CODE     ---       #68
      01001723H   LINE      CODE     ---       #69
      01001726H   LINE      CODE     ---       #70
      01001729H   LINE      CODE     ---       #71
      0100172DH   LINE      CODE     ---       #75
      ---         BLOCKEND  ---      ---       LVL=0

      01001DC0H   BLOCK     CODE     ---       LVL=0
      01001DC0H   LINE      CODE     ---       #80
      01001DC0H   LINE      CODE     ---       #95
      01001DC3H   LINE      CODE     ---       #112
      01001DC6H   LINE      CODE     ---       #128
      01001DC9H   LINE      CODE     ---       #151
      01001DCCH   LINE      CODE     ---       #159
      ---         BLOCKEND  ---      ---       LVL=0

      01001DCDH   BLOCK     CODE     ---       LVL=0
      01001DCDH   LINE      CODE     ---       #164
      01001DCDH   LINE      CODE     ---       #179
      01001DD0H   LINE      CODE     ---       #196
LX51 LINKER/LOCATER V4.66.30.0                                                        01/24/2020  09:48:17  PAGE 32


      01001DD3H   LINE      CODE     ---       #212
      01001DD6H   LINE      CODE     ---       #235
      01001DD9H   LINE      CODE     ---       #243
      ---         BLOCKEND  ---      ---       LVL=0

      01001E0CH   BLOCK     CODE     ---       LVL=0
      01001E0CH   LINE      CODE     ---       #248
      01001E0CH   LINE      CODE     ---       #254
      01001E0FH   LINE      CODE     ---       #271
      01001E12H   LINE      CODE     ---       #284
      01001E15H   LINE      CODE     ---       #288
      ---         BLOCKEND  ---      ---       LVL=0

      01001E5CH   BLOCK     CODE     ---       LVL=0
      01001E5CH   LINE      CODE     ---       #293
      01001E5CH   LINE      CODE     ---       #299
      01001E5FH   LINE      CODE     ---       #302
      ---         BLOCKEND  ---      ---       LVL=0

      01001DA4H   BLOCK     CODE     ---       LVL=0
      01001DA4H   LINE      CODE     ---       #307
      01001DA4H   LINE      CODE     ---       #309
      01001DA6H   LINE      CODE     ---       #319
      01001DA9H   LINE      CODE     ---       #329
      01001DACH   LINE      CODE     ---       #343
      01001DAFH   LINE      CODE     ---       #353
      01001DB1H   LINE      CODE     ---       #356
      ---         BLOCKEND  ---      ---       LVL=0

      01001E16H   BLOCK     CODE     ---       LVL=0
      01001E16H   LINE      CODE     ---       #361
      01001E16H   LINE      CODE     ---       #364
      01001E19H   LINE      CODE     ---       #378
      01001E1CH   LINE      CODE     ---       #388
      01001E1FH   LINE      CODE     ---       #397
      ---         BLOCKEND  ---      ---       LVL=0

      01001E20H   BLOCK     CODE     ---       LVL=0
      01001E20H   LINE      CODE     ---       #399
      01001E20H   LINE      CODE     ---       #407
      01001E23H   LINE      CODE     ---       #440
      01001E26H   LINE      CODE     ---       #441
      01001E29H   LINE      CODE     ---       #445
      ---         BLOCKEND  ---      ---       LVL=0

      01001D16H   BLOCK     CODE     ---       LVL=0
      01001D16H   BLOCK     CODE     NEAR LAB  LVL=1
      00000007H   SYMBOL    DATA     BYTE      TCON_save
      ---         BLOCKEND  ---      ---       LVL=1
      01001D16H   LINE      CODE     ---       #470
      01001D16H   LINE      CODE     ---       #474
      01001D18H   LINE      CODE     ---       #476
      01001D1BH   LINE      CODE     ---       #490
      01001D1EH   LINE      CODE     ---       #498
      01001D28H   LINE      CODE     ---       #502
      ---         BLOCKEND  ---      ---       LVL=0

      01001D29H   BLOCK     CODE     ---       LVL=0
      01001D29H   BLOCK     CODE     NEAR LAB  LVL=1
      00000007H   SYMBOL    DATA     BYTE      TMR2CN0_TR2_save
      ---         BLOCKEND  ---      ---       LVL=1
      01001D29H   LINE      CODE     ---       #504
LX51 LINKER/LOCATER V4.66.30.0                                                        01/24/2020  09:48:17  PAGE 33


      01001D29H   LINE      CODE     ---       #508
      01001D2DH   LINE      CODE     ---       #510
      01001D30H   LINE      CODE     ---       #526
      01001D33H   LINE      CODE     ---       #533
      01001D36H   LINE      CODE     ---       #540
      01001D39H   LINE      CODE     ---       #545
      01001D3BH   LINE      CODE     ---       #548
      ---         BLOCKEND  ---      ---       LVL=0

      01001E2AH   BLOCK     CODE     ---       LVL=0
      01001E2AH   LINE      CODE     ---       #550
      01001E2AH   LINE      CODE     ---       #561
      01001E2DH   LINE      CODE     ---       #576
      01001E30H   LINE      CODE     ---       #584
      01001E33H   LINE      CODE     ---       #587
      ---         BLOCKEND  ---      ---       LVL=0

      01001E60H   BLOCK     CODE     ---       LVL=0
      01001E60H   LINE      CODE     ---       #589
      01001E60H   LINE      CODE     ---       #594
      01001E63H   LINE      CODE     ---       #597
      ---         BLOCKEND  ---      ---       LVL=0

      01001E48H   BLOCK     CODE     ---       LVL=0
      01001E48H   LINE      CODE     ---       #599
      01001E48H   LINE      CODE     ---       #612
      01001E4BH   LINE      CODE     ---       #631
      01001E4EH   LINE      CODE     ---       #639
      ---         BLOCKEND  ---      ---       LVL=0

      01001DDAH   BLOCK     CODE     ---       LVL=0
      01001DDAH   BLOCK     CODE     NEAR LAB  LVL=1
      00000007H   SYMBOL    DATA     BYTE      TMR3CN0_TR3_save
      ---         BLOCKEND  ---      ---       LVL=1
      01001DDAH   LINE      CODE     ---       #641
      01001DDAH   LINE      CODE     ---       #645
      01001DDEH   LINE      CODE     ---       #647
      01001DE1H   LINE      CODE     ---       #669
      01001DE4H   LINE      CODE     ---       #674
      01001DE6H   LINE      CODE     ---       #677
      ---         BLOCKEND  ---      ---       LVL=0

      01001E34H   BLOCK     CODE     ---       LVL=0
      01001E34H   LINE      CODE     ---       #683
      01001E34H   LINE      CODE     ---       #693
      01001E37H   LINE      CODE     ---       #694
      01001E3AH   LINE      CODE     ---       #701
      01001E3DH   LINE      CODE     ---       #704
      ---         BLOCKEND  ---      ---       LVL=0

      ---         MODULE    ---      ---       INTERRUPTS
      01001E64H   PUBLIC    CODE     ---       PMATCH_ISR
      000000A2H   SFRSYM    DATA     BYTE      SPI0CKR
      00000080H   SFRSYM    DATA     BYTE      P0
      000000D0H.2 SFRSYM    DATA     BIT       PSW_OV
      00000090H   SFRSYM    DATA     BYTE      P1
      00000097H   SFRSYM    DATA     BYTE      WDTCN
      000000A0H   SFRSYM    DATA     BYTE      P2
      000000BCH   SFRSYM    DATA     BYTE      ADC0CF
      000000C8H   SFRSYM    DATA     BIT       TMR2CN0_T2XCLK
      000000C0H.7 SFRSYM    DATA     BIT       SMB0CN0_MASTER
      000000F9H   SFRSYM    DATA     WORD      PCA0
LX51 LINKER/LOCATER V4.66.30.0                                                        01/24/2020  09:48:17  PAGE 34


      000000E6H   SFRSYM    DATA     BYTE      EIE1
      000000C0H.1 SFRSYM    DATA     BIT       SMB0CN0_ACK
      0000008FH   SFRSYM    DATA     BYTE      PSCTL
      000000E4H   SFRSYM    DATA     BYTE      IT01CF
      000000C0H.6 SFRSYM    DATA     BIT       SMB0CN0_TXMODE
      000000ADH   SFRSYM    DATA     BYTE      DERIVID
      000000A4H   SFRSYM    DATA     BYTE      P0MDOUT
      000000A5H   SFRSYM    DATA     BYTE      P1MDOUT
      000000E8H.5 SFRSYM    DATA     BIT       ADC0CN0_ADINT
      000000CBH   SFRSYM    DATA     BYTE      TMR2RLH
      000000A6H   SFRSYM    DATA     BYTE      P2MDOUT
      000000A8H   SFRSYM    DATA     BYTE      IE
      00000093H   SFRSYM    DATA     BYTE      TMR3RLH
      000000F3H   SFRSYM    DATA     BYTE      EIP1
      00000098H.2 SFRSYM    DATA     BIT       SCON0_RB8
      000000CAH   SFRSYM    DATA     BYTE      TMR2RLL
      000000FCH   SFRSYM    DATA     BYTE      PCA0CPH0
      00000092H   SFRSYM    DATA     BYTE      TMR3RLL
      000000EAH   SFRSYM    DATA     BYTE      PCA0CPH1
      00000098H.3 SFRSYM    DATA     BIT       SCON0_TB8
      000000F0H   SFRSYM    DATA     BIT       B_B0
      00000082H   SFRSYM    DATA     WORD      DP
      000000ECH   SFRSYM    DATA     BYTE      PCA0CPH2
      00000080H.2 SFRSYM    DATA     BIT       BTN0
      000000F0H.1 SFRSYM    DATA     BIT       B_B1
      000000C3H   SFRSYM    DATA     WORD      ADC0GT
      00000090H.1 SFRSYM    DATA     BIT       BTN1
      000000F0H.2 SFRSYM    DATA     BIT       B_B2
      000000FBH   SFRSYM    DATA     BYTE      PCA0CPL0
      000000F0H.3 SFRSYM    DATA     BIT       B_B3
      000000D9H   SFRSYM    DATA     BYTE      PCA0MD
      000000DAH   SFRSYM    DATA     BYTE      PCA0CPM0
      000000E9H   SFRSYM    DATA     BYTE      PCA0CPL1
      000000F0H.4 SFRSYM    DATA     BIT       B_B4
      000000DBH   SFRSYM    DATA     BYTE      PCA0CPM1
      000000EBH   SFRSYM    DATA     BYTE      PCA0CPL2
      000000F0H.5 SFRSYM    DATA     BIT       B_B5
      000000DCH   SFRSYM    DATA     BYTE      PCA0CPM2
      000000B8H   SFRSYM    DATA     BYTE      IP
      000000B9H   SFRSYM    DATA     BYTE      ADC0TK
      000000F0H.6 SFRSYM    DATA     BIT       B_B6
      000000C5H   SFRSYM    DATA     WORD      ADC0LT
      00000098H.5 SFRSYM    DATA     BIT       SCON0_MCE
      000000F0H.7 SFRSYM    DATA     BIT       B_B7
      000000E1H   SFRSYM    DATA     BYTE      XBR0
      000000C1H   SFRSYM    DATA     BYTE      SMB0CF
      000000E2H   SFRSYM    DATA     BYTE      XBR1
      000000C0H.5 SFRSYM    DATA     BIT       SMB0CN0_STA
      000000E3H   SFRSYM    DATA     BYTE      XBR2
      000000BBH   SFRSYM    DATA     BYTE      ADC0MX
      000000E0H   SFRSYM    DATA     BIT       ACC_ACC0
      000000D1H   SFRSYM    DATA     BYTE      REF0CN
      0000008EH   SFRSYM    DATA     BYTE      CKCON0
      000000E0H.1 SFRSYM    DATA     BIT       ACC_ACC1
      000000C9H   SFRSYM    DATA     BYTE      REG0CN
      000000DDH   SFRSYM    DATA     BYTE      CRC0IN
      000000C8H.2 SFRSYM    DATA     BIT       TMR2CN0_TR2
      000000E0H.2 SFRSYM    DATA     BIT       ACC_ACC2
      000000E0H.3 SFRSYM    DATA     BIT       ACC_ACC3
      00000081H   SFRSYM    DATA     BYTE      SP
      0000009DH   SFRSYM    DATA     BYTE      CMP0MD
      000000E0H.4 SFRSYM    DATA     BIT       ACC_ACC4
LX51 LINKER/LOCATER V4.66.30.0                                                        01/24/2020  09:48:17  PAGE 35


      000000B1H   SFRSYM    DATA     BYTE      LFO0CN
      000000ABH   SFRSYM    DATA     BYTE      CMP1MD
      000000D8H   SFRSYM    DATA     BIT       PCA0CN0_CCF0
      000000E0H.5 SFRSYM    DATA     BIT       ACC_ACC5
      000000D8H.1 SFRSYM    DATA     BIT       PCA0CN0_CCF1
      000000E0H.6 SFRSYM    DATA     BIT       ACC_ACC6
      000000CCH   SFRSYM    DATA     WORD      TMR2
      000000D8H.2 SFRSYM    DATA     BIT       PCA0CN0_CCF2
      000000E0H.7 SFRSYM    DATA     BIT       ACC_ACC7
      00000094H   SFRSYM    DATA     WORD      TMR3
      000000C0H.3 SFRSYM    DATA     BIT       SMB0CN0_ACKRQ
      000000FFH   SFRSYM    DATA     BYTE      VDM0CN
      000000F1H   SFRSYM    DATA     BYTE      P0MDIN
      00000098H.4 SFRSYM    DATA     BIT       SCON0_REN
      000000ACH   SFRSYM    DATA     BYTE      SMB0TC
      000000F2H   SFRSYM    DATA     BYTE      P1MDIN
      000000C0H.4 SFRSYM    DATA     BIT       SMB0CN0_STO
      000000FEH   SFRSYM    DATA     BYTE      P0MASK
      000000EEH   SFRSYM    DATA     BYTE      P1MASK
      000000D0H.3 SFRSYM    DATA     BIT       PSW_RS0
      000000D8H.7 SFRSYM    DATA     BIT       PCA0CN0_CF
      0000009EH   SFRSYM    DATA     BYTE      PCA0CENT
      000000F8H.4 SFRSYM    DATA     BIT       SPI0CN0_RXOVRN
      000000D0H.4 SFRSYM    DATA     BIT       PSW_RS1
      000000E8H.7 SFRSYM    DATA     BIT       ADC0CN0_ADEN
      00000089H   SFRSYM    DATA     BYTE      TMOD
      00000088H   SFRSYM    DATA     BYTE      TCON
      000000CFH   SFRSYM    DATA     BYTE      CRC0FLIP
      000000D0H   SFRSYM    DATA     BIT       PSW_PARITY
      000000A8H.4 SFRSYM    DATA     BIT       IE_ES0
      0000009FH   SFRSYM    DATA     BYTE      CMP0MX
      000000A8H.1 SFRSYM    DATA     BIT       IE_ET0
      000000AAH   SFRSYM    DATA     BYTE      CMP1MX
      000000A8H.3 SFRSYM    DATA     BIT       IE_ET1
      000000D4H   SFRSYM    DATA     BYTE      P0SKIP
      000000A8H.5 SFRSYM    DATA     BIT       IE_ET2
      000000D5H   SFRSYM    DATA     BYTE      P1SKIP
      000000E8H   SFRSYM    DATA     BYTE      ADC0CN0
      000000A8H   SFRSYM    DATA     BIT       IE_EX0
      000000B2H   SFRSYM    DATA     BYTE      ADC0CN1
      000000D8H.6 SFRSYM    DATA     BIT       PCA0CN0_CR
      000000A8H.2 SFRSYM    DATA     BIT       IE_EX1
      00000098H.7 SFRSYM    DATA     BIT       SCON0_SMODE
      000000B5H   SFRSYM    DATA     BYTE      DEVICEID
      000000A9H   SFRSYM    DATA     BYTE      CLKSEL
      000000F8H   SFRSYM    DATA     BIT       SPI0CN0_SPIEN
      000000F0H   SFRSYM    DATA     BYTE      B
      000000BEH   SFRSYM    DATA     BYTE      ADC0H
      000000D2H   SFRSYM    DATA     BYTE      CRC0AUTO
      000000E8H.6 SFRSYM    DATA     BIT       ADC0CN0_ADBMEN
      000000CAH   SFRSYM    DATA     WORD      TMR2RL
      000000BDH   SFRSYM    DATA     BYTE      ADC0L
      00000092H   SFRSYM    DATA     WORD      TMR3RL
      000000D8H   SFRSYM    DATA     BYTE      PCA0CN0
      000000E0H   SFRSYM    DATA     BYTE      ACC
      000000FBH   SFRSYM    DATA     WORD      PCA0CP0
      000000E9H   SFRSYM    DATA     WORD      PCA0CP1
      000000EBH   SFRSYM    DATA     WORD      PCA0CP2
      000000CEH   SFRSYM    DATA     BYTE      CRC0CN0
      00000090H.4 SFRSYM    DATA     BIT       BSP_LED0
      0000008CH   SFRSYM    DATA     BYTE      TH0
      000000B8H.4 SFRSYM    DATA     BIT       IP_PS0
LX51 LINKER/LOCATER V4.66.30.0                                                        01/24/2020  09:48:17  PAGE 36


      0000008DH   SFRSYM    DATA     BYTE      TH1
      000000FAH   SFRSYM    DATA     BYTE      PCA0H
      000000B8H.1 SFRSYM    DATA     BIT       IP_PT0
      000000B8H.3 SFRSYM    DATA     BIT       IP_PT1
      000000C0H.2 SFRSYM    DATA     BIT       SMB0CN0_ARBLOST
      000000B8H.5 SFRSYM    DATA     BIT       IP_PT2
      0000008AH   SFRSYM    DATA     BYTE      TL0
      000000F8H.1 SFRSYM    DATA     BIT       SPI0CN0_TXBMT
      000000D0H.5 SFRSYM    DATA     BIT       PSW_F0
      000000A8H.6 SFRSYM    DATA     BIT       IE_ESPI0
      0000008BH   SFRSYM    DATA     BYTE      TL1
      000000F9H   SFRSYM    DATA     BYTE      PCA0L
      000000C0H   SFRSYM    DATA     BIT       SMB0CN0_SI
      000000D0H.1 SFRSYM    DATA     BIT       PSW_F1
      00000080H   SFRSYM    DATA     BIT       P0_B0
      000000B8H   SFRSYM    DATA     BIT       IP_PX0
      00000090H   SFRSYM    DATA     BIT       P1_B0
      00000080H.1 SFRSYM    DATA     BIT       P0_B1
      000000B8H.2 SFRSYM    DATA     BIT       IP_PX1
      0000009BH   SFRSYM    DATA     BYTE      CMP0CN0
      00000088H.1 SFRSYM    DATA     BIT       TCON_IE0
      000000A0H   SFRSYM    DATA     BIT       P2_B0
      00000090H.1 SFRSYM    DATA     BIT       P1_B1
      00000080H.2 SFRSYM    DATA     BIT       P0_B2
      000000BFH   SFRSYM    DATA     BYTE      CMP1CN0
      00000088H.3 SFRSYM    DATA     BIT       TCON_IE1
      000000A0H.1 SFRSYM    DATA     BIT       P2_B1
      00000090H.2 SFRSYM    DATA     BIT       P1_B2
      00000080H.3 SFRSYM    DATA     BIT       P0_B3
      000000C0H   SFRSYM    DATA     BYTE      SMB0CN0
      00000090H.3 SFRSYM    DATA     BIT       P1_B3
      00000080H.4 SFRSYM    DATA     BIT       P0_B4
      00000090H.4 SFRSYM    DATA     BIT       P1_B4
      00000080H.5 SFRSYM    DATA     BIT       P0_B5
      00000090H.5 SFRSYM    DATA     BIT       P1_B5
      00000080H.6 SFRSYM    DATA     BIT       P0_B6
      00000090H.6 SFRSYM    DATA     BIT       P1_B6
      00000080H.7 SFRSYM    DATA     BIT       P0_B7
      00000090H.7 SFRSYM    DATA     BIT       P1_B7
      00000080H.2 SFRSYM    DATA     BIT       BSP_BTN0
      00000083H   SFRSYM    DATA     BYTE      DPH
      000000C4H   SFRSYM    DATA     BYTE      ADC0GTH
      000000C8H.7 SFRSYM    DATA     BIT       TMR2CN0_TF2H
      000000C8H.3 SFRSYM    DATA     BIT       TMR2CN0_T2SPLIT
      000000D0H.6 SFRSYM    DATA     BIT       PSW_AC
      000000F8H   SFRSYM    DATA     BYTE      SPI0CN0
      000000C7H   SFRSYM    DATA     BYTE      HFO0CAL
      00000088H.5 SFRSYM    DATA     BIT       TCON_TF0
      00000098H   SFRSYM    DATA     BIT       SCON0_RI
      00000082H   SFRSYM    DATA     BYTE      DPL
      00000088H.7 SFRSYM    DATA     BIT       TCON_TF1
      00000099H   SFRSYM    DATA     BYTE      SBUF0
      00000087H   SFRSYM    DATA     BYTE      PCON0
      000000C3H   SFRSYM    DATA     BYTE      ADC0GTL
      000000C8H.6 SFRSYM    DATA     BIT       TMR2CN0_TF2L
      00000098H.1 SFRSYM    DATA     BIT       SCON0_TI
      000000E8H   SFRSYM    DATA     BIT       ADC0CN0_ADCM0
      000000C6H   SFRSYM    DATA     BYTE      ADC0LTH
      00000088H   SFRSYM    DATA     BIT       TCON_IT0
      000000E8H.1 SFRSYM    DATA     BIT       ADC0CN0_ADCM1
      000000EFH   SFRSYM    DATA     BYTE      RSTSRC
      000000FDH   SFRSYM    DATA     BYTE      P0MAT
LX51 LINKER/LOCATER V4.66.30.0                                                        01/24/2020  09:48:17  PAGE 37


      000000DEH   SFRSYM    DATA     BYTE      CRC0DAT
      00000088H.2 SFRSYM    DATA     BIT       TCON_IT1
      000000E8H.2 SFRSYM    DATA     BIT       ADC0CN0_ADCM2
      00000098H   SFRSYM    DATA     BYTE      SCON0
      000000F6H   SFRSYM    DATA     BYTE      PRTDRV
      000000EDH   SFRSYM    DATA     BYTE      P1MAT
      000000E8H.3 SFRSYM    DATA     BIT       ADC0CN0_ADWINT
      000000E8H.4 SFRSYM    DATA     BIT       ADC0CN0_ADBUSY
      000000D6H   SFRSYM    DATA     BYTE      SMB0ADM
      000000C5H   SFRSYM    DATA     BYTE      ADC0LTL
      000000F8H.5 SFRSYM    DATA     BIT       SPI0CN0_MODF
      000000B8H.6 SFRSYM    DATA     BIT       IP_PSPI0
      0000009CH   SFRSYM    DATA     BYTE      PCA0CLR
      000000C8H   SFRSYM    DATA     BYTE      TMR2CN0
      00000091H   SFRSYM    DATA     BYTE      TMR3CN0
      000000D7H   SFRSYM    DATA     BYTE      SMB0ADR
      00000088H.4 SFRSYM    DATA     BIT       TCON_TR0
      000000C8H.4 SFRSYM    DATA     BIT       TMR2CN0_TF2CEN
      00000088H.6 SFRSYM    DATA     BIT       TCON_TR1
      000000C2H   SFRSYM    DATA     BYTE      SMB0DAT
      000000CDH   SFRSYM    DATA     BYTE      TMR2H
      000000A1H   SFRSYM    DATA     BYTE      SPI0CFG
      00000095H   SFRSYM    DATA     BYTE      TMR3H
      000000D3H   SFRSYM    DATA     BYTE      CRC0CNT
      00000096H   SFRSYM    DATA     BYTE      PCA0POL
      000000CCH   SFRSYM    DATA     BYTE      TMR2L
      000000F8H.7 SFRSYM    DATA     BIT       SPI0CN0_SPIF
      00000094H   SFRSYM    DATA     BYTE      TMR3L
      000000DFH   SFRSYM    DATA     BYTE      ADC0PWR
      000000A8H.7 SFRSYM    DATA     BIT       IE_EA
      000000C8H.5 SFRSYM    DATA     BIT       TMR2CN0_TF2LEN
      000000F8H.6 SFRSYM    DATA     BIT       SPI0CN0_WCOL
      000000F8H.2 SFRSYM    DATA     BIT       SPI0CN0_NSSMD0
      000000D0H.7 SFRSYM    DATA     BIT       PSW_CY
      000000A3H   SFRSYM    DATA     BYTE      SPI0DAT
      000000F8H.3 SFRSYM    DATA     BIT       SPI0CN0_NSSMD1
      000000BDH   SFRSYM    DATA     WORD      ADC0
      000000D0H   SFRSYM    DATA     BYTE      PSW
      000000F7H   SFRSYM    DATA     BYTE      PCA0PWM
      000000B6H   SFRSYM    DATA     BYTE      REVID
      000000B7H   SFRSYM    DATA     BYTE      FLKEY
      000000B3H   SFRSYM    DATA     BYTE      ADC0AC

      01001E64H   BLOCK     CODE     ---       LVL=0
      01001E64H   LINE      CODE     ---       #23
      01001E64H   LINE      CODE     ---       #26
      01001E67H   LINE      CODE     ---       #27
      ---         BLOCKEND  ---      ---       LVL=0

      ---         MODULE    ---      ---       MCP_CORE
      00000017H   PUBLIC    DATA     ---       MCP_reset_callback
      0200006BH   PUBLIC    XDATA    ---       mcp_tune
      02000069H   PUBLIC    XDATA    ---       mcp_status
      02000057H   PUBLIC    XDATA    ---       mcp
      00000008H   PUBLIC    DATA     ---       _MCP_tune_callback
      01001E56H   PUBLIC    CODE     ---       MCP_task
      01001C0BH   PUBLIC    CODE     ---       MCP_init
      000000A2H   SFRSYM    DATA     BYTE      SPI0CKR
      00000080H   SFRSYM    DATA     BYTE      P0
      000000D0H.2 SFRSYM    DATA     BIT       PSW_OV
      00000090H   SFRSYM    DATA     BYTE      P1
      00000097H   SFRSYM    DATA     BYTE      WDTCN
LX51 LINKER/LOCATER V4.66.30.0                                                        01/24/2020  09:48:17  PAGE 38


      000000A0H   SFRSYM    DATA     BYTE      P2
      000000BCH   SFRSYM    DATA     BYTE      ADC0CF
      000000C8H   SFRSYM    DATA     BIT       TMR2CN0_T2XCLK
      000000C0H.7 SFRSYM    DATA     BIT       SMB0CN0_MASTER
      000000F9H   SFRSYM    DATA     WORD      PCA0
      000000E6H   SFRSYM    DATA     BYTE      EIE1
      000000C0H.1 SFRSYM    DATA     BIT       SMB0CN0_ACK
      0000008FH   SFRSYM    DATA     BYTE      PSCTL
      000000E4H   SFRSYM    DATA     BYTE      IT01CF
      000000C0H.6 SFRSYM    DATA     BIT       SMB0CN0_TXMODE
      000000ADH   SFRSYM    DATA     BYTE      DERIVID
      000000A4H   SFRSYM    DATA     BYTE      P0MDOUT
      000000A5H   SFRSYM    DATA     BYTE      P1MDOUT
      000000E8H.5 SFRSYM    DATA     BIT       ADC0CN0_ADINT
      000000CBH   SFRSYM    DATA     BYTE      TMR2RLH
      000000A6H   SFRSYM    DATA     BYTE      P2MDOUT
      000000A8H   SFRSYM    DATA     BYTE      IE
      00000093H   SFRSYM    DATA     BYTE      TMR3RLH
      000000F3H   SFRSYM    DATA     BYTE      EIP1
      00000098H.2 SFRSYM    DATA     BIT       SCON0_RB8
      000000CAH   SFRSYM    DATA     BYTE      TMR2RLL
      000000FCH   SFRSYM    DATA     BYTE      PCA0CPH0
      00000092H   SFRSYM    DATA     BYTE      TMR3RLL
      000000EAH   SFRSYM    DATA     BYTE      PCA0CPH1
      00000098H.3 SFRSYM    DATA     BIT       SCON0_TB8
      000000F0H   SFRSYM    DATA     BIT       B_B0
      00000082H   SFRSYM    DATA     WORD      DP
      000000ECH   SFRSYM    DATA     BYTE      PCA0CPH2
      00000080H.2 SFRSYM    DATA     BIT       BTN0
      000000F0H.1 SFRSYM    DATA     BIT       B_B1
      000000C3H   SFRSYM    DATA     WORD      ADC0GT
      00000090H.1 SFRSYM    DATA     BIT       BTN1
      000000F0H.2 SFRSYM    DATA     BIT       B_B2
      000000FBH   SFRSYM    DATA     BYTE      PCA0CPL0
      000000F0H.3 SFRSYM    DATA     BIT       B_B3
      000000D9H   SFRSYM    DATA     BYTE      PCA0MD
      000000DAH   SFRSYM    DATA     BYTE      PCA0CPM0
      000000E9H   SFRSYM    DATA     BYTE      PCA0CPL1
      000000F0H.4 SFRSYM    DATA     BIT       B_B4
      000000DBH   SFRSYM    DATA     BYTE      PCA0CPM1
      000000EBH   SFRSYM    DATA     BYTE      PCA0CPL2
      000000F0H.5 SFRSYM    DATA     BIT       B_B5
      000000DCH   SFRSYM    DATA     BYTE      PCA0CPM2
      000000B8H   SFRSYM    DATA     BYTE      IP
      000000B9H   SFRSYM    DATA     BYTE      ADC0TK
      000000F0H.6 SFRSYM    DATA     BIT       B_B6
      000000C5H   SFRSYM    DATA     WORD      ADC0LT
      00000098H.5 SFRSYM    DATA     BIT       SCON0_MCE
      000000F0H.7 SFRSYM    DATA     BIT       B_B7
      000000E1H   SFRSYM    DATA     BYTE      XBR0
      000000C1H   SFRSYM    DATA     BYTE      SMB0CF
      000000E2H   SFRSYM    DATA     BYTE      XBR1
      000000C0H.5 SFRSYM    DATA     BIT       SMB0CN0_STA
      000000E3H   SFRSYM    DATA     BYTE      XBR2
      000000BBH   SFRSYM    DATA     BYTE      ADC0MX
      000000E0H   SFRSYM    DATA     BIT       ACC_ACC0
      000000D1H   SFRSYM    DATA     BYTE      REF0CN
      0000008EH   SFRSYM    DATA     BYTE      CKCON0
      000000E0H.1 SFRSYM    DATA     BIT       ACC_ACC1
      000000C9H   SFRSYM    DATA     BYTE      REG0CN
      000000DDH   SFRSYM    DATA     BYTE      CRC0IN
      000000C8H.2 SFRSYM    DATA     BIT       TMR2CN0_TR2
LX51 LINKER/LOCATER V4.66.30.0                                                        01/24/2020  09:48:17  PAGE 39


      000000E0H.2 SFRSYM    DATA     BIT       ACC_ACC2
      000000E0H.3 SFRSYM    DATA     BIT       ACC_ACC3
      00000081H   SFRSYM    DATA     BYTE      SP
      0000009DH   SFRSYM    DATA     BYTE      CMP0MD
      000000E0H.4 SFRSYM    DATA     BIT       ACC_ACC4
      000000B1H   SFRSYM    DATA     BYTE      LFO0CN
      000000ABH   SFRSYM    DATA     BYTE      CMP1MD
      000000D8H   SFRSYM    DATA     BIT       PCA0CN0_CCF0
      000000E0H.5 SFRSYM    DATA     BIT       ACC_ACC5
      000000D8H.1 SFRSYM    DATA     BIT       PCA0CN0_CCF1
      000000E0H.6 SFRSYM    DATA     BIT       ACC_ACC6
      000000CCH   SFRSYM    DATA     WORD      TMR2
      000000D8H.2 SFRSYM    DATA     BIT       PCA0CN0_CCF2
      000000E0H.7 SFRSYM    DATA     BIT       ACC_ACC7
      00000094H   SFRSYM    DATA     WORD      TMR3
      000000C0H.3 SFRSYM    DATA     BIT       SMB0CN0_ACKRQ
      000000FFH   SFRSYM    DATA     BYTE      VDM0CN
      000000F1H   SFRSYM    DATA     BYTE      P0MDIN
      00000098H.4 SFRSYM    DATA     BIT       SCON0_REN
      000000ACH   SFRSYM    DATA     BYTE      SMB0TC
      000000F2H   SFRSYM    DATA     BYTE      P1MDIN
      000000C0H.4 SFRSYM    DATA     BIT       SMB0CN0_STO
      000000FEH   SFRSYM    DATA     BYTE      P0MASK
      000000EEH   SFRSYM    DATA     BYTE      P1MASK
      000000D0H.3 SFRSYM    DATA     BIT       PSW_RS0
      000000D8H.7 SFRSYM    DATA     BIT       PCA0CN0_CF
      0000009EH   SFRSYM    DATA     BYTE      PCA0CENT
      000000F8H.4 SFRSYM    DATA     BIT       SPI0CN0_RXOVRN
      000000D0H.4 SFRSYM    DATA     BIT       PSW_RS1
      000000E8H.7 SFRSYM    DATA     BIT       ADC0CN0_ADEN
      00000089H   SFRSYM    DATA     BYTE      TMOD
      00000088H   SFRSYM    DATA     BYTE      TCON
      000000CFH   SFRSYM    DATA     BYTE      CRC0FLIP
      000000D0H   SFRSYM    DATA     BIT       PSW_PARITY
      000000A8H.4 SFRSYM    DATA     BIT       IE_ES0
      0000009FH   SFRSYM    DATA     BYTE      CMP0MX
      000000A8H.1 SFRSYM    DATA     BIT       IE_ET0
      000000AAH   SFRSYM    DATA     BYTE      CMP1MX
      000000A8H.3 SFRSYM    DATA     BIT       IE_ET1
      000000D4H   SFRSYM    DATA     BYTE      P0SKIP
      000000A8H.5 SFRSYM    DATA     BIT       IE_ET2
      000000D5H   SFRSYM    DATA     BYTE      P1SKIP
      000000E8H   SFRSYM    DATA     BYTE      ADC0CN0
      000000A8H   SFRSYM    DATA     BIT       IE_EX0
      000000B2H   SFRSYM    DATA     BYTE      ADC0CN1
      000000D8H.6 SFRSYM    DATA     BIT       PCA0CN0_CR
      000000A8H.2 SFRSYM    DATA     BIT       IE_EX1
      00000098H.7 SFRSYM    DATA     BIT       SCON0_SMODE
      000000B5H   SFRSYM    DATA     BYTE      DEVICEID
      000000A9H   SFRSYM    DATA     BYTE      CLKSEL
      000000F8H   SFRSYM    DATA     BIT       SPI0CN0_SPIEN
      000000F0H   SFRSYM    DATA     BYTE      B
      000000BEH   SFRSYM    DATA     BYTE      ADC0H
      000000D2H   SFRSYM    DATA     BYTE      CRC0AUTO
      000000E8H.6 SFRSYM    DATA     BIT       ADC0CN0_ADBMEN
      000000CAH   SFRSYM    DATA     WORD      TMR2RL
      000000BDH   SFRSYM    DATA     BYTE      ADC0L
      00000092H   SFRSYM    DATA     WORD      TMR3RL
      000000D8H   SFRSYM    DATA     BYTE      PCA0CN0
      000000E0H   SFRSYM    DATA     BYTE      ACC
      000000FBH   SFRSYM    DATA     WORD      PCA0CP0
      000000E9H   SFRSYM    DATA     WORD      PCA0CP1
LX51 LINKER/LOCATER V4.66.30.0                                                        01/24/2020  09:48:17  PAGE 40


      000000EBH   SFRSYM    DATA     WORD      PCA0CP2
      000000CEH   SFRSYM    DATA     BYTE      CRC0CN0
      00000090H.4 SFRSYM    DATA     BIT       BSP_LED0
      0000008CH   SFRSYM    DATA     BYTE      TH0
      000000B8H.4 SFRSYM    DATA     BIT       IP_PS0
      0000008DH   SFRSYM    DATA     BYTE      TH1
      000000FAH   SFRSYM    DATA     BYTE      PCA0H
      000000B8H.1 SFRSYM    DATA     BIT       IP_PT0
      000000B8H.3 SFRSYM    DATA     BIT       IP_PT1
      000000C0H.2 SFRSYM    DATA     BIT       SMB0CN0_ARBLOST
      000000B8H.5 SFRSYM    DATA     BIT       IP_PT2
      0000008AH   SFRSYM    DATA     BYTE      TL0
      000000F8H.1 SFRSYM    DATA     BIT       SPI0CN0_TXBMT
      000000D0H.5 SFRSYM    DATA     BIT       PSW_F0
      000000A8H.6 SFRSYM    DATA     BIT       IE_ESPI0
      0000008BH   SFRSYM    DATA     BYTE      TL1
      000000F9H   SFRSYM    DATA     BYTE      PCA0L
      000000C0H   SFRSYM    DATA     BIT       SMB0CN0_SI
      000000D0H.1 SFRSYM    DATA     BIT       PSW_F1
      00000080H   SFRSYM    DATA     BIT       P0_B0
      000000B8H   SFRSYM    DATA     BIT       IP_PX0
      00000090H   SFRSYM    DATA     BIT       P1_B0
      00000080H.1 SFRSYM    DATA     BIT       P0_B1
      000000B8H.2 SFRSYM    DATA     BIT       IP_PX1
      0000009BH   SFRSYM    DATA     BYTE      CMP0CN0
      00000088H.1 SFRSYM    DATA     BIT       TCON_IE0
      000000A0H   SFRSYM    DATA     BIT       P2_B0
      00000090H.1 SFRSYM    DATA     BIT       P1_B1
      00000080H.2 SFRSYM    DATA     BIT       P0_B2
      000000BFH   SFRSYM    DATA     BYTE      CMP1CN0
      00000088H.3 SFRSYM    DATA     BIT       TCON_IE1
      000000A0H.1 SFRSYM    DATA     BIT       P2_B1
      00000090H.2 SFRSYM    DATA     BIT       P1_B2
      00000080H.3 SFRSYM    DATA     BIT       P0_B3
      000000C0H   SFRSYM    DATA     BYTE      SMB0CN0
      00000090H.3 SFRSYM    DATA     BIT       P1_B3
      00000080H.4 SFRSYM    DATA     BIT       P0_B4
      00000090H.4 SFRSYM    DATA     BIT       P1_B4
      00000080H.5 SFRSYM    DATA     BIT       P0_B5
      00000090H.5 SFRSYM    DATA     BIT       P1_B5
      00000080H.6 SFRSYM    DATA     BIT       P0_B6
      00000090H.6 SFRSYM    DATA     BIT       P1_B6
      00000080H.7 SFRSYM    DATA     BIT       P0_B7
      00000090H.7 SFRSYM    DATA     BIT       P1_B7
      00000080H.2 SFRSYM    DATA     BIT       BSP_BTN0
      00000083H   SFRSYM    DATA     BYTE      DPH
      000000C4H   SFRSYM    DATA     BYTE      ADC0GTH
      000000C8H.7 SFRSYM    DATA     BIT       TMR2CN0_TF2H
      000000C8H.3 SFRSYM    DATA     BIT       TMR2CN0_T2SPLIT
      000000D0H.6 SFRSYM    DATA     BIT       PSW_AC
      000000F8H   SFRSYM    DATA     BYTE      SPI0CN0
      000000C7H   SFRSYM    DATA     BYTE      HFO0CAL
      00000088H.5 SFRSYM    DATA     BIT       TCON_TF0
      00000098H   SFRSYM    DATA     BIT       SCON0_RI
      00000082H   SFRSYM    DATA     BYTE      DPL
      00000088H.7 SFRSYM    DATA     BIT       TCON_TF1
      00000099H   SFRSYM    DATA     BYTE      SBUF0
      00000087H   SFRSYM    DATA     BYTE      PCON0
      000000C3H   SFRSYM    DATA     BYTE      ADC0GTL
      000000C8H.6 SFRSYM    DATA     BIT       TMR2CN0_TF2L
      00000098H.1 SFRSYM    DATA     BIT       SCON0_TI
      000000E8H   SFRSYM    DATA     BIT       ADC0CN0_ADCM0
LX51 LINKER/LOCATER V4.66.30.0                                                        01/24/2020  09:48:17  PAGE 41


      000000C6H   SFRSYM    DATA     BYTE      ADC0LTH
      00000088H   SFRSYM    DATA     BIT       TCON_IT0
      000000E8H.1 SFRSYM    DATA     BIT       ADC0CN0_ADCM1
      000000EFH   SFRSYM    DATA     BYTE      RSTSRC
      000000FDH   SFRSYM    DATA     BYTE      P0MAT
      000000DEH   SFRSYM    DATA     BYTE      CRC0DAT
      00000088H.2 SFRSYM    DATA     BIT       TCON_IT1
      000000E8H.2 SFRSYM    DATA     BIT       ADC0CN0_ADCM2
      00000098H   SFRSYM    DATA     BYTE      SCON0
      000000F6H   SFRSYM    DATA     BYTE      PRTDRV
      000000EDH   SFRSYM    DATA     BYTE      P1MAT
      000000E8H.3 SFRSYM    DATA     BIT       ADC0CN0_ADWINT
      000000E8H.4 SFRSYM    DATA     BIT       ADC0CN0_ADBUSY
      000000D6H   SFRSYM    DATA     BYTE      SMB0ADM
      000000C5H   SFRSYM    DATA     BYTE      ADC0LTL
      000000F8H.5 SFRSYM    DATA     BIT       SPI0CN0_MODF
      000000B8H.6 SFRSYM    DATA     BIT       IP_PSPI0
      0000009CH   SFRSYM    DATA     BYTE      PCA0CLR
      000000C8H   SFRSYM    DATA     BYTE      TMR2CN0
      00000091H   SFRSYM    DATA     BYTE      TMR3CN0
      000000D7H   SFRSYM    DATA     BYTE      SMB0ADR
      00000088H.4 SFRSYM    DATA     BIT       TCON_TR0
      000000C8H.4 SFRSYM    DATA     BIT       TMR2CN0_TF2CEN
      00000088H.6 SFRSYM    DATA     BIT       TCON_TR1
      000000C2H   SFRSYM    DATA     BYTE      SMB0DAT
      000000CDH   SFRSYM    DATA     BYTE      TMR2H
      000000A1H   SFRSYM    DATA     BYTE      SPI0CFG
      00000095H   SFRSYM    DATA     BYTE      TMR3H
      000000D3H   SFRSYM    DATA     BYTE      CRC0CNT
      00000096H   SFRSYM    DATA     BYTE      PCA0POL
      000000CCH   SFRSYM    DATA     BYTE      TMR2L
      000000F8H.7 SFRSYM    DATA     BIT       SPI0CN0_SPIF
      00000094H   SFRSYM    DATA     BYTE      TMR3L
      000000DFH   SFRSYM    DATA     BYTE      ADC0PWR
      000000A8H.7 SFRSYM    DATA     BIT       IE_EA
      000000C8H.5 SFRSYM    DATA     BIT       TMR2CN0_TF2LEN
      000000F8H.6 SFRSYM    DATA     BIT       SPI0CN0_WCOL
      000000F8H.2 SFRSYM    DATA     BIT       SPI0CN0_NSSMD0
      000000D0H.7 SFRSYM    DATA     BIT       PSW_CY
      000000A3H   SFRSYM    DATA     BYTE      SPI0DAT
      000000F8H.3 SFRSYM    DATA     BIT       SPI0CN0_NSSMD1
      000000BDH   SFRSYM    DATA     WORD      ADC0
      000000D0H   SFRSYM    DATA     BYTE      PSW
      000000F7H   SFRSYM    DATA     BYTE      PCA0PWM
      000000B6H   SFRSYM    DATA     BYTE      REVID
      000000B7H   SFRSYM    DATA     BYTE      FLKEY
      000000B3H   SFRSYM    DATA     BYTE      ADC0AC
      010007EBH   SYMBOL    CODE     ---       MCP_process_command
      01001C56H   SYMBOL    CODE     ---       MCP_get_register_address
      00000093H   SYMBOL    IDATA    ---       MCP_numcnvbuf
      0000000BH   SYMBOL    DATA     BYTE      MCP_cmd_type
      0000009DH   SYMBOL    IDATA    ---       MCP_command
      00000021H.7 SYMBOL    BIT      BIT       MCP_temp1
      01000D65H   SYMBOL    CODE     ---       MCP_command_task
      0000000CH   SYMBOL    DATA     BYTE      MCP_temp8_1
      0000000DH   SYMBOL    DATA     BYTE      MCP_temp8_2
      02000059H   SYMBOL    XDATA    ---       MCP_status_buffer
      01001144H   SYMBOL    CODE     ---       MCP_update_status
      010019E5H   SYMBOL    CODE     ---       _MCP_hex_to_dec
      01001CBBH   SYMBOL    CODE     ---       _MCP_send_ascii_value
      0000000EH   SYMBOL    DATA     ---       MCP_command_ptr
      010015D7H   SYMBOL    CODE     ---       _MCP_dec_to_ascnumbuf
LX51 LINKER/LOCATER V4.66.30.0                                                        01/24/2020  09:48:17  PAGE 42


      0000000FH   SYMBOL    DATA     BYTE      MCP_status_head
      00000022H.0 SYMBOL    BIT      BIT       MCP_txqueue_lock
      01001398H   SYMBOL    CODE     ---       MCP_status_update_task
      00000010H   SYMBOL    DATA     BYTE      MCP_mode
      01001634H   SYMBOL    CODE     ---       MCP_receive_command
      00000011H   SYMBOL    DATA     ---       MCP_command_ptr_2
      00000012H   SYMBOL    DATA     WORD      MCP_temp16_1
      00000014H   SYMBOL    DATA     WORD      MCP_temp16_2
      00000016H   SYMBOL    DATA     BYTE      MCP_status_tail
      0100000EH   SYMBOL    CODE     ---       MCP_init_commandbuf
      00000022H.1 SYMBOL    BIT      BIT       MCP_reset_cmd

      01001C0BH   BLOCK     CODE     ---       LVL=0
      01001C0BH   LINE      CODE     ---       #180
      01001C0BH   LINE      CODE     ---       #181
      01001C0BH   LINE      CODE     ---       #182
      01001C0DH   LINE      CODE     ---       #183
      01001C10H   LINE      CODE     ---       #184
      01001C13H   LINE      CODE     ---       #186
      01001C16H   LINE      CODE     ---       #187
      01001C19H   LINE      CODE     ---       #194
      01001C1CH   LINE      CODE     ---       #195
      01001C1FH   LINE      CODE     ---       #197
      01001C21H   LINE      CODE     ---       #199
      01001C28H   LINE      CODE     ---       #205
      01001C2EH   LINE      CODE     ---       #207
      ---         BLOCKEND  ---      ---       LVL=0

      01001E56H   BLOCK     CODE     ---       LVL=0
      01001E56H   LINE      CODE     ---       #225
      01001E56H   LINE      CODE     ---       #226
      01001E56H   LINE      CODE     ---       #227
      01001E59H   LINE      CODE     ---       #228
      ---         BLOCKEND  ---      ---       LVL=0

      010015D7H   BLOCK     CODE     ---       LVL=0
      0000005FH   SYMBOL    DATA     DWORD     value
      010015DFH   BLOCK     CODE     NEAR LAB  LVL=1
      00000063H   SYMBOL    DATA     BYTE      idx
      00000007H   SYMBOL    DATA     BYTE      bval
      ---         BLOCKEND  ---      ---       LVL=1
      010015D7H   LINE      CODE     ---       #352
      010015DFH   LINE      CODE     ---       #353
      010015DFH   LINE      CODE     ---       #358
      010015E2H   LINE      CODE     ---       #359
      010015E2H   LINE      CODE     ---       #360
      010015F3H   LINE      CODE     ---       #361
      010015FEH   LINE      CODE     ---       #362
      01001617H   LINE      CODE     ---       #363
      0100162AH   LINE      CODE     ---       #364
      0100162AH   LINE      CODE     ---       #365
      0100162AH   LINE      CODE     ---       #366
      0100162AH   LINE      CODE     ---       #367
      01001631H   LINE      CODE     ---       #369
      01001633H   LINE      CODE     ---       #370
      ---         BLOCKEND  ---      ---       LVL=0

      0100000EH   BLOCK     CODE     ---       LVL=0
      0100000EH   LINE      CODE     ---       #387
      0100000EH   LINE      CODE     ---       #388
      0100000EH   LINE      CODE     ---       #390
      01000017H   LINE      CODE     ---       #391
LX51 LINKER/LOCATER V4.66.30.0                                                        01/24/2020  09:48:17  PAGE 43


      01000017H   LINE      CODE     ---       #392
      0100001BH   LINE      CODE     ---       #393
      0100001FH   LINE      CODE     ---       #395
      01000022H   LINE      CODE     ---       #396
      ---         BLOCKEND  ---      ---       LVL=0

      01000D65H   BLOCK     CODE     ---       LVL=0
      01000D65H   BLOCK     CODE     NEAR LAB  LVL=1
      0000005DH   SYMBOL    DATA     CHAR      PT_YIELD_FLAG
      ---         BLOCKEND  ---      ---       LVL=1
      01000D65H   LINE      CODE     ---       #419
      01000D65H   LINE      CODE     ---       #420
      01000D65H   LINE      CODE     ---       #421
      01000D8CH   LINE      CODE     ---       #423
      01000D8CH   LINE      CODE     ---       #424
      01000D8CH   LINE      CODE     ---       #425
      01000DA4H   LINE      CODE     ---       #427
      01000DA9H   LINE      CODE     ---       #428
      01000DA9H   LINE      CODE     ---       #429
      01000DACH   LINE      CODE     ---       #432
      01000DB2H   LINE      CODE     ---       #433
      01000DB2H   LINE      CODE     ---       #434
      01000DB5H   LINE      CODE     ---       #435
      01000DB5H   LINE      CODE     ---       #436
      01000DB7H   LINE      CODE     ---       #437
      01000DBBH   LINE      CODE     ---       #438
      01000DBBH   LINE      CODE     ---       #440
      01000DC0H   LINE      CODE     ---       #441
      01000DC0H   LINE      CODE     ---       #463
      01000DC6H   LINE      CODE     ---       #464
      01000DC6H   LINE      CODE     ---       #465
      01000DCEH   LINE      CODE     ---       #466
      01000DD6H   LINE      CODE     ---       #467
      01000DD6H   LINE      CODE     ---       #468
      01000DD6H   LINE      CODE     ---       #469
      01000DD8H   LINE      CODE     ---       #471
      01000DD8H   LINE      CODE     ---       #472
      01000DE0H   LINE      CODE     ---       #473
      01000DE8H   LINE      CODE     ---       #474
      01000DF0H   LINE      CODE     ---       #475
      01000DF8H   LINE      CODE     ---       #476
      01000E00H   LINE      CODE     ---       #477
      01000E08H   LINE      CODE     ---       #478
      01000E08H   LINE      CODE     ---       #479
      01000E08H   LINE      CODE     ---       #482
      01000E0EH   LINE      CODE     ---       #483
      01000E0EH   LINE      CODE     ---       #484
      01000E11H   LINE      CODE     ---       #486
      01000E28H   LINE      CODE     ---       #487
      01000E2AH   LINE      CODE     ---       #489
      01000E30H   LINE      CODE     ---       #490
      01000E30H   LINE      CODE     ---       #491
      01000E4BH   LINE      CODE     ---       #492
      01000E52H   LINE      CODE     ---       #493
      01000E54H   LINE      CODE     ---       #494
      01000E56H   LINE      CODE     ---       #495
      01000E58H   LINE      CODE     ---       #496
      01000E58H   LINE      CODE     ---       #499
      01000E5BH   LINE      CODE     ---       #500
      01000E5BH   LINE      CODE     ---       #501
      01000E74H   LINE      CODE     ---       #503
      01000E77H   LINE      CODE     ---       #504
LX51 LINKER/LOCATER V4.66.30.0                                                        01/24/2020  09:48:17  PAGE 44


      01000E7EH   LINE      CODE     ---       #505
      01000E7EH   LINE      CODE     ---       #506
      01000E80H   LINE      CODE     ---       #507
      01000E82H   LINE      CODE     ---       #509
      01000E85H   LINE      CODE     ---       #510
      01000E87H   LINE      CODE     ---       #511
      01000E87H   LINE      CODE     ---       #514
      01000E8AH   LINE      CODE     ---       #517
      01000E8DH   LINE      CODE     ---       #518
      01000E90H   LINE      CODE     ---       #520
      01000E9BH   LINE      CODE     ---       #521
      ---         BLOCKEND  ---      ---       LVL=0

      01001398H   BLOCK     CODE     ---       LVL=0
      010013A0H   BLOCK     CODE     NEAR LAB  LVL=1
      0000005DH   SYMBOL    DATA     CHAR      PT_YIELD_FLAG
      ---         BLOCKEND  ---      ---       LVL=1
      01001398H   LINE      CODE     ---       #544
      01001398H   LINE      CODE     ---       #545
      01001398H   LINE      CODE     ---       #546
      0100139DH   LINE      CODE     ---       #547
      0100139DH   LINE      CODE     ---       #548
      010013A0H   LINE      CODE     ---       #549
      010013A0H   LINE      CODE     ---       #551
      010013BFH   LINE      CODE     ---       #553
      010013BFH   LINE      CODE     ---       #554
      010013BFH   LINE      CODE     ---       #555
      010013D5H   LINE      CODE     ---       #557
      010013D7H   LINE      CODE     ---       #558
      010013DDH   LINE      CODE     ---       #559
      010013DDH   LINE      CODE     ---       #560
      010013F8H   LINE      CODE     ---       #561
      01001403H   LINE      CODE     ---       #562
      0100140DH   LINE      CODE     ---       #563
      0100140FH   LINE      CODE     ---       #564
      01001411H   LINE      CODE     ---       #565
      01001413H   LINE      CODE     ---       #566
      0100141EH   LINE      CODE     ---       #567
      ---         BLOCKEND  ---      ---       LVL=0

      01001634H   BLOCK     CODE     ---       LVL=0
      01001634H   LINE      CODE     ---       #632
      01001634H   LINE      CODE     ---       #633
      01001634H   LINE      CODE     ---       #634
      0100163CH   LINE      CODE     ---       #635
      0100163CH   LINE      CODE     ---       #636
      01001640H   LINE      CODE     ---       #638
      01001646H   LINE      CODE     ---       #639
      01001646H   LINE      CODE     ---       #640
      01001657H   LINE      CODE     ---       #643
      01001657H   LINE      CODE     ---       #644
      0100165AH   LINE      CODE     ---       #645
      0100165CH   LINE      CODE     ---       #646
      0100165CH   LINE      CODE     ---       #647
      0100166DH   LINE      CODE     ---       #650
      0100166DH   LINE      CODE     ---       #651
      01001670H   LINE      CODE     ---       #652
      01001672H   LINE      CODE     ---       #653
      01001672H   LINE      CODE     ---       #654
      01001672H   LINE      CODE     ---       #655
      01001678H   LINE      CODE     ---       #656
      01001678H   LINE      CODE     ---       #657
LX51 LINKER/LOCATER V4.66.30.0                                                        01/24/2020  09:48:17  PAGE 45


      0100167AH   LINE      CODE     ---       #658
      0100167AH   LINE      CODE     ---       #660
      0100167CH   LINE      CODE     ---       #662
      01001681H   LINE      CODE     ---       #663
      01001681H   LINE      CODE     ---       #665
      01001688H   LINE      CODE     ---       #666
      0100168BH   LINE      CODE     ---       #667
      0100168DH   LINE      CODE     ---       #668
      0100168DH   LINE      CODE     ---       #669
      0100168DH   LINE      CODE     ---       #670
      0100168EH   LINE      CODE     ---       #671
      ---         BLOCKEND  ---      ---       LVL=0

      010019E5H   BLOCK     CODE     ---       LVL=0
      00000007H   SYMBOL    DATA     BYTE      aschex
      010019E5H   LINE      CODE     ---       #690
      010019E5H   LINE      CODE     ---       #691
      010019E5H   LINE      CODE     ---       #692
      010019F1H   LINE      CODE     ---       #693
      010019F1H   LINE      CODE     ---       #694
      010019F6H   LINE      CODE     ---       #695
      010019F6H   LINE      CODE     ---       #696
      01001A02H   LINE      CODE     ---       #697
      01001A02H   LINE      CODE     ---       #698
      01001A07H   LINE      CODE     ---       #699
      01001A07H   LINE      CODE     ---       #700
      01001A13H   LINE      CODE     ---       #701
      01001A13H   LINE      CODE     ---       #702
      01001A18H   LINE      CODE     ---       #703
      01001A18H   LINE      CODE     ---       #705
      01001A1AH   LINE      CODE     ---       #706
      ---         BLOCKEND  ---      ---       LVL=0

      01001C56H   BLOCK     CODE     ---       LVL=0
      01001C56H   BLOCK     CODE     NEAR LAB  LVL=1
      00000007H   SYMBOL    DATA     BYTE      temp_byte
      ---         BLOCKEND  ---      ---       LVL=1
      01001C56H   LINE      CODE     ---       #724
      01001C56H   LINE      CODE     ---       #725
      01001C56H   LINE      CODE     ---       #728
      01001C5DH   LINE      CODE     ---       #729
      01001C61H   LINE      CODE     ---       #730
      01001C61H   LINE      CODE     ---       #731
      01001C67H   LINE      CODE     ---       #732
      01001C6DH   LINE      CODE     ---       #733
      01001C71H   LINE      CODE     ---       #734
      01001C71H   LINE      CODE     ---       #735
      01001C76H   LINE      CODE     ---       #736
      01001C78H   LINE      CODE     ---       #737
      01001C78H   LINE      CODE     ---       #738
      01001C78H   LINE      CODE     ---       #740
      01001C79H   LINE      CODE     ---       #741
      ---         BLOCKEND  ---      ---       LVL=0

      010007EBH   BLOCK     CODE     ---       LVL=0
      010007EBH   BLOCK     CODE     NEAR LAB  LVL=1
      00000003H   SYMBOL    DATA     BYTE      bval
      0000005EH   SYMBOL    DATA     BYTE      digit_count
      ---         BLOCKEND  ---      ---       LVL=1
      010007EBH   LINE      CODE     ---       #759
      010007EBH   LINE      CODE     ---       #760
      010007EBH   LINE      CODE     ---       #764
LX51 LINKER/LOCATER V4.66.30.0                                                        01/24/2020  09:48:17  PAGE 46


      010007F0H   LINE      CODE     ---       #766
      010007F5H   LINE      CODE     ---       #768
      010007FCH   LINE      CODE     ---       #769
      010007FCH   LINE      CODE     ---       #770
      01000805H   LINE      CODE     ---       #772
      01000809H   LINE      CODE     ---       #773
      0100080CH   LINE      CODE     ---       #774
      0100080FH   LINE      CODE     ---       #775
      01000812H   LINE      CODE     ---       #776
      01000815H   LINE      CODE     ---       #777
      01000818H   LINE      CODE     ---       #778
      0100081BH   LINE      CODE     ---       #779
      0100081EH   LINE      CODE     ---       #781
      01000821H   LINE      CODE     ---       #782
      01000828H   LINE      CODE     ---       #783
      01000830H   LINE      CODE     ---       #785
      01000832H   LINE      CODE     ---       #786
      01000832H   LINE      CODE     ---       #787
      01000843H   LINE      CODE     ---       #790
      01000843H   LINE      CODE     ---       #793
      01000846H   LINE      CODE     ---       #794
      0100084DH   LINE      CODE     ---       #796
      0100084FH   LINE      CODE     ---       #799
      01000851H   LINE      CODE     ---       #800
      01000851H   LINE      CODE     ---       #801
      01000856H   LINE      CODE     ---       #802
      01000856H   LINE      CODE     ---       #804
      01000859H   LINE      CODE     ---       #805
      0100085BH   LINE      CODE     ---       #806
      0100085BH   LINE      CODE     ---       #807
      01000860H   LINE      CODE     ---       #808
      01000860H   LINE      CODE     ---       #810
      01000863H   LINE      CODE     ---       #811
      01000866H   LINE      CODE     ---       #812
      0100086EH   LINE      CODE     ---       #815
      01000870H   LINE      CODE     ---       #816
      01000872H   LINE      CODE     ---       #817
      01000872H   LINE      CODE     ---       #818
      01000879H   LINE      CODE     ---       #819
      01000879H   LINE      CODE     ---       #820
      0100087DH   LINE      CODE     ---       #821
      0100087FH   LINE      CODE     ---       #823
      01000889H   LINE      CODE     ---       #824
      01000889H   LINE      CODE     ---       #825
      0100088BH   LINE      CODE     ---       #827
      01000891H   LINE      CODE     ---       #828
      01000897H   LINE      CODE     ---       #829
      01000897H   LINE      CODE     ---       #830
      010008AAH   LINE      CODE     ---       #831
      010008AAH   LINE      CODE     ---       #833
      010008AAH   LINE      CODE     ---       #834
      010008AAH   LINE      CODE     ---       #835
      010008AAH   LINE      CODE     ---       #836
      010008AEH   LINE      CODE     ---       #838
      010008B1H   LINE      CODE     ---       #839
      010008B1H   LINE      CODE     ---       #840
      010008B8H   LINE      CODE     ---       #841
      010008B8H   LINE      CODE     ---       #842
      010008BEH   LINE      CODE     ---       #843
      010008BEH   LINE      CODE     ---       #844
      010008BEH   LINE      CODE     ---       #845
      010008C0H   LINE      CODE     ---       #846
LX51 LINKER/LOCATER V4.66.30.0                                                        01/24/2020  09:48:17  PAGE 47


      010008C0H   LINE      CODE     ---       #849
      010008CBH   LINE      CODE     ---       #850
      010008CDH   LINE      CODE     ---       #852
      010008CDH   LINE      CODE     ---       #853
      010008D4H   LINE      CODE     ---       #854
      010008D4H   LINE      CODE     ---       #855
      010008D7H   LINE      CODE     ---       #856
      010008D8H   LINE      CODE     ---       #857
      010008D8H   LINE      CODE     ---       #859
      010008E5H   LINE      CODE     ---       #861
      010008E5H   LINE      CODE     ---       #862
      010008E5H   LINE      CODE     ---       #864
      010008E8H   LINE      CODE     ---       #865
      010008EBH   LINE      CODE     ---       #866
      010008EBH   LINE      CODE     ---       #867
      010008F2H   LINE      CODE     ---       #868
      010008F2H   LINE      CODE     ---       #869
      010008F5H   LINE      CODE     ---       #871
      010008F8H   LINE      CODE     ---       #872
      010008F8H   LINE      CODE     ---       #873
      010008FAH   LINE      CODE     ---       #874
      01000901H   LINE      CODE     ---       #875
      01000901H   LINE      CODE     ---       #876
      01000908H   LINE      CODE     ---       #877
      01000908H   LINE      CODE     ---       #878
      01000912H   LINE      CODE     ---       #879
      01000914H   LINE      CODE     ---       #880
      01000914H   LINE      CODE     ---       #881
      01000914H   LINE      CODE     ---       #882
      01000916H   LINE      CODE     ---       #884
      01000916H   LINE      CODE     ---       #885
      01000923H   LINE      CODE     ---       #887
      01000923H   LINE      CODE     ---       #888
      0100092CH   LINE      CODE     ---       #889
      0100092FH   LINE      CODE     ---       #890
      01000931H   LINE      CODE     ---       #891
      01000931H   LINE      CODE     ---       #892
      01000931H   LINE      CODE     ---       #893
      01000931H   LINE      CODE     ---       #895
      01000934H   LINE      CODE     ---       #896
      01000934H   LINE      CODE     ---       #897
      0100093CH   LINE      CODE     ---       #898
      0100093CH   LINE      CODE     ---       #900
      0100093FH   LINE      CODE     ---       #901
      0100093FH   LINE      CODE     ---       #902
      01000946H   LINE      CODE     ---       #903
      01000946H   LINE      CODE     ---       #904
      01000949H   LINE      CODE     ---       #905
      01000955H   LINE      CODE     ---       #907
      01000958H   LINE      CODE     ---       #908
      01000958H   LINE      CODE     ---       #909
      01000965H   LINE      CODE     ---       #910
      01000965H   LINE      CODE     ---       #912
      01000968H   LINE      CODE     ---       #913
      01000968H   LINE      CODE     ---       #981
      0100096BH   LINE      CODE     ---       #982
      0100096CH   LINE      CODE     ---       #983
      ---         BLOCKEND  ---      ---       LVL=0

      01001144H   BLOCK     CODE     ---       LVL=0
      01001144H   LINE      CODE     ---       #1003
      01001144H   LINE      CODE     ---       #1004
LX51 LINKER/LOCATER V4.66.30.0                                                        01/24/2020  09:48:17  PAGE 48


      01001144H   LINE      CODE     ---       #1005
      0100114BH   LINE      CODE     ---       #1006
      0100114BH   LINE      CODE     ---       #1007
      01001152H   LINE      CODE     ---       #1008
      01001152H   LINE      CODE     ---       #1009
      0100115CH   LINE      CODE     ---       #1012
      01001165H   LINE      CODE     ---       #1013
      01001170H   LINE      CODE     ---       #1016
      01001179H   LINE      CODE     ---       #1017
      01001182H   LINE      CODE     ---       #1018
      01001182H   LINE      CODE     ---       #1019
      01001184H   LINE      CODE     ---       #1020
      01001185H   LINE      CODE     ---       #1021
      0100118CH   LINE      CODE     ---       #1022
      0100118CH   LINE      CODE     ---       #1024
      0100118FH   LINE      CODE     ---       #1025
      01001190H   LINE      CODE     ---       #1026
      01001197H   LINE      CODE     ---       #1027
      01001197H   LINE      CODE     ---       #1028
      0100119EH   LINE      CODE     ---       #1029
      0100119EH   LINE      CODE     ---       #1030
      010011A7H   LINE      CODE     ---       #1033
      010011B0H   LINE      CODE     ---       #1034
      010011BBH   LINE      CODE     ---       #1037
      010011C4H   LINE      CODE     ---       #1038
      010011CDH   LINE      CODE     ---       #1041
      010011D6H   LINE      CODE     ---       #1042
      010011E0H   LINE      CODE     ---       #1043
      010011E0H   LINE      CODE     ---       #1044
      010011E4H   LINE      CODE     ---       #1045
      010011E5H   LINE      CODE     ---       #1047
      010011E5H   LINE      CODE     ---       #1049
      010011E8H   LINE      CODE     ---       #1050
      010011E8H   LINE      CODE     ---       #1051
      ---         BLOCKEND  ---      ---       LVL=0

      01001CBBH   BLOCK     CODE     ---       LVL=0
      00000006H   SYMBOL    DATA     WORD      value
      01001CBBH   BLOCK     CODE     NEAR LAB  LVL=1
      00000007H   SYMBOL    DATA     BYTE      idx
      ---         BLOCKEND  ---      ---       LVL=1
      01001CBBH   LINE      CODE     ---       #1069
      01001CBBH   LINE      CODE     ---       #1070
      01001CBBH   LINE      CODE     ---       #1074
      01001CC1H   LINE      CODE     ---       #1076
      01001CC5H   LINE      CODE     ---       #1077
      01001CC5H   LINE      CODE     ---       #1078
      01001CD1H   LINE      CODE     ---       #1079
      01001CD4H   LINE      CODE     ---       #1080
      ---         BLOCKEND  ---      ---       LVL=0

      ---         MODULE    ---      ---       MCP_REGISTERS
      0000004EH   PUBLIC    DATA     ---       MCP_reg16_status_update_map
      02000020H   PUBLIC    XDATA    ---       MCP_8_bit_registers
      0000004CH   PUBLIC    DATA     WORD      MCP_reg8_status_update_map
      00000048H   PUBLIC    DATA     ---       MCP_reg16_dirty_bit_map
      00000046H   PUBLIC    DATA     WORD      MCP_reg8_dirty_bit_map
      02000000H   PUBLIC    XDATA    ---       MCP_16_bit_registers
      01001E9BH   PUBLIC    CONST    ---       MCP_reg16_access_type
      01001E99H   PUBLIC    CONST    WORD      MCP_reg8_access_type
      01001903H   PUBLIC    CODE     ---       _MCP_is_16bit_status_update_enabled
      01001A50H   PUBLIC    CODE     ---       _MCP_is_8bit_status_update_enabled
LX51 LINKER/LOCATER V4.66.30.0                                                        01/24/2020  09:48:17  PAGE 49


      00000021H.3 PUBLIC    BIT      BIT       ?_MCP_status_update_register?BIT
      0100149CH   PUBLIC    CODE     ---       _MCP_status_update_register
      01001C9BH   PUBLIC    CODE     ---       _MCP_get_16bit_register
      01001DE7H   PUBLIC    CODE     ---       _MCP_get_8bit_register
      00000021H.4 PUBLIC    BIT      BIT       ?_MCP_set_16bit_register?BIT
      0100150FH   PUBLIC    CODE     ---       _MCP_set_16bit_register
      00000021H.4 PUBLIC    BIT      BIT       ?_MCP_set_8bit_register?BIT
      01001802H   PUBLIC    CODE     ---       _MCP_set_8bit_register
      0100141FH   PUBLIC    CODE     ---       MCP_init_registers
      000000A2H   SFRSYM    DATA     BYTE      SPI0CKR
      00000080H   SFRSYM    DATA     BYTE      P0
      000000D0H.2 SFRSYM    DATA     BIT       PSW_OV
      00000090H   SFRSYM    DATA     BYTE      P1
      00000097H   SFRSYM    DATA     BYTE      WDTCN
      000000A0H   SFRSYM    DATA     BYTE      P2
      000000BCH   SFRSYM    DATA     BYTE      ADC0CF
      000000C8H   SFRSYM    DATA     BIT       TMR2CN0_T2XCLK
      000000C0H.7 SFRSYM    DATA     BIT       SMB0CN0_MASTER
      000000F9H   SFRSYM    DATA     WORD      PCA0
      000000E6H   SFRSYM    DATA     BYTE      EIE1
      000000C0H.1 SFRSYM    DATA     BIT       SMB0CN0_ACK
      0000008FH   SFRSYM    DATA     BYTE      PSCTL
      000000E4H   SFRSYM    DATA     BYTE      IT01CF
      000000C0H.6 SFRSYM    DATA     BIT       SMB0CN0_TXMODE
      000000ADH   SFRSYM    DATA     BYTE      DERIVID
      000000A4H   SFRSYM    DATA     BYTE      P0MDOUT
      000000A5H   SFRSYM    DATA     BYTE      P1MDOUT
      000000E8H.5 SFRSYM    DATA     BIT       ADC0CN0_ADINT
      000000CBH   SFRSYM    DATA     BYTE      TMR2RLH
      000000A6H   SFRSYM    DATA     BYTE      P2MDOUT
      000000A8H   SFRSYM    DATA     BYTE      IE
      00000093H   SFRSYM    DATA     BYTE      TMR3RLH
      000000F3H   SFRSYM    DATA     BYTE      EIP1
      00000098H.2 SFRSYM    DATA     BIT       SCON0_RB8
      000000CAH   SFRSYM    DATA     BYTE      TMR2RLL
      000000FCH   SFRSYM    DATA     BYTE      PCA0CPH0
      00000092H   SFRSYM    DATA     BYTE      TMR3RLL
      000000EAH   SFRSYM    DATA     BYTE      PCA0CPH1
      00000098H.3 SFRSYM    DATA     BIT       SCON0_TB8
      000000F0H   SFRSYM    DATA     BIT       B_B0
      00000082H   SFRSYM    DATA     WORD      DP
      000000ECH   SFRSYM    DATA     BYTE      PCA0CPH2
      00000080H.2 SFRSYM    DATA     BIT       BTN0
      000000F0H.1 SFRSYM    DATA     BIT       B_B1
      000000C3H   SFRSYM    DATA     WORD      ADC0GT
      00000090H.1 SFRSYM    DATA     BIT       BTN1
      000000F0H.2 SFRSYM    DATA     BIT       B_B2
      000000FBH   SFRSYM    DATA     BYTE      PCA0CPL0
      000000F0H.3 SFRSYM    DATA     BIT       B_B3
      000000D9H   SFRSYM    DATA     BYTE      PCA0MD
      000000DAH   SFRSYM    DATA     BYTE      PCA0CPM0
      000000E9H   SFRSYM    DATA     BYTE      PCA0CPL1
      000000F0H.4 SFRSYM    DATA     BIT       B_B4
      000000DBH   SFRSYM    DATA     BYTE      PCA0CPM1
      000000EBH   SFRSYM    DATA     BYTE      PCA0CPL2
      000000F0H.5 SFRSYM    DATA     BIT       B_B5
      000000DCH   SFRSYM    DATA     BYTE      PCA0CPM2
      000000B8H   SFRSYM    DATA     BYTE      IP
      000000B9H   SFRSYM    DATA     BYTE      ADC0TK
      000000F0H.6 SFRSYM    DATA     BIT       B_B6
      000000C5H   SFRSYM    DATA     WORD      ADC0LT
      00000098H.5 SFRSYM    DATA     BIT       SCON0_MCE
LX51 LINKER/LOCATER V4.66.30.0                                                        01/24/2020  09:48:17  PAGE 50


      000000F0H.7 SFRSYM    DATA     BIT       B_B7
      000000E1H   SFRSYM    DATA     BYTE      XBR0
      000000C1H   SFRSYM    DATA     BYTE      SMB0CF
      000000E2H   SFRSYM    DATA     BYTE      XBR1
      000000C0H.5 SFRSYM    DATA     BIT       SMB0CN0_STA
      000000E3H   SFRSYM    DATA     BYTE      XBR2
      000000BBH   SFRSYM    DATA     BYTE      ADC0MX
      000000E0H   SFRSYM    DATA     BIT       ACC_ACC0
      000000D1H   SFRSYM    DATA     BYTE      REF0CN
      0000008EH   SFRSYM    DATA     BYTE      CKCON0
      000000E0H.1 SFRSYM    DATA     BIT       ACC_ACC1
      000000C9H   SFRSYM    DATA     BYTE      REG0CN
      000000DDH   SFRSYM    DATA     BYTE      CRC0IN
      000000C8H.2 SFRSYM    DATA     BIT       TMR2CN0_TR2
      000000E0H.2 SFRSYM    DATA     BIT       ACC_ACC2
      000000E0H.3 SFRSYM    DATA     BIT       ACC_ACC3
      00000081H   SFRSYM    DATA     BYTE      SP
      0000009DH   SFRSYM    DATA     BYTE      CMP0MD
      000000E0H.4 SFRSYM    DATA     BIT       ACC_ACC4
      000000B1H   SFRSYM    DATA     BYTE      LFO0CN
      000000ABH   SFRSYM    DATA     BYTE      CMP1MD
      000000D8H   SFRSYM    DATA     BIT       PCA0CN0_CCF0
      000000E0H.5 SFRSYM    DATA     BIT       ACC_ACC5
      000000D8H.1 SFRSYM    DATA     BIT       PCA0CN0_CCF1
      000000E0H.6 SFRSYM    DATA     BIT       ACC_ACC6
      000000CCH   SFRSYM    DATA     WORD      TMR2
      000000D8H.2 SFRSYM    DATA     BIT       PCA0CN0_CCF2
      000000E0H.7 SFRSYM    DATA     BIT       ACC_ACC7
      00000094H   SFRSYM    DATA     WORD      TMR3
      000000C0H.3 SFRSYM    DATA     BIT       SMB0CN0_ACKRQ
      000000FFH   SFRSYM    DATA     BYTE      VDM0CN
      000000F1H   SFRSYM    DATA     BYTE      P0MDIN
      00000098H.4 SFRSYM    DATA     BIT       SCON0_REN
      000000ACH   SFRSYM    DATA     BYTE      SMB0TC
      000000F2H   SFRSYM    DATA     BYTE      P1MDIN
      000000C0H.4 SFRSYM    DATA     BIT       SMB0CN0_STO
      000000FEH   SFRSYM    DATA     BYTE      P0MASK
      000000EEH   SFRSYM    DATA     BYTE      P1MASK
      000000D0H.3 SFRSYM    DATA     BIT       PSW_RS0
      000000D8H.7 SFRSYM    DATA     BIT       PCA0CN0_CF
      0000009EH   SFRSYM    DATA     BYTE      PCA0CENT
      000000F8H.4 SFRSYM    DATA     BIT       SPI0CN0_RXOVRN
      000000D0H.4 SFRSYM    DATA     BIT       PSW_RS1
      000000E8H.7 SFRSYM    DATA     BIT       ADC0CN0_ADEN
      00000089H   SFRSYM    DATA     BYTE      TMOD
      00000088H   SFRSYM    DATA     BYTE      TCON
      000000CFH   SFRSYM    DATA     BYTE      CRC0FLIP
      000000D0H   SFRSYM    DATA     BIT       PSW_PARITY
      000000A8H.4 SFRSYM    DATA     BIT       IE_ES0
      0000009FH   SFRSYM    DATA     BYTE      CMP0MX
      000000A8H.1 SFRSYM    DATA     BIT       IE_ET0
      000000AAH   SFRSYM    DATA     BYTE      CMP1MX
      000000A8H.3 SFRSYM    DATA     BIT       IE_ET1
      000000D4H   SFRSYM    DATA     BYTE      P0SKIP
      000000A8H.5 SFRSYM    DATA     BIT       IE_ET2
      000000D5H   SFRSYM    DATA     BYTE      P1SKIP
      000000E8H   SFRSYM    DATA     BYTE      ADC0CN0
      000000A8H   SFRSYM    DATA     BIT       IE_EX0
      000000B2H   SFRSYM    DATA     BYTE      ADC0CN1
      000000D8H.6 SFRSYM    DATA     BIT       PCA0CN0_CR
      000000A8H.2 SFRSYM    DATA     BIT       IE_EX1
      00000098H.7 SFRSYM    DATA     BIT       SCON0_SMODE
LX51 LINKER/LOCATER V4.66.30.0                                                        01/24/2020  09:48:17  PAGE 51


      000000B5H   SFRSYM    DATA     BYTE      DEVICEID
      000000A9H   SFRSYM    DATA     BYTE      CLKSEL
      000000F8H   SFRSYM    DATA     BIT       SPI0CN0_SPIEN
      000000F0H   SFRSYM    DATA     BYTE      B
      000000BEH   SFRSYM    DATA     BYTE      ADC0H
      000000D2H   SFRSYM    DATA     BYTE      CRC0AUTO
      000000E8H.6 SFRSYM    DATA     BIT       ADC0CN0_ADBMEN
      000000CAH   SFRSYM    DATA     WORD      TMR2RL
      000000BDH   SFRSYM    DATA     BYTE      ADC0L
      00000092H   SFRSYM    DATA     WORD      TMR3RL
      000000D8H   SFRSYM    DATA     BYTE      PCA0CN0
      000000E0H   SFRSYM    DATA     BYTE      ACC
      000000FBH   SFRSYM    DATA     WORD      PCA0CP0
      000000E9H   SFRSYM    DATA     WORD      PCA0CP1
      000000EBH   SFRSYM    DATA     WORD      PCA0CP2
      000000CEH   SFRSYM    DATA     BYTE      CRC0CN0
      00000090H.4 SFRSYM    DATA     BIT       BSP_LED0
      0000008CH   SFRSYM    DATA     BYTE      TH0
      000000B8H.4 SFRSYM    DATA     BIT       IP_PS0
      0000008DH   SFRSYM    DATA     BYTE      TH1
      000000FAH   SFRSYM    DATA     BYTE      PCA0H
      000000B8H.1 SFRSYM    DATA     BIT       IP_PT0
      000000B8H.3 SFRSYM    DATA     BIT       IP_PT1
      000000C0H.2 SFRSYM    DATA     BIT       SMB0CN0_ARBLOST
      000000B8H.5 SFRSYM    DATA     BIT       IP_PT2
      0000008AH   SFRSYM    DATA     BYTE      TL0
      000000F8H.1 SFRSYM    DATA     BIT       SPI0CN0_TXBMT
      000000D0H.5 SFRSYM    DATA     BIT       PSW_F0
      000000A8H.6 SFRSYM    DATA     BIT       IE_ESPI0
      0000008BH   SFRSYM    DATA     BYTE      TL1
      000000F9H   SFRSYM    DATA     BYTE      PCA0L
      000000C0H   SFRSYM    DATA     BIT       SMB0CN0_SI
      000000D0H.1 SFRSYM    DATA     BIT       PSW_F1
      00000080H   SFRSYM    DATA     BIT       P0_B0
      000000B8H   SFRSYM    DATA     BIT       IP_PX0
      00000090H   SFRSYM    DATA     BIT       P1_B0
      00000080H.1 SFRSYM    DATA     BIT       P0_B1
      000000B8H.2 SFRSYM    DATA     BIT       IP_PX1
      0000009BH   SFRSYM    DATA     BYTE      CMP0CN0
      00000088H.1 SFRSYM    DATA     BIT       TCON_IE0
      000000A0H   SFRSYM    DATA     BIT       P2_B0
      00000090H.1 SFRSYM    DATA     BIT       P1_B1
      00000080H.2 SFRSYM    DATA     BIT       P0_B2
      000000BFH   SFRSYM    DATA     BYTE      CMP1CN0
      00000088H.3 SFRSYM    DATA     BIT       TCON_IE1
      000000A0H.1 SFRSYM    DATA     BIT       P2_B1
      00000090H.2 SFRSYM    DATA     BIT       P1_B2
      00000080H.3 SFRSYM    DATA     BIT       P0_B3
      000000C0H   SFRSYM    DATA     BYTE      SMB0CN0
      00000090H.3 SFRSYM    DATA     BIT       P1_B3
      00000080H.4 SFRSYM    DATA     BIT       P0_B4
      00000090H.4 SFRSYM    DATA     BIT       P1_B4
      00000080H.5 SFRSYM    DATA     BIT       P0_B5
      00000090H.5 SFRSYM    DATA     BIT       P1_B5
      00000080H.6 SFRSYM    DATA     BIT       P0_B6
      00000090H.6 SFRSYM    DATA     BIT       P1_B6
      00000080H.7 SFRSYM    DATA     BIT       P0_B7
      00000090H.7 SFRSYM    DATA     BIT       P1_B7
      00000080H.2 SFRSYM    DATA     BIT       BSP_BTN0
      00000083H   SFRSYM    DATA     BYTE      DPH
      000000C4H   SFRSYM    DATA     BYTE      ADC0GTH
      000000C8H.7 SFRSYM    DATA     BIT       TMR2CN0_TF2H
LX51 LINKER/LOCATER V4.66.30.0                                                        01/24/2020  09:48:17  PAGE 52


      000000C8H.3 SFRSYM    DATA     BIT       TMR2CN0_T2SPLIT
      000000D0H.6 SFRSYM    DATA     BIT       PSW_AC
      000000F8H   SFRSYM    DATA     BYTE      SPI0CN0
      000000C7H   SFRSYM    DATA     BYTE      HFO0CAL
      00000088H.5 SFRSYM    DATA     BIT       TCON_TF0
      00000098H   SFRSYM    DATA     BIT       SCON0_RI
      00000082H   SFRSYM    DATA     BYTE      DPL
      00000088H.7 SFRSYM    DATA     BIT       TCON_TF1
      00000099H   SFRSYM    DATA     BYTE      SBUF0
      00000087H   SFRSYM    DATA     BYTE      PCON0
      000000C3H   SFRSYM    DATA     BYTE      ADC0GTL
      000000C8H.6 SFRSYM    DATA     BIT       TMR2CN0_TF2L
      00000098H.1 SFRSYM    DATA     BIT       SCON0_TI
      000000E8H   SFRSYM    DATA     BIT       ADC0CN0_ADCM0
      000000C6H   SFRSYM    DATA     BYTE      ADC0LTH
      00000088H   SFRSYM    DATA     BIT       TCON_IT0
      000000E8H.1 SFRSYM    DATA     BIT       ADC0CN0_ADCM1
      000000EFH   SFRSYM    DATA     BYTE      RSTSRC
      000000FDH   SFRSYM    DATA     BYTE      P0MAT
      000000DEH   SFRSYM    DATA     BYTE      CRC0DAT
      00000088H.2 SFRSYM    DATA     BIT       TCON_IT1
      000000E8H.2 SFRSYM    DATA     BIT       ADC0CN0_ADCM2
      00000098H   SFRSYM    DATA     BYTE      SCON0
      000000F6H   SFRSYM    DATA     BYTE      PRTDRV
      000000EDH   SFRSYM    DATA     BYTE      P1MAT
      000000E8H.3 SFRSYM    DATA     BIT       ADC0CN0_ADWINT
      000000E8H.4 SFRSYM    DATA     BIT       ADC0CN0_ADBUSY
      000000D6H   SFRSYM    DATA     BYTE      SMB0ADM
      000000C5H   SFRSYM    DATA     BYTE      ADC0LTL
      000000F8H.5 SFRSYM    DATA     BIT       SPI0CN0_MODF
      000000B8H.6 SFRSYM    DATA     BIT       IP_PSPI0
      0000009CH   SFRSYM    DATA     BYTE      PCA0CLR
      000000C8H   SFRSYM    DATA     BYTE      TMR2CN0
      00000091H   SFRSYM    DATA     BYTE      TMR3CN0
      000000D7H   SFRSYM    DATA     BYTE      SMB0ADR
      00000088H.4 SFRSYM    DATA     BIT       TCON_TR0
      000000C8H.4 SFRSYM    DATA     BIT       TMR2CN0_TF2CEN
      00000088H.6 SFRSYM    DATA     BIT       TCON_TR1
      000000C2H   SFRSYM    DATA     BYTE      SMB0DAT
      000000CDH   SFRSYM    DATA     BYTE      TMR2H
      000000A1H   SFRSYM    DATA     BYTE      SPI0CFG
      00000095H   SFRSYM    DATA     BYTE      TMR3H
      000000D3H   SFRSYM    DATA     BYTE      CRC0CNT
      00000096H   SFRSYM    DATA     BYTE      PCA0POL
      000000CCH   SFRSYM    DATA     BYTE      TMR2L
      000000F8H.7 SFRSYM    DATA     BIT       SPI0CN0_SPIF
      00000094H   SFRSYM    DATA     BYTE      TMR3L
      000000DFH   SFRSYM    DATA     BYTE      ADC0PWR
      000000A8H.7 SFRSYM    DATA     BIT       IE_EA
      000000C8H.5 SFRSYM    DATA     BIT       TMR2CN0_TF2LEN
      000000F8H.6 SFRSYM    DATA     BIT       SPI0CN0_WCOL
      000000F8H.2 SFRSYM    DATA     BIT       SPI0CN0_NSSMD0
      000000D0H.7 SFRSYM    DATA     BIT       PSW_CY
      000000A3H   SFRSYM    DATA     BYTE      SPI0DAT
      000000F8H.3 SFRSYM    DATA     BIT       SPI0CN0_NSSMD1
      000000BDH   SFRSYM    DATA     WORD      ADC0
      000000D0H   SFRSYM    DATA     BYTE      PSW
      000000F7H   SFRSYM    DATA     BYTE      PCA0PWM
      000000B6H   SFRSYM    DATA     BYTE      REVID
      000000B7H   SFRSYM    DATA     BYTE      FLKEY
      000000B3H   SFRSYM    DATA     BYTE      ADC0AC
      01001CECH   SYMBOL    CODE     ---       _MCP_check_address
LX51 LINKER/LOCATER V4.66.30.0                                                        01/24/2020  09:48:17  PAGE 53



      0100141FH   BLOCK     CODE     ---       LVL=0
      0100141FH   LINE      CODE     ---       #198
      0100141FH   LINE      CODE     ---       #199
      0100141FH   LINE      CODE     ---       #201
      01001425H   LINE      CODE     ---       #202
      01001428H   LINE      CODE     ---       #203
      0100142AH   LINE      CODE     ---       #205
      0100142EH   LINE      CODE     ---       #210
      01001432H   LINE      CODE     ---       #211
      01001436H   LINE      CODE     ---       #213
      0100143AH   LINE      CODE     ---       #214
      0100143DH   LINE      CODE     ---       #215
      01001440H   LINE      CODE     ---       #218
      01001446H   LINE      CODE     ---       #219
      0100144CH   LINE      CODE     ---       #220
      01001452H   LINE      CODE     ---       #221
      01001458H   LINE      CODE     ---       #222
      0100145FH   LINE      CODE     ---       #225
      01001469H   LINE      CODE     ---       #226
      01001470H   LINE      CODE     ---       #227
      01001476H   LINE      CODE     ---       #228
      0100147EH   LINE      CODE     ---       #230
      01001487H   LINE      CODE     ---       #232
      01001491H   LINE      CODE     ---       #235
      0100149BH   LINE      CODE     ---       #236
      ---         BLOCKEND  ---      ---       LVL=0

      01001802H   BLOCK     CODE     ---       LVL=0
      00000004H   SYMBOL    DATA     BYTE      address
      00000005H   SYMBOL    DATA     BYTE      value
      00000021H.4 SYMBOL    BIT      BIT       external_access
      01001804H   BLOCK     CODE     NEAR LAB  LVL=1
      00000006H   SYMBOL    DATA     WORD      temp16
      ---         BLOCKEND  ---      ---       LVL=1
      01001802H   LINE      CODE     ---       #263
      01001804H   LINE      CODE     ---       #264
      01001804H   LINE      CODE     ---       #267
      0100180AH   LINE      CODE     ---       #268
      0100180AH   LINE      CODE     ---       #269
      0100180BH   LINE      CODE     ---       #270
      0100180BH   LINE      CODE     ---       #272
      0100181CH   LINE      CODE     ---       #274
      0100182DH   LINE      CODE     ---       #275
      0100182DH   LINE      CODE     ---       #276
      0100182FH   LINE      CODE     ---       #277
      0100182FH   LINE      CODE     ---       #279
      0100183BH   LINE      CODE     ---       #281
      01001841H   LINE      CODE     ---       #283
      01001842H   LINE      CODE     ---       #284
      ---         BLOCKEND  ---      ---       LVL=0

      0100150FH   BLOCK     CODE     ---       LVL=0
      00000007H   SYMBOL    DATA     BYTE      address
      00000060H   SYMBOL    DATA     WORD      value
      00000021H.4 SYMBOL    BIT      BIT       external_access
      01001513H   BLOCK     CODE     NEAR LAB  LVL=1
      00000021H.5 SYMBOL    BIT      BIT       int_status
      00000062H   SYMBOL    DATA     ---       ptr
      00000006H   SYMBOL    DATA     BYTE      byte_num
      00000007H   SYMBOL    DATA     BYTE      bit_mask
      ---         BLOCKEND  ---      ---       LVL=1
LX51 LINKER/LOCATER V4.66.30.0                                                        01/24/2020  09:48:17  PAGE 54


      0100150FH   LINE      CODE     ---       #312
      01001513H   LINE      CODE     ---       #313
      01001513H   LINE      CODE     ---       #320
      01001519H   LINE      CODE     ---       #321
      01001519H   LINE      CODE     ---       #322
      0100151AH   LINE      CODE     ---       #323
      0100151AH   LINE      CODE     ---       #325
      01001520H   LINE      CODE     ---       #327
      0100152FH   LINE      CODE     ---       #329
      01001538H   LINE      CODE     ---       #330
      01001548H   LINE      CODE     ---       #332
      01001553H   LINE      CODE     ---       #333
      01001553H   LINE      CODE     ---       #334
      01001555H   LINE      CODE     ---       #335
      01001555H   LINE      CODE     ---       #337
      0100155BH   LINE      CODE     ---       #339
      01001568H   LINE      CODE     ---       #341
      0100156CH   LINE      CODE     ---       #343
      01001573H   LINE      CODE     ---       #345
      01001574H   LINE      CODE     ---       #346
      ---         BLOCKEND  ---      ---       LVL=0
      00000007H   SYMBOL    DATA     BYTE      address
      00000005H   SYMBOL    DATA     BYTE      value
      00000007H   SYMBOL    DATA     BYTE      address
      00000004H   SYMBOL    DATA     WORD      value
      00000082H   SYMBOL    DATA     ---       ptr
      00000006H   SYMBOL    DATA     BYTE      byte_num
      00000007H   SYMBOL    DATA     BYTE      bit_mask

      01001DE7H   BLOCK     CODE     ---       LVL=0
      00000007H   SYMBOL    DATA     BYTE      address
      01001DE7H   LINE      CODE     ---       #427
      01001DE7H   LINE      CODE     ---       #428
      01001DE7H   LINE      CODE     ---       #429
      01001DF3H   LINE      CODE     ---       #430
      ---         BLOCKEND  ---      ---       LVL=0

      01001C9BH   BLOCK     CODE     ---       LVL=0
      00000007H   SYMBOL    DATA     BYTE      address
      01001C9BH   BLOCK     CODE     NEAR LAB  LVL=1
      00000021H.4 SYMBOL    BIT      BIT       int_status
      00000006H   SYMBOL    DATA     WORD      value
      00000082H   SYMBOL    DATA     ---       ptr
      ---         BLOCKEND  ---      ---       LVL=1
      01001C9BH   LINE      CODE     ---       #446
      01001C9BH   LINE      CODE     ---       #447
      01001C9BH   LINE      CODE     ---       #453
      01001CABH   LINE      CODE     ---       #455
      01001CB1H   LINE      CODE     ---       #457
      01001CB6H   LINE      CODE     ---       #459
      01001CBAH   LINE      CODE     ---       #461
      01001CBAH   LINE      CODE     ---       #462
      ---         BLOCKEND  ---      ---       LVL=0
      00000007H   SYMBOL    DATA     BYTE      address
      00000007H   SYMBOL    DATA     BYTE      address
      00000006H   SYMBOL    DATA     WORD      value
      00000082H   SYMBOL    DATA     ---       ptr

      0100149CH   BLOCK     CODE     ---       LVL=0
      0000005FH   SYMBOL    DATA     BYTE      address
      00000021H.3 SYMBOL    BIT      BIT       enable
      0100149EH   BLOCK     CODE     NEAR LAB  LVL=1
LX51 LINKER/LOCATER V4.66.30.0                                                        01/24/2020  09:48:17  PAGE 55


      00000006H   SYMBOL    DATA     WORD      temp16
      00000007H   SYMBOL    DATA     BYTE      byte_num
      00000006H   SYMBOL    DATA     BYTE      bit_mask
      ---         BLOCKEND  ---      ---       LVL=1
      0100149CH   LINE      CODE     ---       #536
      0100149EH   LINE      CODE     ---       #537
      0100149EH   LINE      CODE     ---       #542
      010014A3H   LINE      CODE     ---       #543
      010014A3H   LINE      CODE     ---       #544
      010014A4H   LINE      CODE     ---       #545
      010014A4H   LINE      CODE     ---       #547
      010014B5H   LINE      CODE     ---       #549
      010014BCH   LINE      CODE     ---       #550
      010014BCH   LINE      CODE     ---       #551
      010014C0H   LINE      CODE     ---       #552
      010014C0H   LINE      CODE     ---       #553
      010014C5H   LINE      CODE     ---       #555
      010014C7H   LINE      CODE     ---       #557
      010014C7H   LINE      CODE     ---       #558
      010014D2H   LINE      CODE     ---       #560
      010014D2H   LINE      CODE     ---       #561
      010014D4H   LINE      CODE     ---       #565
      010014DBH   LINE      CODE     ---       #566
      010014DBH   LINE      CODE     ---       #567
      010014E3H   LINE      CODE     ---       #569
      010014EBH   LINE      CODE     ---       #570
      010014FCH   LINE      CODE     ---       #572
      01001504H   LINE      CODE     ---       #573
      01001504H   LINE      CODE     ---       #574
      01001506H   LINE      CODE     ---       #576
      01001508H   LINE      CODE     ---       #578
      01001508H   LINE      CODE     ---       #579
      0100150DH   LINE      CODE     ---       #581
      0100150DH   LINE      CODE     ---       #582
      0100150DH   LINE      CODE     ---       #583
      0100150EH   LINE      CODE     ---       #584
      ---         BLOCKEND  ---      ---       LVL=0

      01001A50H   BLOCK     CODE     ---       LVL=0
      00000007H   SYMBOL    DATA     BYTE      address
      01001A50H   BLOCK     CODE     NEAR LAB  LVL=1
      00000006H   SYMBOL    DATA     WORD      temp16
      ---         BLOCKEND  ---      ---       LVL=1
      01001A50H   LINE      CODE     ---       #602
      01001A50H   LINE      CODE     ---       #603
      01001A50H   LINE      CODE     ---       #606
      01001A61H   LINE      CODE     ---       #608
      01001A75H   LINE      CODE     ---       #610
      01001A75H   LINE      CODE     ---       #611
      01001A81H   LINE      CODE     ---       #612
      01001A83H   LINE      CODE     ---       #613
      01001A83H   LINE      CODE     ---       #615
      01001A84H   LINE      CODE     ---       #616
      ---         BLOCKEND  ---      ---       LVL=0

      01001903H   BLOCK     CODE     ---       LVL=0
      00000007H   SYMBOL    DATA     BYTE      address
      01001903H   BLOCK     CODE     NEAR LAB  LVL=1
      00000006H   SYMBOL    DATA     BYTE      byte_num
      00000007H   SYMBOL    DATA     BYTE      bit_mask
      ---         BLOCKEND  ---      ---       LVL=1
      01001903H   LINE      CODE     ---       #634
LX51 LINKER/LOCATER V4.66.30.0                                                        01/24/2020  09:48:17  PAGE 56


      01001903H   LINE      CODE     ---       #635
      01001903H   LINE      CODE     ---       #639
      01001909H   LINE      CODE     ---       #641
      01001911H   LINE      CODE     ---       #642
      01001921H   LINE      CODE     ---       #644
      01001931H   LINE      CODE     ---       #646
      01001931H   LINE      CODE     ---       #647
      0100193BH   LINE      CODE     ---       #648
      0100193DH   LINE      CODE     ---       #649
      0100193DH   LINE      CODE     ---       #651
      0100193EH   LINE      CODE     ---       #652
      ---         BLOCKEND  ---      ---       LVL=0

      01001CECH   BLOCK     CODE     ---       LVL=0
      00000007H   SYMBOL    DATA     BYTE      address
      01001CECH   LINE      CODE     ---       #672
      01001CECH   LINE      CODE     ---       #673
      01001CECH   LINE      CODE     ---       #674
      01001CFEH   LINE      CODE     ---       #679
      01001CFEH   LINE      CODE     ---       #680
      01001D00H   LINE      CODE     ---       #681
      01001D00H   LINE      CODE     ---       #683
      01001D01H   LINE      CODE     ---       #684
      ---         BLOCKEND  ---      ---       LVL=0

      ---         MODULE    ---      ---       ?C_STARTUP
      01000000H   PUBLIC    CODE     NEAR LAB  ?C_STARTUP
      000000E0H   SFRSYM    DATA     BYTE      ACC
      000000F0H   SFRSYM    DATA     BYTE      B
      00000083H   SFRSYM    DATA     BYTE      DPH
      00000082H   SFRSYM    DATA     BYTE      DPL
      000000A0H   SFRSYM    DATA     BYTE      PPAGE_SFR
      00000081H   SFRSYM    DATA     BYTE      SP
      00000000H   SYMBOL    NUMBER   ---       IBPSTACK
      00000100H   SYMBOL    NUMBER   ---       IBPSTACKTOP
      00000080H   SYMBOL    NUMBER   ---       IDATALEN
      01001281H   SYMBOL    CODE     NEAR LAB  IDATALOOP
      00000000H   SYMBOL    NUMBER   ---       PBPSTACK
      00000100H   SYMBOL    NUMBER   ---       PBPSTACKTOP
      00000000H   SYMBOL    NUMBER   ---       PDATALEN
      00000000H   SYMBOL    NUMBER   ---       PDATASTART
      00000000H   SYMBOL    NUMBER   ---       PPAGE
      00000000H   SYMBOL    NUMBER   ---       PPAGEENABLE
      0100127BH   SYMBOL    CODE     NEAR LAB  STARTUP1
      00000000H   SYMBOL    NUMBER   ---       XBPSTACK
      00010000H   SYMBOL    NUMBER   ---       XBPSTACKTOP
      00000000H   SYMBOL    NUMBER   ---       XDATALEN
      00000000H   SYMBOL    NUMBER   ---       XDATASTART

      01000000H   BLOCK     CODE     NEAR LAB  LVL=0
      01000000H   LINE      CODE     ---       #126
      ---         BLOCKEND  ---      ---       LVL=0

      0100127BH   BLOCK     CODE     NEAR LAB  LVL=0
      0100127BH   LINE      CODE     ---       #134
      0100127EH   LINE      CODE     ---       #138
      01001280H   LINE      CODE     ---       #139
      01001281H   LINE      CODE     ---       #140
      01001282H   LINE      CODE     ---       #141
      01001284H   LINE      CODE     ---       #190
      01001287H   LINE      CODE     ---       #201
      ---         BLOCKEND  ---      ---       LVL=0
LX51 LINKER/LOCATER V4.66.30.0                                                        01/24/2020  09:48:17  PAGE 57



      ---         MODULE    ---      ---       UART_DRIVER
      0000006CH   PUBLIC    DATA     ---       UART_tx_buffer_tail
      0000006BH   PUBLIC    DATA     ---       UART_rx_buffer_tail
      00000083H   PUBLIC    IDATA    ---       UART_tx_buffer
      00000073H   PUBLIC    IDATA    ---       UART_rx_buffer
      0000006AH   PUBLIC    DATA     ---       UART_tx_buffer_head
      00000069H   PUBLIC    DATA     ---       UART_rx_buffer_head
      00000022H.5 PUBLIC    BIT      BIT       UART_tx_busy
      0100168FH   PUBLIC    CODE     ---       UART0_ISR
      01001D4FH   PUBLIC    CODE     ---       UART_get_tx_buffer_free_bytes
      01001B44H   PUBLIC    CODE     ---       _UART_receive_byte
      01001AE9H   PUBLIC    CODE     ---       _UART_send_byte
      01001DF4H   PUBLIC    CODE     ---       UART_init_buffers
      01001D3CH   PUBLIC    CODE     ---       UART_init
      000000A2H   SFRSYM    DATA     BYTE      SPI0CKR
      00000080H   SFRSYM    DATA     BYTE      P0
      000000D0H.2 SFRSYM    DATA     BIT       PSW_OV
      00000090H   SFRSYM    DATA     BYTE      P1
      00000097H   SFRSYM    DATA     BYTE      WDTCN
      000000A0H   SFRSYM    DATA     BYTE      P2
      000000BCH   SFRSYM    DATA     BYTE      ADC0CF
      000000C8H   SFRSYM    DATA     BIT       TMR2CN0_T2XCLK
      000000C0H.7 SFRSYM    DATA     BIT       SMB0CN0_MASTER
      000000F9H   SFRSYM    DATA     WORD      PCA0
      000000E6H   SFRSYM    DATA     BYTE      EIE1
      000000C0H.1 SFRSYM    DATA     BIT       SMB0CN0_ACK
      0000008FH   SFRSYM    DATA     BYTE      PSCTL
      000000E4H   SFRSYM    DATA     BYTE      IT01CF
      000000C0H.6 SFRSYM    DATA     BIT       SMB0CN0_TXMODE
      000000ADH   SFRSYM    DATA     BYTE      DERIVID
      000000A4H   SFRSYM    DATA     BYTE      P0MDOUT
      000000A5H   SFRSYM    DATA     BYTE      P1MDOUT
      000000E8H.5 SFRSYM    DATA     BIT       ADC0CN0_ADINT
      000000CBH   SFRSYM    DATA     BYTE      TMR2RLH
      000000A6H   SFRSYM    DATA     BYTE      P2MDOUT
      000000A8H   SFRSYM    DATA     BYTE      IE
      00000093H   SFRSYM    DATA     BYTE      TMR3RLH
      000000F3H   SFRSYM    DATA     BYTE      EIP1
      00000098H.2 SFRSYM    DATA     BIT       SCON0_RB8
      000000CAH   SFRSYM    DATA     BYTE      TMR2RLL
      000000FCH   SFRSYM    DATA     BYTE      PCA0CPH0
      00000092H   SFRSYM    DATA     BYTE      TMR3RLL
      000000EAH   SFRSYM    DATA     BYTE      PCA0CPH1
      00000098H.3 SFRSYM    DATA     BIT       SCON0_TB8
      000000F0H   SFRSYM    DATA     BIT       B_B0
      00000082H   SFRSYM    DATA     WORD      DP
      000000ECH   SFRSYM    DATA     BYTE      PCA0CPH2
      00000080H.2 SFRSYM    DATA     BIT       BTN0
      000000F0H.1 SFRSYM    DATA     BIT       B_B1
      000000C3H   SFRSYM    DATA     WORD      ADC0GT
      00000090H.1 SFRSYM    DATA     BIT       BTN1
      000000F0H.2 SFRSYM    DATA     BIT       B_B2
      000000FBH   SFRSYM    DATA     BYTE      PCA0CPL0
      000000F0H.3 SFRSYM    DATA     BIT       B_B3
      000000D9H   SFRSYM    DATA     BYTE      PCA0MD
      000000DAH   SFRSYM    DATA     BYTE      PCA0CPM0
      000000E9H   SFRSYM    DATA     BYTE      PCA0CPL1
      000000F0H.4 SFRSYM    DATA     BIT       B_B4
      000000DBH   SFRSYM    DATA     BYTE      PCA0CPM1
      000000EBH   SFRSYM    DATA     BYTE      PCA0CPL2
      000000F0H.5 SFRSYM    DATA     BIT       B_B5
LX51 LINKER/LOCATER V4.66.30.0                                                        01/24/2020  09:48:17  PAGE 58


      000000DCH   SFRSYM    DATA     BYTE      PCA0CPM2
      000000B8H   SFRSYM    DATA     BYTE      IP
      000000B9H   SFRSYM    DATA     BYTE      ADC0TK
      000000F0H.6 SFRSYM    DATA     BIT       B_B6
      000000C5H   SFRSYM    DATA     WORD      ADC0LT
      00000098H.5 SFRSYM    DATA     BIT       SCON0_MCE
      000000F0H.7 SFRSYM    DATA     BIT       B_B7
      000000E1H   SFRSYM    DATA     BYTE      XBR0
      000000C1H   SFRSYM    DATA     BYTE      SMB0CF
      000000E2H   SFRSYM    DATA     BYTE      XBR1
      000000C0H.5 SFRSYM    DATA     BIT       SMB0CN0_STA
      000000E3H   SFRSYM    DATA     BYTE      XBR2
      000000BBH   SFRSYM    DATA     BYTE      ADC0MX
      000000E0H   SFRSYM    DATA     BIT       ACC_ACC0
      000000D1H   SFRSYM    DATA     BYTE      REF0CN
      0000008EH   SFRSYM    DATA     BYTE      CKCON0
      000000E0H.1 SFRSYM    DATA     BIT       ACC_ACC1
      000000C9H   SFRSYM    DATA     BYTE      REG0CN
      000000DDH   SFRSYM    DATA     BYTE      CRC0IN
      000000C8H.2 SFRSYM    DATA     BIT       TMR2CN0_TR2
      000000E0H.2 SFRSYM    DATA     BIT       ACC_ACC2
      000000E0H.3 SFRSYM    DATA     BIT       ACC_ACC3
      00000081H   SFRSYM    DATA     BYTE      SP
      0000009DH   SFRSYM    DATA     BYTE      CMP0MD
      000000E0H.4 SFRSYM    DATA     BIT       ACC_ACC4
      000000B1H   SFRSYM    DATA     BYTE      LFO0CN
      000000ABH   SFRSYM    DATA     BYTE      CMP1MD
      000000D8H   SFRSYM    DATA     BIT       PCA0CN0_CCF0
      000000E0H.5 SFRSYM    DATA     BIT       ACC_ACC5
      000000D8H.1 SFRSYM    DATA     BIT       PCA0CN0_CCF1
      000000E0H.6 SFRSYM    DATA     BIT       ACC_ACC6
      000000CCH   SFRSYM    DATA     WORD      TMR2
      000000D8H.2 SFRSYM    DATA     BIT       PCA0CN0_CCF2
      000000E0H.7 SFRSYM    DATA     BIT       ACC_ACC7
      00000094H   SFRSYM    DATA     WORD      TMR3
      000000C0H.3 SFRSYM    DATA     BIT       SMB0CN0_ACKRQ
      000000FFH   SFRSYM    DATA     BYTE      VDM0CN
      000000F1H   SFRSYM    DATA     BYTE      P0MDIN
      00000098H.4 SFRSYM    DATA     BIT       SCON0_REN
      000000ACH   SFRSYM    DATA     BYTE      SMB0TC
      000000F2H   SFRSYM    DATA     BYTE      P1MDIN
      000000C0H.4 SFRSYM    DATA     BIT       SMB0CN0_STO
      000000FEH   SFRSYM    DATA     BYTE      P0MASK
      000000EEH   SFRSYM    DATA     BYTE      P1MASK
      000000D0H.3 SFRSYM    DATA     BIT       PSW_RS0
      000000D8H.7 SFRSYM    DATA     BIT       PCA0CN0_CF
      0000009EH   SFRSYM    DATA     BYTE      PCA0CENT
      000000F8H.4 SFRSYM    DATA     BIT       SPI0CN0_RXOVRN
      000000D0H.4 SFRSYM    DATA     BIT       PSW_RS1
      000000E8H.7 SFRSYM    DATA     BIT       ADC0CN0_ADEN
      00000089H   SFRSYM    DATA     BYTE      TMOD
      00000088H   SFRSYM    DATA     BYTE      TCON
      000000CFH   SFRSYM    DATA     BYTE      CRC0FLIP
      000000D0H   SFRSYM    DATA     BIT       PSW_PARITY
      000000A8H.4 SFRSYM    DATA     BIT       IE_ES0
      0000009FH   SFRSYM    DATA     BYTE      CMP0MX
      000000A8H.1 SFRSYM    DATA     BIT       IE_ET0
      000000AAH   SFRSYM    DATA     BYTE      CMP1MX
      000000A8H.3 SFRSYM    DATA     BIT       IE_ET1
      000000D4H   SFRSYM    DATA     BYTE      P0SKIP
      000000A8H.5 SFRSYM    DATA     BIT       IE_ET2
      000000D5H   SFRSYM    DATA     BYTE      P1SKIP
LX51 LINKER/LOCATER V4.66.30.0                                                        01/24/2020  09:48:17  PAGE 59


      000000E8H   SFRSYM    DATA     BYTE      ADC0CN0
      000000A8H   SFRSYM    DATA     BIT       IE_EX0
      000000B2H   SFRSYM    DATA     BYTE      ADC0CN1
      000000D8H.6 SFRSYM    DATA     BIT       PCA0CN0_CR
      000000A8H.2 SFRSYM    DATA     BIT       IE_EX1
      00000098H.7 SFRSYM    DATA     BIT       SCON0_SMODE
      000000B5H   SFRSYM    DATA     BYTE      DEVICEID
      000000A9H   SFRSYM    DATA     BYTE      CLKSEL
      000000F8H   SFRSYM    DATA     BIT       SPI0CN0_SPIEN
      000000F0H   SFRSYM    DATA     BYTE      B
      000000BEH   SFRSYM    DATA     BYTE      ADC0H
      000000D2H   SFRSYM    DATA     BYTE      CRC0AUTO
      000000E8H.6 SFRSYM    DATA     BIT       ADC0CN0_ADBMEN
      000000CAH   SFRSYM    DATA     WORD      TMR2RL
      000000BDH   SFRSYM    DATA     BYTE      ADC0L
      00000092H   SFRSYM    DATA     WORD      TMR3RL
      000000D8H   SFRSYM    DATA     BYTE      PCA0CN0
      000000E0H   SFRSYM    DATA     BYTE      ACC
      000000FBH   SFRSYM    DATA     WORD      PCA0CP0
      000000E9H   SFRSYM    DATA     WORD      PCA0CP1
      000000EBH   SFRSYM    DATA     WORD      PCA0CP2
      000000CEH   SFRSYM    DATA     BYTE      CRC0CN0
      00000090H.4 SFRSYM    DATA     BIT       BSP_LED0
      0000008CH   SFRSYM    DATA     BYTE      TH0
      000000B8H.4 SFRSYM    DATA     BIT       IP_PS0
      0000008DH   SFRSYM    DATA     BYTE      TH1
      000000FAH   SFRSYM    DATA     BYTE      PCA0H
      000000B8H.1 SFRSYM    DATA     BIT       IP_PT0
      000000B8H.3 SFRSYM    DATA     BIT       IP_PT1
      000000C0H.2 SFRSYM    DATA     BIT       SMB0CN0_ARBLOST
      000000B8H.5 SFRSYM    DATA     BIT       IP_PT2
      0000008AH   SFRSYM    DATA     BYTE      TL0
      000000F8H.1 SFRSYM    DATA     BIT       SPI0CN0_TXBMT
      000000D0H.5 SFRSYM    DATA     BIT       PSW_F0
      000000A8H.6 SFRSYM    DATA     BIT       IE_ESPI0
      0000008BH   SFRSYM    DATA     BYTE      TL1
      000000F9H   SFRSYM    DATA     BYTE      PCA0L
      000000C0H   SFRSYM    DATA     BIT       SMB0CN0_SI
      000000D0H.1 SFRSYM    DATA     BIT       PSW_F1
      00000080H   SFRSYM    DATA     BIT       P0_B0
      000000B8H   SFRSYM    DATA     BIT       IP_PX0
      00000090H   SFRSYM    DATA     BIT       P1_B0
      00000080H.1 SFRSYM    DATA     BIT       P0_B1
      000000B8H.2 SFRSYM    DATA     BIT       IP_PX1
      0000009BH   SFRSYM    DATA     BYTE      CMP0CN0
      00000088H.1 SFRSYM    DATA     BIT       TCON_IE0
      000000A0H   SFRSYM    DATA     BIT       P2_B0
      00000090H.1 SFRSYM    DATA     BIT       P1_B1
      00000080H.2 SFRSYM    DATA     BIT       P0_B2
      000000BFH   SFRSYM    DATA     BYTE      CMP1CN0
      00000088H.3 SFRSYM    DATA     BIT       TCON_IE1
      000000A0H.1 SFRSYM    DATA     BIT       P2_B1
      00000090H.2 SFRSYM    DATA     BIT       P1_B2
      00000080H.3 SFRSYM    DATA     BIT       P0_B3
      000000C0H   SFRSYM    DATA     BYTE      SMB0CN0
      00000090H.3 SFRSYM    DATA     BIT       P1_B3
      00000080H.4 SFRSYM    DATA     BIT       P0_B4
      00000090H.4 SFRSYM    DATA     BIT       P1_B4
      00000080H.5 SFRSYM    DATA     BIT       P0_B5
      00000090H.5 SFRSYM    DATA     BIT       P1_B5
      00000080H.6 SFRSYM    DATA     BIT       P0_B6
      00000090H.6 SFRSYM    DATA     BIT       P1_B6
LX51 LINKER/LOCATER V4.66.30.0                                                        01/24/2020  09:48:17  PAGE 60


      00000080H.7 SFRSYM    DATA     BIT       P0_B7
      00000090H.7 SFRSYM    DATA     BIT       P1_B7
      00000080H.2 SFRSYM    DATA     BIT       BSP_BTN0
      00000083H   SFRSYM    DATA     BYTE      DPH
      000000C4H   SFRSYM    DATA     BYTE      ADC0GTH
      000000C8H.7 SFRSYM    DATA     BIT       TMR2CN0_TF2H
      000000C8H.3 SFRSYM    DATA     BIT       TMR2CN0_T2SPLIT
      000000D0H.6 SFRSYM    DATA     BIT       PSW_AC
      000000F8H   SFRSYM    DATA     BYTE      SPI0CN0
      000000C7H   SFRSYM    DATA     BYTE      HFO0CAL
      00000088H.5 SFRSYM    DATA     BIT       TCON_TF0
      00000098H   SFRSYM    DATA     BIT       SCON0_RI
      00000082H   SFRSYM    DATA     BYTE      DPL
      00000088H.7 SFRSYM    DATA     BIT       TCON_TF1
      00000099H   SFRSYM    DATA     BYTE      SBUF0
      00000087H   SFRSYM    DATA     BYTE      PCON0
      000000C3H   SFRSYM    DATA     BYTE      ADC0GTL
      000000C8H.6 SFRSYM    DATA     BIT       TMR2CN0_TF2L
      00000098H.1 SFRSYM    DATA     BIT       SCON0_TI
      000000E8H   SFRSYM    DATA     BIT       ADC0CN0_ADCM0
      000000C6H   SFRSYM    DATA     BYTE      ADC0LTH
      00000088H   SFRSYM    DATA     BIT       TCON_IT0
      000000E8H.1 SFRSYM    DATA     BIT       ADC0CN0_ADCM1
      000000EFH   SFRSYM    DATA     BYTE      RSTSRC
      000000FDH   SFRSYM    DATA     BYTE      P0MAT
      000000DEH   SFRSYM    DATA     BYTE      CRC0DAT
      00000088H.2 SFRSYM    DATA     BIT       TCON_IT1
      000000E8H.2 SFRSYM    DATA     BIT       ADC0CN0_ADCM2
      00000098H   SFRSYM    DATA     BYTE      SCON0
      000000F6H   SFRSYM    DATA     BYTE      PRTDRV
      000000EDH   SFRSYM    DATA     BYTE      P1MAT
      000000E8H.3 SFRSYM    DATA     BIT       ADC0CN0_ADWINT
      000000E8H.4 SFRSYM    DATA     BIT       ADC0CN0_ADBUSY
      000000D6H   SFRSYM    DATA     BYTE      SMB0ADM
      000000C5H   SFRSYM    DATA     BYTE      ADC0LTL
      000000F8H.5 SFRSYM    DATA     BIT       SPI0CN0_MODF
      000000B8H.6 SFRSYM    DATA     BIT       IP_PSPI0
      0000009CH   SFRSYM    DATA     BYTE      PCA0CLR
      000000C8H   SFRSYM    DATA     BYTE      TMR2CN0
      00000091H   SFRSYM    DATA     BYTE      TMR3CN0
      000000D7H   SFRSYM    DATA     BYTE      SMB0ADR
      00000088H.4 SFRSYM    DATA     BIT       TCON_TR0
      000000C8H.4 SFRSYM    DATA     BIT       TMR2CN0_TF2CEN
      00000088H.6 SFRSYM    DATA     BIT       TCON_TR1
      000000C2H   SFRSYM    DATA     BYTE      SMB0DAT
      000000CDH   SFRSYM    DATA     BYTE      TMR2H
      000000A1H   SFRSYM    DATA     BYTE      SPI0CFG
      00000095H   SFRSYM    DATA     BYTE      TMR3H
      000000D3H   SFRSYM    DATA     BYTE      CRC0CNT
      00000096H   SFRSYM    DATA     BYTE      PCA0POL
      000000CCH   SFRSYM    DATA     BYTE      TMR2L
      000000F8H.7 SFRSYM    DATA     BIT       SPI0CN0_SPIF
      00000094H   SFRSYM    DATA     BYTE      TMR3L
      000000DFH   SFRSYM    DATA     BYTE      ADC0PWR
      000000A8H.7 SFRSYM    DATA     BIT       IE_EA
      000000C8H.5 SFRSYM    DATA     BIT       TMR2CN0_TF2LEN
      000000F8H.6 SFRSYM    DATA     BIT       SPI0CN0_WCOL
      000000F8H.2 SFRSYM    DATA     BIT       SPI0CN0_NSSMD0
      000000D0H.7 SFRSYM    DATA     BIT       PSW_CY
      000000A3H   SFRSYM    DATA     BYTE      SPI0DAT
      000000F8H.3 SFRSYM    DATA     BIT       SPI0CN0_NSSMD1
      000000BDH   SFRSYM    DATA     WORD      ADC0
LX51 LINKER/LOCATER V4.66.30.0                                                        01/24/2020  09:48:17  PAGE 61


      000000D0H   SFRSYM    DATA     BYTE      PSW
      000000F7H   SFRSYM    DATA     BYTE      PCA0PWM
      000000B6H   SFRSYM    DATA     BYTE      REVID
      000000B7H   SFRSYM    DATA     BYTE      FLKEY
      000000B3H   SFRSYM    DATA     BYTE      ADC0AC
      01001CD5H   SYMBOL    CODE     ---       UART_set_baud

      01001D3CH   BLOCK     CODE     ---       LVL=0
      01001D3CH   LINE      CODE     ---       #114
      01001D3CH   LINE      CODE     ---       #115
      01001D3CH   LINE      CODE     ---       #118
      01001D3FH   LINE      CODE     ---       #121
      01001D42H   LINE      CODE     ---       #124
      01001D45H   LINE      CODE     ---       #127
      01001D47H   LINE      CODE     ---       #130
      01001D4AH   LINE      CODE     ---       #133
      01001D4CH   LINE      CODE     ---       #136
      01001D4EH   LINE      CODE     ---       #137
      ---         BLOCKEND  ---      ---       LVL=0

      01001DF4H   BLOCK     CODE     ---       LVL=0
      01001DF4H   LINE      CODE     ---       #157
      01001DF4H   LINE      CODE     ---       #158
      01001DF4H   LINE      CODE     ---       #159
      01001DF7H   LINE      CODE     ---       #160
      01001DFAH   LINE      CODE     ---       #161
      01001DFDH   LINE      CODE     ---       #162
      01001E00H   LINE      CODE     ---       #163
      ---         BLOCKEND  ---      ---       LVL=0

      01001AE9H   BLOCK     CODE     ---       LVL=0
      00000007H   SYMBOL    DATA     BYTE      value
      01001AE9H   LINE      CODE     ---       #183
      01001AE9H   LINE      CODE     ---       #184
      01001AE9H   LINE      CODE     ---       #186
      01001AFAH   LINE      CODE     ---       #187
      01001AFAH   LINE      CODE     ---       #188
      01001AFDH   LINE      CODE     ---       #189
      01001AFDH   LINE      CODE     ---       #192
      01001B01H   LINE      CODE     ---       #194
      01001B03H   LINE      CODE     ---       #195
      01001B0DH   LINE      CODE     ---       #196
      01001B0FH   LINE      CODE     ---       #198
      01001B12H   LINE      CODE     ---       #199
      01001B12H   LINE      CODE     ---       #201
      01001B14H   LINE      CODE     ---       #202
      01001B14H   LINE      CODE     ---       #204
      01001B16H   LINE      CODE     ---       #205
      ---         BLOCKEND  ---      ---       LVL=0

      01001B44H   BLOCK     CODE     ---       LVL=0
      00000007H   SYMBOL    DATA     ---       value
      01001B44H   LINE      CODE     ---       #225
      01001B44H   LINE      CODE     ---       #226
      01001B44H   LINE      CODE     ---       #228
      01001B53H   LINE      CODE     ---       #229
      01001B53H   LINE      CODE     ---       #230
      01001B56H   LINE      CODE     ---       #231
      01001B56H   LINE      CODE     ---       #234
      01001B5CH   LINE      CODE     ---       #236
      01001B5EH   LINE      CODE     ---       #237
      01001B68H   LINE      CODE     ---       #238
LX51 LINKER/LOCATER V4.66.30.0                                                        01/24/2020  09:48:17  PAGE 62


      01001B6AH   LINE      CODE     ---       #240
      01001B6CH   LINE      CODE     ---       #241
      ---         BLOCKEND  ---      ---       LVL=0

      01001D4FH   BLOCK     CODE     ---       LVL=0
      01001D4FH   LINE      CODE     ---       #259
      01001D4FH   LINE      CODE     ---       #260
      01001D4FH   LINE      CODE     ---       #261
      01001D55H   LINE      CODE     ---       #262
      01001D55H   LINE      CODE     ---       #263
      01001D5EH   LINE      CODE     ---       #264
      01001D5EH   LINE      CODE     ---       #266
      01001D5EH   LINE      CODE     ---       #267
      01001D60H   LINE      CODE     ---       #268
      01001D60H   LINE      CODE     ---       #270
      ---         BLOCKEND  ---      ---       LVL=0

      0100168FH   BLOCK     CODE     ---       LVL=0
      0100168FH   LINE      CODE     ---       #283
      0100169AH   LINE      CODE     ---       #285
      0100169DH   LINE      CODE     ---       #286
      0100169DH   LINE      CODE     ---       #288
      0100169FH   LINE      CODE     ---       #309
      010016B0H   LINE      CODE     ---       #310
      010016B0H   LINE      CODE     ---       #311
      010016B4H   LINE      CODE     ---       #312
      010016BEH   LINE      CODE     ---       #313
      010016BEH   LINE      CODE     ---       #316
      010016BEH   LINE      CODE     ---       #319
      010016C1H   LINE      CODE     ---       #320
      010016C1H   LINE      CODE     ---       #322
      010016C3H   LINE      CODE     ---       #325
      010016C5H   LINE      CODE     ---       #327
      010016CBH   LINE      CODE     ---       #328
      010016CBH   LINE      CODE     ---       #332
      010016CDH   LINE      CODE     ---       #333
      010016D2H   LINE      CODE     ---       #334
      010016DCH   LINE      CODE     ---       #335
      010016DCH   LINE      CODE     ---       #336
      010016DCH   LINE      CODE     ---       #337
      ---         BLOCKEND  ---      ---       LVL=0

      01001CD5H   BLOCK     CODE     ---       LVL=0
      01001CD5H   LINE      CODE     ---       #359
      01001CD5H   LINE      CODE     ---       #360
      01001CD5H   LINE      CODE     ---       #362
      01001CD8H   LINE      CODE     ---       #363
      01001CDBH   LINE      CODE     ---       #368
      01001CDEH   LINE      CODE     ---       #369
      01001CE1H   LINE      CODE     ---       #370
      01001CE4H   LINE      CODE     ---       #384
      01001CE7H   LINE      CODE     ---       #392
      01001CE9H   LINE      CODE     ---       #393
      01001CEBH   LINE      CODE     ---       #394
      ---         BLOCKEND  ---      ---       LVL=0

      ---         MODULE    ---      ---       ADC
      02000083H   PUBLIC    XDATA    ---       adc_result
      00000071H   PUBLIC    DATA     BYTE      adc_flags
      01001E9FH   PUBLIC    CONST    ---       adc_mux
      010018C4H   PUBLIC    CODE     ---       ADC_task
      01001B6DH   PUBLIC    CODE     ---       ADC_initialize_adc
LX51 LINKER/LOCATER V4.66.30.0                                                        01/24/2020  09:48:17  PAGE 63


      000000A2H   SFRSYM    DATA     BYTE      SPI0CKR
      00000080H   SFRSYM    DATA     BYTE      P0
      000000D0H.2 SFRSYM    DATA     BIT       PSW_OV
      00000090H   SFRSYM    DATA     BYTE      P1
      00000097H   SFRSYM    DATA     BYTE      WDTCN
      000000A0H   SFRSYM    DATA     BYTE      P2
      000000BCH   SFRSYM    DATA     BYTE      ADC0CF
      000000C8H   SFRSYM    DATA     BIT       TMR2CN0_T2XCLK
      000000C0H.7 SFRSYM    DATA     BIT       SMB0CN0_MASTER
      000000F9H   SFRSYM    DATA     WORD      PCA0
      000000E6H   SFRSYM    DATA     BYTE      EIE1
      000000C0H.1 SFRSYM    DATA     BIT       SMB0CN0_ACK
      0000008FH   SFRSYM    DATA     BYTE      PSCTL
      000000E4H   SFRSYM    DATA     BYTE      IT01CF
      000000C0H.6 SFRSYM    DATA     BIT       SMB0CN0_TXMODE
      000000ADH   SFRSYM    DATA     BYTE      DERIVID
      000000A4H   SFRSYM    DATA     BYTE      P0MDOUT
      000000A5H   SFRSYM    DATA     BYTE      P1MDOUT
      000000E8H.5 SFRSYM    DATA     BIT       ADC0CN0_ADINT
      000000CBH   SFRSYM    DATA     BYTE      TMR2RLH
      000000A6H   SFRSYM    DATA     BYTE      P2MDOUT
      000000A8H   SFRSYM    DATA     BYTE      IE
      00000093H   SFRSYM    DATA     BYTE      TMR3RLH
      000000F3H   SFRSYM    DATA     BYTE      EIP1
      00000098H.2 SFRSYM    DATA     BIT       SCON0_RB8
      000000CAH   SFRSYM    DATA     BYTE      TMR2RLL
      000000FCH   SFRSYM    DATA     BYTE      PCA0CPH0
      00000092H   SFRSYM    DATA     BYTE      TMR3RLL
      000000EAH   SFRSYM    DATA     BYTE      PCA0CPH1
      00000098H.3 SFRSYM    DATA     BIT       SCON0_TB8
      000000F0H   SFRSYM    DATA     BIT       B_B0
      00000082H   SFRSYM    DATA     WORD      DP
      000000ECH   SFRSYM    DATA     BYTE      PCA0CPH2
      00000080H.2 SFRSYM    DATA     BIT       BTN0
      000000F0H.1 SFRSYM    DATA     BIT       B_B1
      000000C3H   SFRSYM    DATA     WORD      ADC0GT
      00000090H.1 SFRSYM    DATA     BIT       BTN1
      000000F0H.2 SFRSYM    DATA     BIT       B_B2
      000000FBH   SFRSYM    DATA     BYTE      PCA0CPL0
      000000F0H.3 SFRSYM    DATA     BIT       B_B3
      000000D9H   SFRSYM    DATA     BYTE      PCA0MD
      000000DAH   SFRSYM    DATA     BYTE      PCA0CPM0
      000000E9H   SFRSYM    DATA     BYTE      PCA0CPL1
      000000F0H.4 SFRSYM    DATA     BIT       B_B4
      000000DBH   SFRSYM    DATA     BYTE      PCA0CPM1
      000000EBH   SFRSYM    DATA     BYTE      PCA0CPL2
      000000F0H.5 SFRSYM    DATA     BIT       B_B5
      000000DCH   SFRSYM    DATA     BYTE      PCA0CPM2
      000000B8H   SFRSYM    DATA     BYTE      IP
      000000B9H   SFRSYM    DATA     BYTE      ADC0TK
      000000F0H.6 SFRSYM    DATA     BIT       B_B6
      000000C5H   SFRSYM    DATA     WORD      ADC0LT
      00000098H.5 SFRSYM    DATA     BIT       SCON0_MCE
      000000F0H.7 SFRSYM    DATA     BIT       B_B7
      000000E1H   SFRSYM    DATA     BYTE      XBR0
      000000C1H   SFRSYM    DATA     BYTE      SMB0CF
      000000E2H   SFRSYM    DATA     BYTE      XBR1
      000000C0H.5 SFRSYM    DATA     BIT       SMB0CN0_STA
      000000E3H   SFRSYM    DATA     BYTE      XBR2
      000000BBH   SFRSYM    DATA     BYTE      ADC0MX
      000000E0H   SFRSYM    DATA     BIT       ACC_ACC0
      000000D1H   SFRSYM    DATA     BYTE      REF0CN
LX51 LINKER/LOCATER V4.66.30.0                                                        01/24/2020  09:48:17  PAGE 64


      0000008EH   SFRSYM    DATA     BYTE      CKCON0
      000000E0H.1 SFRSYM    DATA     BIT       ACC_ACC1
      000000C9H   SFRSYM    DATA     BYTE      REG0CN
      000000DDH   SFRSYM    DATA     BYTE      CRC0IN
      000000C8H.2 SFRSYM    DATA     BIT       TMR2CN0_TR2
      000000E0H.2 SFRSYM    DATA     BIT       ACC_ACC2
      000000E0H.3 SFRSYM    DATA     BIT       ACC_ACC3
      00000081H   SFRSYM    DATA     BYTE      SP
      0000009DH   SFRSYM    DATA     BYTE      CMP0MD
      000000E0H.4 SFRSYM    DATA     BIT       ACC_ACC4
      000000B1H   SFRSYM    DATA     BYTE      LFO0CN
      000000ABH   SFRSYM    DATA     BYTE      CMP1MD
      000000D8H   SFRSYM    DATA     BIT       PCA0CN0_CCF0
      000000E0H.5 SFRSYM    DATA     BIT       ACC_ACC5
      000000D8H.1 SFRSYM    DATA     BIT       PCA0CN0_CCF1
      000000E0H.6 SFRSYM    DATA     BIT       ACC_ACC6
      000000CCH   SFRSYM    DATA     WORD      TMR2
      000000D8H.2 SFRSYM    DATA     BIT       PCA0CN0_CCF2
      000000E0H.7 SFRSYM    DATA     BIT       ACC_ACC7
      00000094H   SFRSYM    DATA     WORD      TMR3
      000000C0H.3 SFRSYM    DATA     BIT       SMB0CN0_ACKRQ
      000000FFH   SFRSYM    DATA     BYTE      VDM0CN
      000000F1H   SFRSYM    DATA     BYTE      P0MDIN
      00000098H.4 SFRSYM    DATA     BIT       SCON0_REN
      000000ACH   SFRSYM    DATA     BYTE      SMB0TC
      000000F2H   SFRSYM    DATA     BYTE      P1MDIN
      000000C0H.4 SFRSYM    DATA     BIT       SMB0CN0_STO
      000000FEH   SFRSYM    DATA     BYTE      P0MASK
      000000EEH   SFRSYM    DATA     BYTE      P1MASK
      000000D0H.3 SFRSYM    DATA     BIT       PSW_RS0
      000000D8H.7 SFRSYM    DATA     BIT       PCA0CN0_CF
      0000009EH   SFRSYM    DATA     BYTE      PCA0CENT
      000000F8H.4 SFRSYM    DATA     BIT       SPI0CN0_RXOVRN
      000000D0H.4 SFRSYM    DATA     BIT       PSW_RS1
      000000E8H.7 SFRSYM    DATA     BIT       ADC0CN0_ADEN
      00000089H   SFRSYM    DATA     BYTE      TMOD
      00000088H   SFRSYM    DATA     BYTE      TCON
      000000CFH   SFRSYM    DATA     BYTE      CRC0FLIP
      000000D0H   SFRSYM    DATA     BIT       PSW_PARITY
      000000A8H.4 SFRSYM    DATA     BIT       IE_ES0
      0000009FH   SFRSYM    DATA     BYTE      CMP0MX
      000000A8H.1 SFRSYM    DATA     BIT       IE_ET0
      000000AAH   SFRSYM    DATA     BYTE      CMP1MX
      000000A8H.3 SFRSYM    DATA     BIT       IE_ET1
      000000D4H   SFRSYM    DATA     BYTE      P0SKIP
      000000A8H.5 SFRSYM    DATA     BIT       IE_ET2
      000000D5H   SFRSYM    DATA     BYTE      P1SKIP
      000000E8H   SFRSYM    DATA     BYTE      ADC0CN0
      000000A8H   SFRSYM    DATA     BIT       IE_EX0
      000000B2H   SFRSYM    DATA     BYTE      ADC0CN1
      000000D8H.6 SFRSYM    DATA     BIT       PCA0CN0_CR
      000000A8H.2 SFRSYM    DATA     BIT       IE_EX1
      00000098H.7 SFRSYM    DATA     BIT       SCON0_SMODE
      000000B5H   SFRSYM    DATA     BYTE      DEVICEID
      000000A9H   SFRSYM    DATA     BYTE      CLKSEL
      000000F8H   SFRSYM    DATA     BIT       SPI0CN0_SPIEN
      000000F0H   SFRSYM    DATA     BYTE      B
      000000BEH   SFRSYM    DATA     BYTE      ADC0H
      000000D2H   SFRSYM    DATA     BYTE      CRC0AUTO
      000000E8H.6 SFRSYM    DATA     BIT       ADC0CN0_ADBMEN
      000000CAH   SFRSYM    DATA     WORD      TMR2RL
      000000BDH   SFRSYM    DATA     BYTE      ADC0L
LX51 LINKER/LOCATER V4.66.30.0                                                        01/24/2020  09:48:17  PAGE 65


      00000092H   SFRSYM    DATA     WORD      TMR3RL
      000000D8H   SFRSYM    DATA     BYTE      PCA0CN0
      000000E0H   SFRSYM    DATA     BYTE      ACC
      000000FBH   SFRSYM    DATA     WORD      PCA0CP0
      000000E9H   SFRSYM    DATA     WORD      PCA0CP1
      000000EBH   SFRSYM    DATA     WORD      PCA0CP2
      000000CEH   SFRSYM    DATA     BYTE      CRC0CN0
      00000090H.4 SFRSYM    DATA     BIT       BSP_LED0
      0000008CH   SFRSYM    DATA     BYTE      TH0
      000000B8H.4 SFRSYM    DATA     BIT       IP_PS0
      0000008DH   SFRSYM    DATA     BYTE      TH1
      000000FAH   SFRSYM    DATA     BYTE      PCA0H
      000000B8H.1 SFRSYM    DATA     BIT       IP_PT0
      000000B8H.3 SFRSYM    DATA     BIT       IP_PT1
      000000C0H.2 SFRSYM    DATA     BIT       SMB0CN0_ARBLOST
      000000B8H.5 SFRSYM    DATA     BIT       IP_PT2
      0000008AH   SFRSYM    DATA     BYTE      TL0
      000000F8H.1 SFRSYM    DATA     BIT       SPI0CN0_TXBMT
      000000D0H.5 SFRSYM    DATA     BIT       PSW_F0
      000000A8H.6 SFRSYM    DATA     BIT       IE_ESPI0
      0000008BH   SFRSYM    DATA     BYTE      TL1
      000000F9H   SFRSYM    DATA     BYTE      PCA0L
      000000C0H   SFRSYM    DATA     BIT       SMB0CN0_SI
      000000D0H.1 SFRSYM    DATA     BIT       PSW_F1
      00000080H   SFRSYM    DATA     BIT       P0_B0
      000000B8H   SFRSYM    DATA     BIT       IP_PX0
      00000090H   SFRSYM    DATA     BIT       P1_B0
      00000080H.1 SFRSYM    DATA     BIT       P0_B1
      000000B8H.2 SFRSYM    DATA     BIT       IP_PX1
      0000009BH   SFRSYM    DATA     BYTE      CMP0CN0
      00000088H.1 SFRSYM    DATA     BIT       TCON_IE0
      000000A0H   SFRSYM    DATA     BIT       P2_B0
      00000090H.1 SFRSYM    DATA     BIT       P1_B1
      00000080H.2 SFRSYM    DATA     BIT       P0_B2
      000000BFH   SFRSYM    DATA     BYTE      CMP1CN0
      00000088H.3 SFRSYM    DATA     BIT       TCON_IE1
      000000A0H.1 SFRSYM    DATA     BIT       P2_B1
      00000090H.2 SFRSYM    DATA     BIT       P1_B2
      00000080H.3 SFRSYM    DATA     BIT       P0_B3
      000000C0H   SFRSYM    DATA     BYTE      SMB0CN0
      00000090H.3 SFRSYM    DATA     BIT       P1_B3
      00000080H.4 SFRSYM    DATA     BIT       P0_B4
      00000090H.4 SFRSYM    DATA     BIT       P1_B4
      00000080H.5 SFRSYM    DATA     BIT       P0_B5
      00000090H.5 SFRSYM    DATA     BIT       P1_B5
      00000080H.6 SFRSYM    DATA     BIT       P0_B6
      00000090H.6 SFRSYM    DATA     BIT       P1_B6
      00000080H.7 SFRSYM    DATA     BIT       P0_B7
      00000090H.7 SFRSYM    DATA     BIT       P1_B7
      00000080H.2 SFRSYM    DATA     BIT       BSP_BTN0
      00000083H   SFRSYM    DATA     BYTE      DPH
      000000C4H   SFRSYM    DATA     BYTE      ADC0GTH
      000000C8H.7 SFRSYM    DATA     BIT       TMR2CN0_TF2H
      000000C8H.3 SFRSYM    DATA     BIT       TMR2CN0_T2SPLIT
      000000D0H.6 SFRSYM    DATA     BIT       PSW_AC
      000000F8H   SFRSYM    DATA     BYTE      SPI0CN0
      000000C7H   SFRSYM    DATA     BYTE      HFO0CAL
      00000088H.5 SFRSYM    DATA     BIT       TCON_TF0
      00000098H   SFRSYM    DATA     BIT       SCON0_RI
      00000082H   SFRSYM    DATA     BYTE      DPL
      00000088H.7 SFRSYM    DATA     BIT       TCON_TF1
      00000099H   SFRSYM    DATA     BYTE      SBUF0
LX51 LINKER/LOCATER V4.66.30.0                                                        01/24/2020  09:48:17  PAGE 66


      00000087H   SFRSYM    DATA     BYTE      PCON0
      000000C3H   SFRSYM    DATA     BYTE      ADC0GTL
      000000C8H.6 SFRSYM    DATA     BIT       TMR2CN0_TF2L
      00000098H.1 SFRSYM    DATA     BIT       SCON0_TI
      000000E8H   SFRSYM    DATA     BIT       ADC0CN0_ADCM0
      000000C6H   SFRSYM    DATA     BYTE      ADC0LTH
      00000088H   SFRSYM    DATA     BIT       TCON_IT0
      000000E8H.1 SFRSYM    DATA     BIT       ADC0CN0_ADCM1
      000000EFH   SFRSYM    DATA     BYTE      RSTSRC
      000000FDH   SFRSYM    DATA     BYTE      P0MAT
      000000DEH   SFRSYM    DATA     BYTE      CRC0DAT
      00000088H.2 SFRSYM    DATA     BIT       TCON_IT1
      000000E8H.2 SFRSYM    DATA     BIT       ADC0CN0_ADCM2
      00000098H   SFRSYM    DATA     BYTE      SCON0
      000000F6H   SFRSYM    DATA     BYTE      PRTDRV
      000000EDH   SFRSYM    DATA     BYTE      P1MAT
      000000E8H.3 SFRSYM    DATA     BIT       ADC0CN0_ADWINT
      000000E8H.4 SFRSYM    DATA     BIT       ADC0CN0_ADBUSY
      000000D6H   SFRSYM    DATA     BYTE      SMB0ADM
      000000C5H   SFRSYM    DATA     BYTE      ADC0LTL
      000000F8H.5 SFRSYM    DATA     BIT       SPI0CN0_MODF
      000000B8H.6 SFRSYM    DATA     BIT       IP_PSPI0
      0000009CH   SFRSYM    DATA     BYTE      PCA0CLR
      000000C8H   SFRSYM    DATA     BYTE      TMR2CN0
      00000091H   SFRSYM    DATA     BYTE      TMR3CN0
      000000D7H   SFRSYM    DATA     BYTE      SMB0ADR
      00000088H.4 SFRSYM    DATA     BIT       TCON_TR0
      000000C8H.4 SFRSYM    DATA     BIT       TMR2CN0_TF2CEN
      00000088H.6 SFRSYM    DATA     BIT       TCON_TR1
      000000C2H   SFRSYM    DATA     BYTE      SMB0DAT
      000000CDH   SFRSYM    DATA     BYTE      TMR2H
      000000A1H   SFRSYM    DATA     BYTE      SPI0CFG
      00000095H   SFRSYM    DATA     BYTE      TMR3H
      000000D3H   SFRSYM    DATA     BYTE      CRC0CNT
      00000096H   SFRSYM    DATA     BYTE      PCA0POL
      000000CCH   SFRSYM    DATA     BYTE      TMR2L
      000000F8H.7 SFRSYM    DATA     BIT       SPI0CN0_SPIF
      00000094H   SFRSYM    DATA     BYTE      TMR3L
      000000DFH   SFRSYM    DATA     BYTE      ADC0PWR
      000000A8H.7 SFRSYM    DATA     BIT       IE_EA
      000000C8H.5 SFRSYM    DATA     BIT       TMR2CN0_TF2LEN
      000000F8H.6 SFRSYM    DATA     BIT       SPI0CN0_WCOL
      000000F8H.2 SFRSYM    DATA     BIT       SPI0CN0_NSSMD0
      000000D0H.7 SFRSYM    DATA     BIT       PSW_CY
      000000A3H   SFRSYM    DATA     BYTE      SPI0DAT
      000000F8H.3 SFRSYM    DATA     BIT       SPI0CN0_NSSMD1
      000000BDH   SFRSYM    DATA     WORD      ADC0
      000000D0H   SFRSYM    DATA     BYTE      PSW
      000000F7H   SFRSYM    DATA     BYTE      PCA0PWM
      000000B6H   SFRSYM    DATA     BYTE      REVID
      000000B7H   SFRSYM    DATA     BYTE      FLKEY
      000000B3H   SFRSYM    DATA     BYTE      ADC0AC
      000000B1H   SYMBOL    IDATA    BYTE      adc_index

      01001B6DH   BLOCK     CODE     ---       LVL=0
      01001B6DH   LINE      CODE     ---       #75
      01001B6DH   LINE      CODE     ---       #76
      01001B6DH   LINE      CODE     ---       #78
      01001B70H   LINE      CODE     ---       #82
      01001B73H   LINE      CODE     ---       #86
      01001B76H   LINE      CODE     ---       #89
      01001B79H   LINE      CODE     ---       #92
LX51 LINKER/LOCATER V4.66.30.0                                                        01/24/2020  09:48:17  PAGE 67


      01001B7CH   LINE      CODE     ---       #95
      01001B7FH   LINE      CODE     ---       #99
      01001B82H   LINE      CODE     ---       #102
      01001B84H   LINE      CODE     ---       #103
      01001B88H   LINE      CODE     ---       #104
      01001B8FH   LINE      CODE     ---       #105
      01001B91H   LINE      CODE     ---       #106
      01001B94H   LINE      CODE     ---       #107
      ---         BLOCKEND  ---      ---       LVL=0

      010018C4H   BLOCK     CODE     ---       LVL=0
      010018C4H   LINE      CODE     ---       #121
      010018C4H   LINE      CODE     ---       #122
      010018C4H   LINE      CODE     ---       #123
      010018C7H   LINE      CODE     ---       #124
      010018C7H   LINE      CODE     ---       #125
      010018DDH   LINE      CODE     ---       #126
      010018DFH   LINE      CODE     ---       #128
      010018ECH   LINE      CODE     ---       #129
      010018EFH   LINE      CODE     ---       #130
      010018F5H   LINE      CODE     ---       #131
      010018F5H   LINE      CODE     ---       #132
      010018F7H   LINE      CODE     ---       #133
      010018F7H   LINE      CODE     ---       #134
      01001900H   LINE      CODE     ---       #136
      01001902H   LINE      CODE     ---       #137
      01001902H   LINE      CODE     ---       #138
      ---         BLOCKEND  ---      ---       LVL=0

      ---         MODULE    ---      ---       BTN
      00000072H   PUBLIC    DATA     BYTE      btn_released_time
      01001ABAH   PUBLIC    CODE     ---       btn_process
      01001C7AH   PUBLIC    CODE     ---       is_btn1_pressed
      000000A2H   SFRSYM    DATA     BYTE      SPI0CKR
      00000080H   SFRSYM    DATA     BYTE      P0
      000000D0H.2 SFRSYM    DATA     BIT       PSW_OV
      00000090H   SFRSYM    DATA     BYTE      P1
      00000097H   SFRSYM    DATA     BYTE      WDTCN
      000000A0H   SFRSYM    DATA     BYTE      P2
      000000BCH   SFRSYM    DATA     BYTE      ADC0CF
      000000C8H   SFRSYM    DATA     BIT       TMR2CN0_T2XCLK
      000000C0H.7 SFRSYM    DATA     BIT       SMB0CN0_MASTER
      000000F9H   SFRSYM    DATA     WORD      PCA0
      000000E6H   SFRSYM    DATA     BYTE      EIE1
      000000C0H.1 SFRSYM    DATA     BIT       SMB0CN0_ACK
      0000008FH   SFRSYM    DATA     BYTE      PSCTL
      000000E4H   SFRSYM    DATA     BYTE      IT01CF
      000000C0H.6 SFRSYM    DATA     BIT       SMB0CN0_TXMODE
      000000ADH   SFRSYM    DATA     BYTE      DERIVID
      000000A4H   SFRSYM    DATA     BYTE      P0MDOUT
      000000A5H   SFRSYM    DATA     BYTE      P1MDOUT
      000000E8H.5 SFRSYM    DATA     BIT       ADC0CN0_ADINT
      000000CBH   SFRSYM    DATA     BYTE      TMR2RLH
      000000A6H   SFRSYM    DATA     BYTE      P2MDOUT
      000000A8H   SFRSYM    DATA     BYTE      IE
      00000093H   SFRSYM    DATA     BYTE      TMR3RLH
      000000F3H   SFRSYM    DATA     BYTE      EIP1
      00000098H.2 SFRSYM    DATA     BIT       SCON0_RB8
      000000CAH   SFRSYM    DATA     BYTE      TMR2RLL
      000000FCH   SFRSYM    DATA     BYTE      PCA0CPH0
      00000092H   SFRSYM    DATA     BYTE      TMR3RLL
      000000EAH   SFRSYM    DATA     BYTE      PCA0CPH1
LX51 LINKER/LOCATER V4.66.30.0                                                        01/24/2020  09:48:17  PAGE 68


      00000098H.3 SFRSYM    DATA     BIT       SCON0_TB8
      000000F0H   SFRSYM    DATA     BIT       B_B0
      00000082H   SFRSYM    DATA     WORD      DP
      000000ECH   SFRSYM    DATA     BYTE      PCA0CPH2
      00000080H.2 SFRSYM    DATA     BIT       BTN0
      000000F0H.1 SFRSYM    DATA     BIT       B_B1
      000000C3H   SFRSYM    DATA     WORD      ADC0GT
      00000090H.1 SFRSYM    DATA     BIT       BTN1
      000000F0H.2 SFRSYM    DATA     BIT       B_B2
      000000FBH   SFRSYM    DATA     BYTE      PCA0CPL0
      000000F0H.3 SFRSYM    DATA     BIT       B_B3
      000000D9H   SFRSYM    DATA     BYTE      PCA0MD
      000000DAH   SFRSYM    DATA     BYTE      PCA0CPM0
      000000E9H   SFRSYM    DATA     BYTE      PCA0CPL1
      000000F0H.4 SFRSYM    DATA     BIT       B_B4
      000000DBH   SFRSYM    DATA     BYTE      PCA0CPM1
      000000EBH   SFRSYM    DATA     BYTE      PCA0CPL2
      000000F0H.5 SFRSYM    DATA     BIT       B_B5
      000000DCH   SFRSYM    DATA     BYTE      PCA0CPM2
      000000B8H   SFRSYM    DATA     BYTE      IP
      000000B9H   SFRSYM    DATA     BYTE      ADC0TK
      000000F0H.6 SFRSYM    DATA     BIT       B_B6
      000000C5H   SFRSYM    DATA     WORD      ADC0LT
      00000098H.5 SFRSYM    DATA     BIT       SCON0_MCE
      000000F0H.7 SFRSYM    DATA     BIT       B_B7
      000000E1H   SFRSYM    DATA     BYTE      XBR0
      000000C1H   SFRSYM    DATA     BYTE      SMB0CF
      000000E2H   SFRSYM    DATA     BYTE      XBR1
      000000C0H.5 SFRSYM    DATA     BIT       SMB0CN0_STA
      000000E3H   SFRSYM    DATA     BYTE      XBR2
      000000BBH   SFRSYM    DATA     BYTE      ADC0MX
      000000E0H   SFRSYM    DATA     BIT       ACC_ACC0
      000000D1H   SFRSYM    DATA     BYTE      REF0CN
      0000008EH   SFRSYM    DATA     BYTE      CKCON0
      000000E0H.1 SFRSYM    DATA     BIT       ACC_ACC1
      000000C9H   SFRSYM    DATA     BYTE      REG0CN
      000000DDH   SFRSYM    DATA     BYTE      CRC0IN
      000000C8H.2 SFRSYM    DATA     BIT       TMR2CN0_TR2
      000000E0H.2 SFRSYM    DATA     BIT       ACC_ACC2
      000000E0H.3 SFRSYM    DATA     BIT       ACC_ACC3
      00000081H   SFRSYM    DATA     BYTE      SP
      0000009DH   SFRSYM    DATA     BYTE      CMP0MD
      000000E0H.4 SFRSYM    DATA     BIT       ACC_ACC4
      000000B1H   SFRSYM    DATA     BYTE      LFO0CN
      000000ABH   SFRSYM    DATA     BYTE      CMP1MD
      000000D8H   SFRSYM    DATA     BIT       PCA0CN0_CCF0
      000000E0H.5 SFRSYM    DATA     BIT       ACC_ACC5
      000000D8H.1 SFRSYM    DATA     BIT       PCA0CN0_CCF1
      000000E0H.6 SFRSYM    DATA     BIT       ACC_ACC6
      000000CCH   SFRSYM    DATA     WORD      TMR2
      000000D8H.2 SFRSYM    DATA     BIT       PCA0CN0_CCF2
      000000E0H.7 SFRSYM    DATA     BIT       ACC_ACC7
      00000094H   SFRSYM    DATA     WORD      TMR3
      000000C0H.3 SFRSYM    DATA     BIT       SMB0CN0_ACKRQ
      000000FFH   SFRSYM    DATA     BYTE      VDM0CN
      000000F1H   SFRSYM    DATA     BYTE      P0MDIN
      00000098H.4 SFRSYM    DATA     BIT       SCON0_REN
      000000ACH   SFRSYM    DATA     BYTE      SMB0TC
      000000F2H   SFRSYM    DATA     BYTE      P1MDIN
      000000C0H.4 SFRSYM    DATA     BIT       SMB0CN0_STO
      000000FEH   SFRSYM    DATA     BYTE      P0MASK
      000000EEH   SFRSYM    DATA     BYTE      P1MASK
LX51 LINKER/LOCATER V4.66.30.0                                                        01/24/2020  09:48:17  PAGE 69


      000000D0H.3 SFRSYM    DATA     BIT       PSW_RS0
      000000D8H.7 SFRSYM    DATA     BIT       PCA0CN0_CF
      0000009EH   SFRSYM    DATA     BYTE      PCA0CENT
      000000F8H.4 SFRSYM    DATA     BIT       SPI0CN0_RXOVRN
      000000D0H.4 SFRSYM    DATA     BIT       PSW_RS1
      000000E8H.7 SFRSYM    DATA     BIT       ADC0CN0_ADEN
      00000089H   SFRSYM    DATA     BYTE      TMOD
      00000088H   SFRSYM    DATA     BYTE      TCON
      000000CFH   SFRSYM    DATA     BYTE      CRC0FLIP
      000000D0H   SFRSYM    DATA     BIT       PSW_PARITY
      000000A8H.4 SFRSYM    DATA     BIT       IE_ES0
      0000009FH   SFRSYM    DATA     BYTE      CMP0MX
      000000A8H.1 SFRSYM    DATA     BIT       IE_ET0
      000000AAH   SFRSYM    DATA     BYTE      CMP1MX
      000000A8H.3 SFRSYM    DATA     BIT       IE_ET1
      000000D4H   SFRSYM    DATA     BYTE      P0SKIP
      000000A8H.5 SFRSYM    DATA     BIT       IE_ET2
      000000D5H   SFRSYM    DATA     BYTE      P1SKIP
      000000E8H   SFRSYM    DATA     BYTE      ADC0CN0
      000000A8H   SFRSYM    DATA     BIT       IE_EX0
      000000B2H   SFRSYM    DATA     BYTE      ADC0CN1
      000000D8H.6 SFRSYM    DATA     BIT       PCA0CN0_CR
      000000A8H.2 SFRSYM    DATA     BIT       IE_EX1
      00000098H.7 SFRSYM    DATA     BIT       SCON0_SMODE
      000000B5H   SFRSYM    DATA     BYTE      DEVICEID
      000000A9H   SFRSYM    DATA     BYTE      CLKSEL
      000000F8H   SFRSYM    DATA     BIT       SPI0CN0_SPIEN
      000000F0H   SFRSYM    DATA     BYTE      B
      000000BEH   SFRSYM    DATA     BYTE      ADC0H
      000000D2H   SFRSYM    DATA     BYTE      CRC0AUTO
      000000E8H.6 SFRSYM    DATA     BIT       ADC0CN0_ADBMEN
      000000CAH   SFRSYM    DATA     WORD      TMR2RL
      000000BDH   SFRSYM    DATA     BYTE      ADC0L
      00000092H   SFRSYM    DATA     WORD      TMR3RL
      000000D8H   SFRSYM    DATA     BYTE      PCA0CN0
      000000E0H   SFRSYM    DATA     BYTE      ACC
      000000FBH   SFRSYM    DATA     WORD      PCA0CP0
      000000E9H   SFRSYM    DATA     WORD      PCA0CP1
      000000EBH   SFRSYM    DATA     WORD      PCA0CP2
      000000CEH   SFRSYM    DATA     BYTE      CRC0CN0
      00000090H.4 SFRSYM    DATA     BIT       BSP_LED0
      0000008CH   SFRSYM    DATA     BYTE      TH0
      000000B8H.4 SFRSYM    DATA     BIT       IP_PS0
      0000008DH   SFRSYM    DATA     BYTE      TH1
      000000FAH   SFRSYM    DATA     BYTE      PCA0H
      000000B8H.1 SFRSYM    DATA     BIT       IP_PT0
      000000B8H.3 SFRSYM    DATA     BIT       IP_PT1
      000000C0H.2 SFRSYM    DATA     BIT       SMB0CN0_ARBLOST
      000000B8H.5 SFRSYM    DATA     BIT       IP_PT2
      0000008AH   SFRSYM    DATA     BYTE      TL0
      000000F8H.1 SFRSYM    DATA     BIT       SPI0CN0_TXBMT
      000000D0H.5 SFRSYM    DATA     BIT       PSW_F0
      000000A8H.6 SFRSYM    DATA     BIT       IE_ESPI0
      0000008BH   SFRSYM    DATA     BYTE      TL1
      000000F9H   SFRSYM    DATA     BYTE      PCA0L
      000000C0H   SFRSYM    DATA     BIT       SMB0CN0_SI
      000000D0H.1 SFRSYM    DATA     BIT       PSW_F1
      00000080H   SFRSYM    DATA     BIT       P0_B0
      000000B8H   SFRSYM    DATA     BIT       IP_PX0
      00000090H   SFRSYM    DATA     BIT       P1_B0
      00000080H.1 SFRSYM    DATA     BIT       P0_B1
      000000B8H.2 SFRSYM    DATA     BIT       IP_PX1
LX51 LINKER/LOCATER V4.66.30.0                                                        01/24/2020  09:48:17  PAGE 70


      0000009BH   SFRSYM    DATA     BYTE      CMP0CN0
      00000088H.1 SFRSYM    DATA     BIT       TCON_IE0
      000000A0H   SFRSYM    DATA     BIT       P2_B0
      00000090H.1 SFRSYM    DATA     BIT       P1_B1
      00000080H.2 SFRSYM    DATA     BIT       P0_B2
      000000BFH   SFRSYM    DATA     BYTE      CMP1CN0
      00000088H.3 SFRSYM    DATA     BIT       TCON_IE1
      000000A0H.1 SFRSYM    DATA     BIT       P2_B1
      00000090H.2 SFRSYM    DATA     BIT       P1_B2
      00000080H.3 SFRSYM    DATA     BIT       P0_B3
      000000C0H   SFRSYM    DATA     BYTE      SMB0CN0
      00000090H.3 SFRSYM    DATA     BIT       P1_B3
      00000080H.4 SFRSYM    DATA     BIT       P0_B4
      00000090H.4 SFRSYM    DATA     BIT       P1_B4
      00000080H.5 SFRSYM    DATA     BIT       P0_B5
      00000090H.5 SFRSYM    DATA     BIT       P1_B5
      00000080H.6 SFRSYM    DATA     BIT       P0_B6
      00000090H.6 SFRSYM    DATA     BIT       P1_B6
      00000080H.7 SFRSYM    DATA     BIT       P0_B7
      00000090H.7 SFRSYM    DATA     BIT       P1_B7
      00000080H.2 SFRSYM    DATA     BIT       BSP_BTN0
      00000083H   SFRSYM    DATA     BYTE      DPH
      000000C4H   SFRSYM    DATA     BYTE      ADC0GTH
      000000C8H.7 SFRSYM    DATA     BIT       TMR2CN0_TF2H
      000000C8H.3 SFRSYM    DATA     BIT       TMR2CN0_T2SPLIT
      000000D0H.6 SFRSYM    DATA     BIT       PSW_AC
      000000F8H   SFRSYM    DATA     BYTE      SPI0CN0
      000000C7H   SFRSYM    DATA     BYTE      HFO0CAL
      00000088H.5 SFRSYM    DATA     BIT       TCON_TF0
      00000098H   SFRSYM    DATA     BIT       SCON0_RI
      00000082H   SFRSYM    DATA     BYTE      DPL
      00000088H.7 SFRSYM    DATA     BIT       TCON_TF1
      00000099H   SFRSYM    DATA     BYTE      SBUF0
      00000087H   SFRSYM    DATA     BYTE      PCON0
      000000C3H   SFRSYM    DATA     BYTE      ADC0GTL
      000000C8H.6 SFRSYM    DATA     BIT       TMR2CN0_TF2L
      00000098H.1 SFRSYM    DATA     BIT       SCON0_TI
      000000E8H   SFRSYM    DATA     BIT       ADC0CN0_ADCM0
      000000C6H   SFRSYM    DATA     BYTE      ADC0LTH
      00000088H   SFRSYM    DATA     BIT       TCON_IT0
      000000E8H.1 SFRSYM    DATA     BIT       ADC0CN0_ADCM1
      000000EFH   SFRSYM    DATA     BYTE      RSTSRC
      000000FDH   SFRSYM    DATA     BYTE      P0MAT
      000000DEH   SFRSYM    DATA     BYTE      CRC0DAT
      00000088H.2 SFRSYM    DATA     BIT       TCON_IT1
      000000E8H.2 SFRSYM    DATA     BIT       ADC0CN0_ADCM2
      00000098H   SFRSYM    DATA     BYTE      SCON0
      000000F6H   SFRSYM    DATA     BYTE      PRTDRV
      000000EDH   SFRSYM    DATA     BYTE      P1MAT
      000000E8H.3 SFRSYM    DATA     BIT       ADC0CN0_ADWINT
      000000E8H.4 SFRSYM    DATA     BIT       ADC0CN0_ADBUSY
      000000D6H   SFRSYM    DATA     BYTE      SMB0ADM
      000000C5H   SFRSYM    DATA     BYTE      ADC0LTL
      000000F8H.5 SFRSYM    DATA     BIT       SPI0CN0_MODF
      000000B8H.6 SFRSYM    DATA     BIT       IP_PSPI0
      0000009CH   SFRSYM    DATA     BYTE      PCA0CLR
      000000C8H   SFRSYM    DATA     BYTE      TMR2CN0
      00000091H   SFRSYM    DATA     BYTE      TMR3CN0
      000000D7H   SFRSYM    DATA     BYTE      SMB0ADR
      00000088H.4 SFRSYM    DATA     BIT       TCON_TR0
      000000C8H.4 SFRSYM    DATA     BIT       TMR2CN0_TF2CEN
      00000088H.6 SFRSYM    DATA     BIT       TCON_TR1
LX51 LINKER/LOCATER V4.66.30.0                                                        01/24/2020  09:48:17  PAGE 71


      000000C2H   SFRSYM    DATA     BYTE      SMB0DAT
      000000CDH   SFRSYM    DATA     BYTE      TMR2H
      000000A1H   SFRSYM    DATA     BYTE      SPI0CFG
      00000095H   SFRSYM    DATA     BYTE      TMR3H
      000000D3H   SFRSYM    DATA     BYTE      CRC0CNT
      00000096H   SFRSYM    DATA     BYTE      PCA0POL
      000000CCH   SFRSYM    DATA     BYTE      TMR2L
      000000F8H.7 SFRSYM    DATA     BIT       SPI0CN0_SPIF
      00000094H   SFRSYM    DATA     BYTE      TMR3L
      000000DFH   SFRSYM    DATA     BYTE      ADC0PWR
      000000A8H.7 SFRSYM    DATA     BIT       IE_EA
      000000C8H.5 SFRSYM    DATA     BIT       TMR2CN0_TF2LEN
      000000F8H.6 SFRSYM    DATA     BIT       SPI0CN0_WCOL
      000000F8H.2 SFRSYM    DATA     BIT       SPI0CN0_NSSMD0
      000000D0H.7 SFRSYM    DATA     BIT       PSW_CY
      000000A3H   SFRSYM    DATA     BYTE      SPI0DAT
      000000F8H.3 SFRSYM    DATA     BIT       SPI0CN0_NSSMD1
      000000BDH   SFRSYM    DATA     WORD      ADC0
      000000D0H   SFRSYM    DATA     BYTE      PSW
      000000F7H   SFRSYM    DATA     BYTE      PCA0PWM
      000000B6H   SFRSYM    DATA     BYTE      REVID
      000000B7H   SFRSYM    DATA     BYTE      FLKEY
      000000B3H   SFRSYM    DATA     BYTE      ADC0AC
      0200008DH   SYMBOL    XDATA    BYTE      api_btn1_state
      0200008EH   SYMBOL    XDATA    BYTE      btn1_state

      01001C7AH   BLOCK     CODE     ---       LVL=0
      01001C7AH   LINE      CODE     ---       #54
      01001C7AH   LINE      CODE     ---       #55
      01001C7AH   LINE      CODE     ---       #56
      01001C7DH   LINE      CODE     ---       #58
      01001C8BH   LINE      CODE     ---       #59
      01001C8BH   LINE      CODE     ---       #60
      01001C8DH   LINE      CODE     ---       #61
      01001C90H   LINE      CODE     ---       #62
      01001C90H   LINE      CODE     ---       #63
      01001C98H   LINE      CODE     ---       #64
      01001C9AH   LINE      CODE     ---       #65
      ---         BLOCKEND  ---      ---       LVL=0

      01001ABAH   BLOCK     CODE     ---       LVL=0
      01001ABAH   BLOCK     CODE     NEAR LAB  LVL=1
      00000007H   SYMBOL    DATA     BYTE      curtime
      ---         BLOCKEND  ---      ---       LVL=1
      01001ABAH   LINE      CODE     ---       #77
      01001ABAH   LINE      CODE     ---       #78
      01001ABAH   LINE      CODE     ---       #81
      01001ABDH   LINE      CODE     ---       #82
      01001ABDH   LINE      CODE     ---       #83
      01001AC3H   LINE      CODE     ---       #84
      01001AC4H   LINE      CODE     ---       #85
      01001ACAH   LINE      CODE     ---       #86
      01001ACAH   LINE      CODE     ---       #87
      01001ACDH   LINE      CODE     ---       #90
      01001AD4H   LINE      CODE     ---       #91
      01001AD4H   LINE      CODE     ---       #92
      01001AD7H   LINE      CODE     ---       #93
      01001AD9H   LINE      CODE     ---       #94
      01001ADAH   LINE      CODE     ---       #96
      01001ADAH   LINE      CODE     ---       #97
      01001AE3H   LINE      CODE     ---       #98
      01001AE3H   LINE      CODE     ---       #100
LX51 LINKER/LOCATER V4.66.30.0                                                        01/24/2020  09:48:17  PAGE 72


      01001AE8H   LINE      CODE     ---       #101
      01001AE8H   LINE      CODE     ---       #102
      01001AE8H   LINE      CODE     ---       #103
      01001AE8H   LINE      CODE     ---       #104
      ---         BLOCKEND  ---      ---       LVL=0

      ---         MODULE    ---      ---       COMP
      01001E01H   PUBLIC    CODE     ---       COMP_initialize_comp
      000000A2H   SFRSYM    DATA     BYTE      SPI0CKR
      00000080H   SFRSYM    DATA     BYTE      P0
      000000D0H.2 SFRSYM    DATA     BIT       PSW_OV
      00000090H   SFRSYM    DATA     BYTE      P1
      00000097H   SFRSYM    DATA     BYTE      WDTCN
      000000A0H   SFRSYM    DATA     BYTE      P2
      000000BCH   SFRSYM    DATA     BYTE      ADC0CF
      000000C8H   SFRSYM    DATA     BIT       TMR2CN0_T2XCLK
      000000C0H.7 SFRSYM    DATA     BIT       SMB0CN0_MASTER
      000000F9H   SFRSYM    DATA     WORD      PCA0
      000000E6H   SFRSYM    DATA     BYTE      EIE1
      000000C0H.1 SFRSYM    DATA     BIT       SMB0CN0_ACK
      0000008FH   SFRSYM    DATA     BYTE      PSCTL
      000000E4H   SFRSYM    DATA     BYTE      IT01CF
      000000C0H.6 SFRSYM    DATA     BIT       SMB0CN0_TXMODE
      000000ADH   SFRSYM    DATA     BYTE      DERIVID
      000000A4H   SFRSYM    DATA     BYTE      P0MDOUT
      000000A5H   SFRSYM    DATA     BYTE      P1MDOUT
      000000E8H.5 SFRSYM    DATA     BIT       ADC0CN0_ADINT
      000000CBH   SFRSYM    DATA     BYTE      TMR2RLH
      000000A6H   SFRSYM    DATA     BYTE      P2MDOUT
      000000A8H   SFRSYM    DATA     BYTE      IE
      00000093H   SFRSYM    DATA     BYTE      TMR3RLH
      000000F3H   SFRSYM    DATA     BYTE      EIP1
      00000098H.2 SFRSYM    DATA     BIT       SCON0_RB8
      000000CAH   SFRSYM    DATA     BYTE      TMR2RLL
      000000FCH   SFRSYM    DATA     BYTE      PCA0CPH0
      00000092H   SFRSYM    DATA     BYTE      TMR3RLL
      000000EAH   SFRSYM    DATA     BYTE      PCA0CPH1
      00000098H.3 SFRSYM    DATA     BIT       SCON0_TB8
      000000F0H   SFRSYM    DATA     BIT       B_B0
      00000082H   SFRSYM    DATA     WORD      DP
      000000ECH   SFRSYM    DATA     BYTE      PCA0CPH2
      00000080H.2 SFRSYM    DATA     BIT       BTN0
      000000F0H.1 SFRSYM    DATA     BIT       B_B1
      000000C3H   SFRSYM    DATA     WORD      ADC0GT
      00000090H.1 SFRSYM    DATA     BIT       BTN1
      000000F0H.2 SFRSYM    DATA     BIT       B_B2
      000000FBH   SFRSYM    DATA     BYTE      PCA0CPL0
      000000F0H.3 SFRSYM    DATA     BIT       B_B3
      000000D9H   SFRSYM    DATA     BYTE      PCA0MD
      000000DAH   SFRSYM    DATA     BYTE      PCA0CPM0
      000000E9H   SFRSYM    DATA     BYTE      PCA0CPL1
      000000F0H.4 SFRSYM    DATA     BIT       B_B4
      000000DBH   SFRSYM    DATA     BYTE      PCA0CPM1
      000000EBH   SFRSYM    DATA     BYTE      PCA0CPL2
      000000F0H.5 SFRSYM    DATA     BIT       B_B5
      000000DCH   SFRSYM    DATA     BYTE      PCA0CPM2
      000000B8H   SFRSYM    DATA     BYTE      IP
      000000B9H   SFRSYM    DATA     BYTE      ADC0TK
      000000F0H.6 SFRSYM    DATA     BIT       B_B6
      000000C5H   SFRSYM    DATA     WORD      ADC0LT
      00000098H.5 SFRSYM    DATA     BIT       SCON0_MCE
      000000F0H.7 SFRSYM    DATA     BIT       B_B7
LX51 LINKER/LOCATER V4.66.30.0                                                        01/24/2020  09:48:17  PAGE 73


      000000E1H   SFRSYM    DATA     BYTE      XBR0
      000000C1H   SFRSYM    DATA     BYTE      SMB0CF
      000000E2H   SFRSYM    DATA     BYTE      XBR1
      000000C0H.5 SFRSYM    DATA     BIT       SMB0CN0_STA
      000000E3H   SFRSYM    DATA     BYTE      XBR2
      000000BBH   SFRSYM    DATA     BYTE      ADC0MX
      000000E0H   SFRSYM    DATA     BIT       ACC_ACC0
      000000D1H   SFRSYM    DATA     BYTE      REF0CN
      0000008EH   SFRSYM    DATA     BYTE      CKCON0
      000000E0H.1 SFRSYM    DATA     BIT       ACC_ACC1
      000000C9H   SFRSYM    DATA     BYTE      REG0CN
      000000DDH   SFRSYM    DATA     BYTE      CRC0IN
      000000C8H.2 SFRSYM    DATA     BIT       TMR2CN0_TR2
      000000E0H.2 SFRSYM    DATA     BIT       ACC_ACC2
      000000E0H.3 SFRSYM    DATA     BIT       ACC_ACC3
      00000081H   SFRSYM    DATA     BYTE      SP
      0000009DH   SFRSYM    DATA     BYTE      CMP0MD
      000000E0H.4 SFRSYM    DATA     BIT       ACC_ACC4
      000000B1H   SFRSYM    DATA     BYTE      LFO0CN
      000000ABH   SFRSYM    DATA     BYTE      CMP1MD
      000000D8H   SFRSYM    DATA     BIT       PCA0CN0_CCF0
      000000E0H.5 SFRSYM    DATA     BIT       ACC_ACC5
      000000D8H.1 SFRSYM    DATA     BIT       PCA0CN0_CCF1
      000000E0H.6 SFRSYM    DATA     BIT       ACC_ACC6
      000000CCH   SFRSYM    DATA     WORD      TMR2
      000000D8H.2 SFRSYM    DATA     BIT       PCA0CN0_CCF2
      000000E0H.7 SFRSYM    DATA     BIT       ACC_ACC7
      00000094H   SFRSYM    DATA     WORD      TMR3
      000000C0H.3 SFRSYM    DATA     BIT       SMB0CN0_ACKRQ
      000000FFH   SFRSYM    DATA     BYTE      VDM0CN
      000000F1H   SFRSYM    DATA     BYTE      P0MDIN
      00000098H.4 SFRSYM    DATA     BIT       SCON0_REN
      000000ACH   SFRSYM    DATA     BYTE      SMB0TC
      000000F2H   SFRSYM    DATA     BYTE      P1MDIN
      000000C0H.4 SFRSYM    DATA     BIT       SMB0CN0_STO
      000000FEH   SFRSYM    DATA     BYTE      P0MASK
      000000EEH   SFRSYM    DATA     BYTE      P1MASK
      000000D0H.3 SFRSYM    DATA     BIT       PSW_RS0
      000000D8H.7 SFRSYM    DATA     BIT       PCA0CN0_CF
      0000009EH   SFRSYM    DATA     BYTE      PCA0CENT
      000000F8H.4 SFRSYM    DATA     BIT       SPI0CN0_RXOVRN
      000000D0H.4 SFRSYM    DATA     BIT       PSW_RS1
      000000E8H.7 SFRSYM    DATA     BIT       ADC0CN0_ADEN
      00000089H   SFRSYM    DATA     BYTE      TMOD
      00000088H   SFRSYM    DATA     BYTE      TCON
      000000CFH   SFRSYM    DATA     BYTE      CRC0FLIP
      000000D0H   SFRSYM    DATA     BIT       PSW_PARITY
      000000A8H.4 SFRSYM    DATA     BIT       IE_ES0
      0000009FH   SFRSYM    DATA     BYTE      CMP0MX
      000000A8H.1 SFRSYM    DATA     BIT       IE_ET0
      000000AAH   SFRSYM    DATA     BYTE      CMP1MX
      000000A8H.3 SFRSYM    DATA     BIT       IE_ET1
      000000D4H   SFRSYM    DATA     BYTE      P0SKIP
      000000A8H.5 SFRSYM    DATA     BIT       IE_ET2
      000000D5H   SFRSYM    DATA     BYTE      P1SKIP
      000000E8H   SFRSYM    DATA     BYTE      ADC0CN0
      000000A8H   SFRSYM    DATA     BIT       IE_EX0
      000000B2H   SFRSYM    DATA     BYTE      ADC0CN1
      000000D8H.6 SFRSYM    DATA     BIT       PCA0CN0_CR
      000000A8H.2 SFRSYM    DATA     BIT       IE_EX1
      00000098H.7 SFRSYM    DATA     BIT       SCON0_SMODE
      000000B5H   SFRSYM    DATA     BYTE      DEVICEID
LX51 LINKER/LOCATER V4.66.30.0                                                        01/24/2020  09:48:17  PAGE 74


      000000A9H   SFRSYM    DATA     BYTE      CLKSEL
      000000F8H   SFRSYM    DATA     BIT       SPI0CN0_SPIEN
      000000F0H   SFRSYM    DATA     BYTE      B
      000000BEH   SFRSYM    DATA     BYTE      ADC0H
      000000D2H   SFRSYM    DATA     BYTE      CRC0AUTO
      000000E8H.6 SFRSYM    DATA     BIT       ADC0CN0_ADBMEN
      000000CAH   SFRSYM    DATA     WORD      TMR2RL
      000000BDH   SFRSYM    DATA     BYTE      ADC0L
      00000092H   SFRSYM    DATA     WORD      TMR3RL
      000000D8H   SFRSYM    DATA     BYTE      PCA0CN0
      000000E0H   SFRSYM    DATA     BYTE      ACC
      000000FBH   SFRSYM    DATA     WORD      PCA0CP0
      000000E9H   SFRSYM    DATA     WORD      PCA0CP1
      000000EBH   SFRSYM    DATA     WORD      PCA0CP2
      000000CEH   SFRSYM    DATA     BYTE      CRC0CN0
      00000090H.4 SFRSYM    DATA     BIT       BSP_LED0
      0000008CH   SFRSYM    DATA     BYTE      TH0
      000000B8H.4 SFRSYM    DATA     BIT       IP_PS0
      0000008DH   SFRSYM    DATA     BYTE      TH1
      000000FAH   SFRSYM    DATA     BYTE      PCA0H
      000000B8H.1 SFRSYM    DATA     BIT       IP_PT0
      000000B8H.3 SFRSYM    DATA     BIT       IP_PT1
      000000C0H.2 SFRSYM    DATA     BIT       SMB0CN0_ARBLOST
      000000B8H.5 SFRSYM    DATA     BIT       IP_PT2
      0000008AH   SFRSYM    DATA     BYTE      TL0
      000000F8H.1 SFRSYM    DATA     BIT       SPI0CN0_TXBMT
      000000D0H.5 SFRSYM    DATA     BIT       PSW_F0
      000000A8H.6 SFRSYM    DATA     BIT       IE_ESPI0
      0000008BH   SFRSYM    DATA     BYTE      TL1
      000000F9H   SFRSYM    DATA     BYTE      PCA0L
      000000C0H   SFRSYM    DATA     BIT       SMB0CN0_SI
      000000D0H.1 SFRSYM    DATA     BIT       PSW_F1
      00000080H   SFRSYM    DATA     BIT       P0_B0
      000000B8H   SFRSYM    DATA     BIT       IP_PX0
      00000090H   SFRSYM    DATA     BIT       P1_B0
      00000080H.1 SFRSYM    DATA     BIT       P0_B1
      000000B8H.2 SFRSYM    DATA     BIT       IP_PX1
      0000009BH   SFRSYM    DATA     BYTE      CMP0CN0
      00000088H.1 SFRSYM    DATA     BIT       TCON_IE0
      000000A0H   SFRSYM    DATA     BIT       P2_B0
      00000090H.1 SFRSYM    DATA     BIT       P1_B1
      00000080H.2 SFRSYM    DATA     BIT       P0_B2
      000000BFH   SFRSYM    DATA     BYTE      CMP1CN0
      00000088H.3 SFRSYM    DATA     BIT       TCON_IE1
      000000A0H.1 SFRSYM    DATA     BIT       P2_B1
      00000090H.2 SFRSYM    DATA     BIT       P1_B2
      00000080H.3 SFRSYM    DATA     BIT       P0_B3
      000000C0H   SFRSYM    DATA     BYTE      SMB0CN0
      00000090H.3 SFRSYM    DATA     BIT       P1_B3
      00000080H.4 SFRSYM    DATA     BIT       P0_B4
      00000090H.4 SFRSYM    DATA     BIT       P1_B4
      00000080H.5 SFRSYM    DATA     BIT       P0_B5
      00000090H.5 SFRSYM    DATA     BIT       P1_B5
      00000080H.6 SFRSYM    DATA     BIT       P0_B6
      00000090H.6 SFRSYM    DATA     BIT       P1_B6
      00000080H.7 SFRSYM    DATA     BIT       P0_B7
      00000090H.7 SFRSYM    DATA     BIT       P1_B7
      00000080H.2 SFRSYM    DATA     BIT       BSP_BTN0
      00000083H   SFRSYM    DATA     BYTE      DPH
      000000C4H   SFRSYM    DATA     BYTE      ADC0GTH
      000000C8H.7 SFRSYM    DATA     BIT       TMR2CN0_TF2H
      000000C8H.3 SFRSYM    DATA     BIT       TMR2CN0_T2SPLIT
LX51 LINKER/LOCATER V4.66.30.0                                                        01/24/2020  09:48:17  PAGE 75


      000000D0H.6 SFRSYM    DATA     BIT       PSW_AC
      000000F8H   SFRSYM    DATA     BYTE      SPI0CN0
      000000C7H   SFRSYM    DATA     BYTE      HFO0CAL
      00000088H.5 SFRSYM    DATA     BIT       TCON_TF0
      00000098H   SFRSYM    DATA     BIT       SCON0_RI
      00000082H   SFRSYM    DATA     BYTE      DPL
      00000088H.7 SFRSYM    DATA     BIT       TCON_TF1
      00000099H   SFRSYM    DATA     BYTE      SBUF0
      00000087H   SFRSYM    DATA     BYTE      PCON0
      000000C3H   SFRSYM    DATA     BYTE      ADC0GTL
      000000C8H.6 SFRSYM    DATA     BIT       TMR2CN0_TF2L
      00000098H.1 SFRSYM    DATA     BIT       SCON0_TI
      000000E8H   SFRSYM    DATA     BIT       ADC0CN0_ADCM0
      000000C6H   SFRSYM    DATA     BYTE      ADC0LTH
      00000088H   SFRSYM    DATA     BIT       TCON_IT0
      000000E8H.1 SFRSYM    DATA     BIT       ADC0CN0_ADCM1
      000000EFH   SFRSYM    DATA     BYTE      RSTSRC
      000000FDH   SFRSYM    DATA     BYTE      P0MAT
      000000DEH   SFRSYM    DATA     BYTE      CRC0DAT
      00000088H.2 SFRSYM    DATA     BIT       TCON_IT1
      000000E8H.2 SFRSYM    DATA     BIT       ADC0CN0_ADCM2
      00000098H   SFRSYM    DATA     BYTE      SCON0
      000000F6H   SFRSYM    DATA     BYTE      PRTDRV
      000000EDH   SFRSYM    DATA     BYTE      P1MAT
      000000E8H.3 SFRSYM    DATA     BIT       ADC0CN0_ADWINT
      000000E8H.4 SFRSYM    DATA     BIT       ADC0CN0_ADBUSY
      000000D6H   SFRSYM    DATA     BYTE      SMB0ADM
      000000C5H   SFRSYM    DATA     BYTE      ADC0LTL
      000000F8H.5 SFRSYM    DATA     BIT       SPI0CN0_MODF
      000000B8H.6 SFRSYM    DATA     BIT       IP_PSPI0
      0000009CH   SFRSYM    DATA     BYTE      PCA0CLR
      000000C8H   SFRSYM    DATA     BYTE      TMR2CN0
      00000091H   SFRSYM    DATA     BYTE      TMR3CN0
      000000D7H   SFRSYM    DATA     BYTE      SMB0ADR
      00000088H.4 SFRSYM    DATA     BIT       TCON_TR0
      000000C8H.4 SFRSYM    DATA     BIT       TMR2CN0_TF2CEN
      00000088H.6 SFRSYM    DATA     BIT       TCON_TR1
      000000C2H   SFRSYM    DATA     BYTE      SMB0DAT
      000000CDH   SFRSYM    DATA     BYTE      TMR2H
      000000A1H   SFRSYM    DATA     BYTE      SPI0CFG
      00000095H   SFRSYM    DATA     BYTE      TMR3H
      000000D3H   SFRSYM    DATA     BYTE      CRC0CNT
      00000096H   SFRSYM    DATA     BYTE      PCA0POL
      000000CCH   SFRSYM    DATA     BYTE      TMR2L
      000000F8H.7 SFRSYM    DATA     BIT       SPI0CN0_SPIF
      00000094H   SFRSYM    DATA     BYTE      TMR3L
      000000DFH   SFRSYM    DATA     BYTE      ADC0PWR
      000000A8H.7 SFRSYM    DATA     BIT       IE_EA
      000000C8H.5 SFRSYM    DATA     BIT       TMR2CN0_TF2LEN
      000000F8H.6 SFRSYM    DATA     BIT       SPI0CN0_WCOL
      000000F8H.2 SFRSYM    DATA     BIT       SPI0CN0_NSSMD0
      000000D0H.7 SFRSYM    DATA     BIT       PSW_CY
      000000A3H   SFRSYM    DATA     BYTE      SPI0DAT
      000000F8H.3 SFRSYM    DATA     BIT       SPI0CN0_NSSMD1
      000000BDH   SFRSYM    DATA     WORD      ADC0
      000000D0H   SFRSYM    DATA     BYTE      PSW
      000000F7H   SFRSYM    DATA     BYTE      PCA0PWM
      000000B6H   SFRSYM    DATA     BYTE      REVID
      000000B7H   SFRSYM    DATA     BYTE      FLKEY
      000000B3H   SFRSYM    DATA     BYTE      ADC0AC

      01001E01H   BLOCK     CODE     ---       LVL=0
LX51 LINKER/LOCATER V4.66.30.0                                                        01/24/2020  09:48:17  PAGE 76


      01001E01H   LINE      CODE     ---       #42
      01001E01H   LINE      CODE     ---       #43
      01001E01H   LINE      CODE     ---       #44
      01001E08H   LINE      CODE     ---       #48
      01001E0BH   LINE      CODE     ---       #49
      ---         BLOCKEND  ---      ---       LVL=0

      ---         MODULE    ---      ---       MOTOR
      00000044H   PUBLIC    DATA     ---       SLR_minimum_duty
      00000021H.2 PUBLIC    BIT      BIT       SLW_pwm_updated
      00000021H.1 PUBLIC    BIT      BIT       SLW_rpm_updated
      02000056H   PUBLIC    XDATA    BYTE      zc_total_count
      00000040H   PUBLIC    DATA     ---       zc_time
      02000052H   PUBLIC    XDATA    WORD      SLR_motor_current
      0000003FH   PUBLIC    DATA     BYTE      zc_count
      0200004DH   PUBLIC    XDATA    WORD      SLW_motor_max_rpm
      02000049H   PUBLIC    XDATA    DWORD     zc_total_per_mech_rotation
      02000048H   PUBLIC    XDATA    BYTE      SLW_current_limit
      00000021H.0 PUBLIC    BIT      BIT       speed_updated
      02000046H   PUBLIC    XDATA    WORD      SLR_motor_voltage
      02000045H   PUBLIC    XDATA    BYTE      num_poles
      00000020H.6 PUBLIC    BIT      BIT       SLR_motor_stalled
      02000044H   PUBLIC    XDATA    BYTE      SLW_oc_debounce
      0000003DH   PUBLIC    DATA     WORD      SLR_pwm_duty
      00000039H   PUBLIC    DATA     ---       time_per_rotate
      02000042H   PUBLIC    XDATA    WORD      error_event_time
      02000040H   PUBLIC    XDATA    WORD      SLW_target_pwm_duty
      00000020H.5 PUBLIC    BIT      BIT       SLW_user_direction
      00000020H.4 PUBLIC    BIT      BIT       pid_flag
      00000038H   PUBLIC    DATA     BYTE      commutation_index
      00000037H   PUBLIC    DATA     BYTE      open_phase
      00000033H   PUBLIC    DATA     ---       zc_commutate_time
      0200003FH   PUBLIC    XDATA    BYTE      pre_port1
      0200003DH   PUBLIC    XDATA    WORD      SLR_motor_current_rpm
      00000020H.3 PUBLIC    BIT      BIT       last_motor_stalled
      00000031H   PUBLIC    DATA     WORD      SLW_target_rpm
      00000020H.2 PUBLIC    BIT      BIT       handle_motor_error
      0000002DH   PUBLIC    DATA     ---       prev_zc_time
      000000B2H   PUBLIC    IDATA    BYTE      SLR_motor_state
      0000002BH   PUBLIC    DATA     WORD      SLR_minimum_rpm
      02000034H   PUBLIC    XDATA    BYTE      pre_p1skip
      02000033H   PUBLIC    XDATA    BYTE      pre_p0skip
      02000032H   PUBLIC    XDATA    BYTE      pid_calc_interval
      01001E93H   PUBLIC    CONST    ---       active_gpio
      01001E8DH   PUBLIC    CONST    ---       freeterminal
      01001E81H   PUBLIC    CONST    ---       skipPattern
      01001E75H   PUBLIC    CONST    ---       compMux
      01001E6FH   PUBLIC    CONST    ---       start_delay
      01001088H   PUBLIC    CODE     ---       TIMER0_ISR
      0100096DH   PUBLIC    CODE     ---       CMP0_ISR
      01000046H   PUBLIC    CODE     ---       _SL_MTR_change_num_poles
      01001D95H   PUBLIC    CODE     ---       SL_MTR_time
      01001E3EH   PUBLIC    CODE     ---       MTR_calculate_pid
      0100193FH   PUBLIC    CODE     ---       MTR_save_zero_crossing_time
      01001776H   PUBLIC    CODE     ---       MTR_calculate_motor_rpm
      01000663H   PUBLIC    CODE     ---       MTR_do_quickstart
      010004D2H   PUBLIC    CODE     ---       MTR_start_spinning
      010017C6H   PUBLIC    CODE     ---       MTR_commutate
      0100172EH   PUBLIC    CODE     ---       MTR_pre_commutation
      01001575H   PUBLIC    CODE     ---       MTR_check_motor_spinning
      01001843H   PUBLIC    CODE     ---       SL_MTR_stop_motor
      01001BBDH   PUBLIC    CODE     ---       SL_MTR_start_motor
LX51 LINKER/LOCATER V4.66.30.0                                                        01/24/2020  09:48:17  PAGE 77


      010019AEH   PUBLIC    CODE     ---       SL_MTR_motor
      01001977H   PUBLIC    CODE     ---       SL_MTR_init
      000000A2H   SFRSYM    DATA     BYTE      SPI0CKR
      00000080H   SFRSYM    DATA     BYTE      P0
      000000D0H.2 SFRSYM    DATA     BIT       PSW_OV
      00000090H   SFRSYM    DATA     BYTE      P1
      00000097H   SFRSYM    DATA     BYTE      WDTCN
      000000A0H   SFRSYM    DATA     BYTE      P2
      000000BCH   SFRSYM    DATA     BYTE      ADC0CF
      000000C8H   SFRSYM    DATA     BIT       TMR2CN0_T2XCLK
      000000C0H.7 SFRSYM    DATA     BIT       SMB0CN0_MASTER
      000000F9H   SFRSYM    DATA     WORD      PCA0
      000000E6H   SFRSYM    DATA     BYTE      EIE1
      000000C0H.1 SFRSYM    DATA     BIT       SMB0CN0_ACK
      0000008FH   SFRSYM    DATA     BYTE      PSCTL
      000000E4H   SFRSYM    DATA     BYTE      IT01CF
      000000C0H.6 SFRSYM    DATA     BIT       SMB0CN0_TXMODE
      000000ADH   SFRSYM    DATA     BYTE      DERIVID
      000000A4H   SFRSYM    DATA     BYTE      P0MDOUT
      000000A5H   SFRSYM    DATA     BYTE      P1MDOUT
      000000E8H.5 SFRSYM    DATA     BIT       ADC0CN0_ADINT
      000000CBH   SFRSYM    DATA     BYTE      TMR2RLH
      000000A6H   SFRSYM    DATA     BYTE      P2MDOUT
      000000A8H   SFRSYM    DATA     BYTE      IE
      00000093H   SFRSYM    DATA     BYTE      TMR3RLH
      000000F3H   SFRSYM    DATA     BYTE      EIP1
      00000098H.2 SFRSYM    DATA     BIT       SCON0_RB8
      000000CAH   SFRSYM    DATA     BYTE      TMR2RLL
      000000FCH   SFRSYM    DATA     BYTE      PCA0CPH0
      00000092H   SFRSYM    DATA     BYTE      TMR3RLL
      000000EAH   SFRSYM    DATA     BYTE      PCA0CPH1
      00000098H.3 SFRSYM    DATA     BIT       SCON0_TB8
      000000F0H   SFRSYM    DATA     BIT       B_B0
      00000082H   SFRSYM    DATA     WORD      DP
      000000ECH   SFRSYM    DATA     BYTE      PCA0CPH2
      00000080H.2 SFRSYM    DATA     BIT       BTN0
      000000F0H.1 SFRSYM    DATA     BIT       B_B1
      000000C3H   SFRSYM    DATA     WORD      ADC0GT
      00000090H.1 SFRSYM    DATA     BIT       BTN1
      000000F0H.2 SFRSYM    DATA     BIT       B_B2
      000000FBH   SFRSYM    DATA     BYTE      PCA0CPL0
      000000F0H.3 SFRSYM    DATA     BIT       B_B3
      000000D9H   SFRSYM    DATA     BYTE      PCA0MD
      000000DAH   SFRSYM    DATA     BYTE      PCA0CPM0
      000000E9H   SFRSYM    DATA     BYTE      PCA0CPL1
      000000F0H.4 SFRSYM    DATA     BIT       B_B4
      000000DBH   SFRSYM    DATA     BYTE      PCA0CPM1
      000000EBH   SFRSYM    DATA     BYTE      PCA0CPL2
      000000F0H.5 SFRSYM    DATA     BIT       B_B5
      000000DCH   SFRSYM    DATA     BYTE      PCA0CPM2
      000000B8H   SFRSYM    DATA     BYTE      IP
      000000B9H   SFRSYM    DATA     BYTE      ADC0TK
      000000F0H.6 SFRSYM    DATA     BIT       B_B6
      000000C5H   SFRSYM    DATA     WORD      ADC0LT
      00000098H.5 SFRSYM    DATA     BIT       SCON0_MCE
      000000F0H.7 SFRSYM    DATA     BIT       B_B7
      000000E1H   SFRSYM    DATA     BYTE      XBR0
      000000C1H   SFRSYM    DATA     BYTE      SMB0CF
      000000E2H   SFRSYM    DATA     BYTE      XBR1
      000000C0H.5 SFRSYM    DATA     BIT       SMB0CN0_STA
      000000E3H   SFRSYM    DATA     BYTE      XBR2
      000000BBH   SFRSYM    DATA     BYTE      ADC0MX
LX51 LINKER/LOCATER V4.66.30.0                                                        01/24/2020  09:48:17  PAGE 78


      000000E0H   SFRSYM    DATA     BIT       ACC_ACC0
      000000D1H   SFRSYM    DATA     BYTE      REF0CN
      0000008EH   SFRSYM    DATA     BYTE      CKCON0
      000000E0H.1 SFRSYM    DATA     BIT       ACC_ACC1
      000000C9H   SFRSYM    DATA     BYTE      REG0CN
      000000DDH   SFRSYM    DATA     BYTE      CRC0IN
      000000C8H.2 SFRSYM    DATA     BIT       TMR2CN0_TR2
      000000E0H.2 SFRSYM    DATA     BIT       ACC_ACC2
      000000E0H.3 SFRSYM    DATA     BIT       ACC_ACC3
      00000081H   SFRSYM    DATA     BYTE      SP
      0000009DH   SFRSYM    DATA     BYTE      CMP0MD
      000000E0H.4 SFRSYM    DATA     BIT       ACC_ACC4
      000000B1H   SFRSYM    DATA     BYTE      LFO0CN
      000000ABH   SFRSYM    DATA     BYTE      CMP1MD
      000000D8H   SFRSYM    DATA     BIT       PCA0CN0_CCF0
      000000E0H.5 SFRSYM    DATA     BIT       ACC_ACC5
      000000D8H.1 SFRSYM    DATA     BIT       PCA0CN0_CCF1
      000000E0H.6 SFRSYM    DATA     BIT       ACC_ACC6
      000000CCH   SFRSYM    DATA     WORD      TMR2
      000000D8H.2 SFRSYM    DATA     BIT       PCA0CN0_CCF2
      000000E0H.7 SFRSYM    DATA     BIT       ACC_ACC7
      00000094H   SFRSYM    DATA     WORD      TMR3
      000000C0H.3 SFRSYM    DATA     BIT       SMB0CN0_ACKRQ
      000000FFH   SFRSYM    DATA     BYTE      VDM0CN
      000000F1H   SFRSYM    DATA     BYTE      P0MDIN
      00000098H.4 SFRSYM    DATA     BIT       SCON0_REN
      000000ACH   SFRSYM    DATA     BYTE      SMB0TC
      000000F2H   SFRSYM    DATA     BYTE      P1MDIN
      000000C0H.4 SFRSYM    DATA     BIT       SMB0CN0_STO
      000000FEH   SFRSYM    DATA     BYTE      P0MASK
      000000EEH   SFRSYM    DATA     BYTE      P1MASK
      000000D0H.3 SFRSYM    DATA     BIT       PSW_RS0
      000000D8H.7 SFRSYM    DATA     BIT       PCA0CN0_CF
      0000009EH   SFRSYM    DATA     BYTE      PCA0CENT
      000000F8H.4 SFRSYM    DATA     BIT       SPI0CN0_RXOVRN
      000000D0H.4 SFRSYM    DATA     BIT       PSW_RS1
      000000E8H.7 SFRSYM    DATA     BIT       ADC0CN0_ADEN
      00000089H   SFRSYM    DATA     BYTE      TMOD
      00000088H   SFRSYM    DATA     BYTE      TCON
      000000CFH   SFRSYM    DATA     BYTE      CRC0FLIP
      000000D0H   SFRSYM    DATA     BIT       PSW_PARITY
      000000A8H.4 SFRSYM    DATA     BIT       IE_ES0
      0000009FH   SFRSYM    DATA     BYTE      CMP0MX
      000000A8H.1 SFRSYM    DATA     BIT       IE_ET0
      000000AAH   SFRSYM    DATA     BYTE      CMP1MX
      000000A8H.3 SFRSYM    DATA     BIT       IE_ET1
      000000D4H   SFRSYM    DATA     BYTE      P0SKIP
      000000A8H.5 SFRSYM    DATA     BIT       IE_ET2
      000000D5H   SFRSYM    DATA     BYTE      P1SKIP
      000000E8H   SFRSYM    DATA     BYTE      ADC0CN0
      000000A8H   SFRSYM    DATA     BIT       IE_EX0
      000000B2H   SFRSYM    DATA     BYTE      ADC0CN1
      000000D8H.6 SFRSYM    DATA     BIT       PCA0CN0_CR
      000000A8H.2 SFRSYM    DATA     BIT       IE_EX1
      00000098H.7 SFRSYM    DATA     BIT       SCON0_SMODE
      000000B5H   SFRSYM    DATA     BYTE      DEVICEID
      000000A9H   SFRSYM    DATA     BYTE      CLKSEL
      000000F8H   SFRSYM    DATA     BIT       SPI0CN0_SPIEN
      000000F0H   SFRSYM    DATA     BYTE      B
      000000BEH   SFRSYM    DATA     BYTE      ADC0H
      000000D2H   SFRSYM    DATA     BYTE      CRC0AUTO
      000000E8H.6 SFRSYM    DATA     BIT       ADC0CN0_ADBMEN
LX51 LINKER/LOCATER V4.66.30.0                                                        01/24/2020  09:48:17  PAGE 79


      000000CAH   SFRSYM    DATA     WORD      TMR2RL
      000000BDH   SFRSYM    DATA     BYTE      ADC0L
      00000092H   SFRSYM    DATA     WORD      TMR3RL
      000000D8H   SFRSYM    DATA     BYTE      PCA0CN0
      000000E0H   SFRSYM    DATA     BYTE      ACC
      000000FBH   SFRSYM    DATA     WORD      PCA0CP0
      000000E9H   SFRSYM    DATA     WORD      PCA0CP1
      000000EBH   SFRSYM    DATA     WORD      PCA0CP2
      000000CEH   SFRSYM    DATA     BYTE      CRC0CN0
      00000090H.4 SFRSYM    DATA     BIT       BSP_LED0
      0000008CH   SFRSYM    DATA     BYTE      TH0
      000000B8H.4 SFRSYM    DATA     BIT       IP_PS0
      0000008DH   SFRSYM    DATA     BYTE      TH1
      000000FAH   SFRSYM    DATA     BYTE      PCA0H
      000000B8H.1 SFRSYM    DATA     BIT       IP_PT0
      000000B8H.3 SFRSYM    DATA     BIT       IP_PT1
      000000C0H.2 SFRSYM    DATA     BIT       SMB0CN0_ARBLOST
      000000B8H.5 SFRSYM    DATA     BIT       IP_PT2
      0000008AH   SFRSYM    DATA     BYTE      TL0
      000000F8H.1 SFRSYM    DATA     BIT       SPI0CN0_TXBMT
      000000D0H.5 SFRSYM    DATA     BIT       PSW_F0
      000000A8H.6 SFRSYM    DATA     BIT       IE_ESPI0
      0000008BH   SFRSYM    DATA     BYTE      TL1
      000000F9H   SFRSYM    DATA     BYTE      PCA0L
      000000C0H   SFRSYM    DATA     BIT       SMB0CN0_SI
      000000D0H.1 SFRSYM    DATA     BIT       PSW_F1
      00000080H   SFRSYM    DATA     BIT       P0_B0
      000000B8H   SFRSYM    DATA     BIT       IP_PX0
      00000090H   SFRSYM    DATA     BIT       P1_B0
      00000080H.1 SFRSYM    DATA     BIT       P0_B1
      000000B8H.2 SFRSYM    DATA     BIT       IP_PX1
      0000009BH   SFRSYM    DATA     BYTE      CMP0CN0
      00000088H.1 SFRSYM    DATA     BIT       TCON_IE0
      000000A0H   SFRSYM    DATA     BIT       P2_B0
      00000090H.1 SFRSYM    DATA     BIT       P1_B1
      00000080H.2 SFRSYM    DATA     BIT       P0_B2
      000000BFH   SFRSYM    DATA     BYTE      CMP1CN0
      00000088H.3 SFRSYM    DATA     BIT       TCON_IE1
      000000A0H.1 SFRSYM    DATA     BIT       P2_B1
      00000090H.2 SFRSYM    DATA     BIT       P1_B2
      00000080H.3 SFRSYM    DATA     BIT       P0_B3
      000000C0H   SFRSYM    DATA     BYTE      SMB0CN0
      00000090H.3 SFRSYM    DATA     BIT       P1_B3
      00000080H.4 SFRSYM    DATA     BIT       P0_B4
      00000090H.4 SFRSYM    DATA     BIT       P1_B4
      00000080H.5 SFRSYM    DATA     BIT       P0_B5
      00000090H.5 SFRSYM    DATA     BIT       P1_B5
      00000080H.6 SFRSYM    DATA     BIT       P0_B6
      00000090H.6 SFRSYM    DATA     BIT       P1_B6
      00000080H.7 SFRSYM    DATA     BIT       P0_B7
      00000090H.7 SFRSYM    DATA     BIT       P1_B7
      00000080H.2 SFRSYM    DATA     BIT       BSP_BTN0
      00000083H   SFRSYM    DATA     BYTE      DPH
      000000C4H   SFRSYM    DATA     BYTE      ADC0GTH
      000000C8H.7 SFRSYM    DATA     BIT       TMR2CN0_TF2H
      000000C8H.3 SFRSYM    DATA     BIT       TMR2CN0_T2SPLIT
      000000D0H.6 SFRSYM    DATA     BIT       PSW_AC
      000000F8H   SFRSYM    DATA     BYTE      SPI0CN0
      000000C7H   SFRSYM    DATA     BYTE      HFO0CAL
      00000088H.5 SFRSYM    DATA     BIT       TCON_TF0
      00000098H   SFRSYM    DATA     BIT       SCON0_RI
      00000082H   SFRSYM    DATA     BYTE      DPL
LX51 LINKER/LOCATER V4.66.30.0                                                        01/24/2020  09:48:17  PAGE 80


      00000088H.7 SFRSYM    DATA     BIT       TCON_TF1
      00000099H   SFRSYM    DATA     BYTE      SBUF0
      00000087H   SFRSYM    DATA     BYTE      PCON0
      000000C3H   SFRSYM    DATA     BYTE      ADC0GTL
      000000C8H.6 SFRSYM    DATA     BIT       TMR2CN0_TF2L
      00000098H.1 SFRSYM    DATA     BIT       SCON0_TI
      000000E8H   SFRSYM    DATA     BIT       ADC0CN0_ADCM0
      000000C6H   SFRSYM    DATA     BYTE      ADC0LTH
      00000088H   SFRSYM    DATA     BIT       TCON_IT0
      000000E8H.1 SFRSYM    DATA     BIT       ADC0CN0_ADCM1
      000000EFH   SFRSYM    DATA     BYTE      RSTSRC
      000000FDH   SFRSYM    DATA     BYTE      P0MAT
      000000DEH   SFRSYM    DATA     BYTE      CRC0DAT
      00000088H.2 SFRSYM    DATA     BIT       TCON_IT1
      000000E8H.2 SFRSYM    DATA     BIT       ADC0CN0_ADCM2
      00000098H   SFRSYM    DATA     BYTE      SCON0
      000000F6H   SFRSYM    DATA     BYTE      PRTDRV
      000000EDH   SFRSYM    DATA     BYTE      P1MAT
      000000E8H.3 SFRSYM    DATA     BIT       ADC0CN0_ADWINT
      000000E8H.4 SFRSYM    DATA     BIT       ADC0CN0_ADBUSY
      000000D6H   SFRSYM    DATA     BYTE      SMB0ADM
      000000C5H   SFRSYM    DATA     BYTE      ADC0LTL
      000000F8H.5 SFRSYM    DATA     BIT       SPI0CN0_MODF
      000000B8H.6 SFRSYM    DATA     BIT       IP_PSPI0
      0000009CH   SFRSYM    DATA     BYTE      PCA0CLR
      000000C8H   SFRSYM    DATA     BYTE      TMR2CN0
      00000091H   SFRSYM    DATA     BYTE      TMR3CN0
      000000D7H   SFRSYM    DATA     BYTE      SMB0ADR
      00000088H.4 SFRSYM    DATA     BIT       TCON_TR0
      000000C8H.4 SFRSYM    DATA     BIT       TMR2CN0_TF2CEN
      00000088H.6 SFRSYM    DATA     BIT       TCON_TR1
      000000C2H   SFRSYM    DATA     BYTE      SMB0DAT
      000000CDH   SFRSYM    DATA     BYTE      TMR2H
      000000A1H   SFRSYM    DATA     BYTE      SPI0CFG
      00000095H   SFRSYM    DATA     BYTE      TMR3H
      000000D3H   SFRSYM    DATA     BYTE      CRC0CNT
      00000096H   SFRSYM    DATA     BYTE      PCA0POL
      000000CCH   SFRSYM    DATA     BYTE      TMR2L
      000000F8H.7 SFRSYM    DATA     BIT       SPI0CN0_SPIF
      00000094H   SFRSYM    DATA     BYTE      TMR3L
      000000DFH   SFRSYM    DATA     BYTE      ADC0PWR
      000000A8H.7 SFRSYM    DATA     BIT       IE_EA
      000000C8H.5 SFRSYM    DATA     BIT       TMR2CN0_TF2LEN
      000000F8H.6 SFRSYM    DATA     BIT       SPI0CN0_WCOL
      000000F8H.2 SFRSYM    DATA     BIT       SPI0CN0_NSSMD0
      000000D0H.7 SFRSYM    DATA     BIT       PSW_CY
      000000A3H   SFRSYM    DATA     BYTE      SPI0DAT
      000000F8H.3 SFRSYM    DATA     BIT       SPI0CN0_NSSMD1
      000000BDH   SFRSYM    DATA     WORD      ADC0
      000000D0H   SFRSYM    DATA     BYTE      PSW
      000000F7H   SFRSYM    DATA     BYTE      PCA0PWM
      000000B6H   SFRSYM    DATA     BYTE      REVID
      000000B7H   SFRSYM    DATA     BYTE      FLKEY
      000000B3H   SFRSYM    DATA     BYTE      ADC0AC
      00000020H.0 SYMBOL    BIT      BIT       motor_spinning
      02000035H   SYMBOL    XDATA    DWORD     accum_motor_current
      02000039H   SYMBOL    XDATA    WORD      opamp_offset
      00000020H.1 SYMBOL    BIT      BIT       rising_bemf
      0200003BH   SYMBOL    XDATA    BYTE      stall_check_count
      0200003CH   SYMBOL    XDATA    BYTE      accum_motor_current_count
      01000C18H   SYMBOL    CODE     ---       MTR_process_errors
      00000020H.7 SYMBOL    BIT      BIT       motor_direction
LX51 LINKER/LOCATER V4.66.30.0                                                        01/24/2020  09:48:17  PAGE 81


      01000AC5H   SYMBOL    CODE     ---       MTR_process_adc
      0200004FH   SYMBOL    XDATA    BYTE      average_motor_current_adc
      02000050H   SYMBOL    XDATA    WORD      prev_I
      02000054H   SYMBOL    XDATA    WORD      prev_rpm

      01001977H   BLOCK     CODE     ---       LVL=0
      01001977H   LINE      CODE     ---       #267
      01001977H   LINE      CODE     ---       #268
      01001977H   LINE      CODE     ---       #269
      0100197AH   LINE      CODE     ---       #270
      0100197DH   LINE      CODE     ---       #271
      01001980H   LINE      CODE     ---       #272
      01001983H   LINE      CODE     ---       #273
      01001986H   LINE      CODE     ---       #274
      01001988H   LINE      CODE     ---       #276
      0100198BH   LINE      CODE     ---       #277
      0100198DH   LINE      CODE     ---       #278
      0100198FH   LINE      CODE     ---       #279
      01001995H   LINE      CODE     ---       #280
      01001997H   LINE      CODE     ---       #285
      0100199DH   LINE      CODE     ---       #286
      0100199FH   LINE      CODE     ---       #287
      010019A3H   LINE      CODE     ---       #288
      010019A7H   LINE      CODE     ---       #289
      010019ADH   LINE      CODE     ---       #299
      ---         BLOCKEND  ---      ---       LVL=0

      010019AEH   BLOCK     CODE     ---       LVL=0
      010019AEH   LINE      CODE     ---       #313
      010019AEH   LINE      CODE     ---       #314
      010019AEH   LINE      CODE     ---       #315
      010019B1H   LINE      CODE     ---       #316
      010019B4H   LINE      CODE     ---       #317
      010019BAH   LINE      CODE     ---       #318
      010019BAH   LINE      CODE     ---       #320
      010019C0H   LINE      CODE     ---       #321
      010019CAH   LINE      CODE     ---       #322
      010019CFH   LINE      CODE     ---       #323
      010019D5H   LINE      CODE     ---       #324
      010019D7H   LINE      CODE     ---       #325
      010019DBH   LINE      CODE     ---       #326
      010019DBH   LINE      CODE     ---       #327
      010019DEH   LINE      CODE     ---       #330
      010019E1H   LINE      CODE     ---       #333
      010019E1H   LINE      CODE     ---       #336
      010019E4H   LINE      CODE     ---       #341
      ---         BLOCKEND  ---      ---       LVL=0

      01001BBDH   BLOCK     CODE     ---       LVL=0
      01001BBDH   LINE      CODE     ---       #357
      01001BBDH   LINE      CODE     ---       #358
      01001BBDH   LINE      CODE     ---       #359
      01001BC5H   LINE      CODE     ---       #360
      01001BC5H   LINE      CODE     ---       #362
      01001BC5H   LINE      CODE     ---       #364
      01001BC9H   LINE      CODE     ---       #365
      01001BCCH   LINE      CODE     ---       #366
      01001BCFH   LINE      CODE     ---       #367
      01001BCFH   LINE      CODE     ---       #368
      01001BD2H   LINE      CODE     ---       #369
      01001BD2H   LINE      CODE     ---       #370
      01001BD5H   LINE      CODE     ---       #374
LX51 LINKER/LOCATER V4.66.30.0                                                        01/24/2020  09:48:17  PAGE 82


      01001BDBH   LINE      CODE     ---       #375
      01001BDDH   LINE      CODE     ---       #376
      01001BDFH   LINE      CODE     ---       #379
      01001BE3H   LINE      CODE     ---       #380
      ---         BLOCKEND  ---      ---       LVL=0

      01001843H   BLOCK     CODE     ---       LVL=0
      01001843H   BLOCK     CODE     NEAR LAB  LVL=1
      00000021H.4 SYMBOL    BIT      BIT       saved_ea
      ---         BLOCKEND  ---      ---       LVL=1
      01001843H   LINE      CODE     ---       #400
      01001843H   LINE      CODE     ---       #401
      01001843H   LINE      CODE     ---       #405
      01001845H   LINE      CODE     ---       #407
      01001848H   LINE      CODE     ---       #408
      0100184FH   LINE      CODE     ---       #409
      0100184FH   LINE      CODE     ---       #411
      0100184FH   LINE      CODE     ---       #415
      01001855H   LINE      CODE     ---       #416
      0100185DH   LINE      CODE     ---       #417
      01001860H   LINE      CODE     ---       #418
      01001864H   LINE      CODE     ---       #420
      01001867H   LINE      CODE     ---       #423
      0100186AH   LINE      CODE     ---       #425
      0100186EH   LINE      CODE     ---       #426
      01001874H   LINE      CODE     ---       #427
      01001876H   LINE      CODE     ---       #428
      0100187CH   LINE      CODE     ---       #429
      01001883H   LINE      CODE     ---       #430
      ---         BLOCKEND  ---      ---       LVL=0

      01001575H   BLOCK     CODE     ---       LVL=0
      01001575H   BLOCK     CODE     NEAR LAB  LVL=1
      0000005EH   SYMBOL    DATA     BYTE      t1
      00000007H   SYMBOL    DATA     BYTE      t2
      00000006H   SYMBOL    DATA     BYTE      gap
      00000021H.4 SYMBOL    BIT      BIT       rising_zc_done
      00000021H.5 SYMBOL    BIT      BIT       cptout
      010015B0H   SYMBOL    CODE     VOID      check_direction
      010015D0H   SYMBOL    CODE     VOID      exit_check_spinning
      ---         BLOCKEND  ---      ---       LVL=1
      01001575H   LINE      CODE     ---       #443
      01001575H   LINE      CODE     ---       #444
      01001575H   LINE      CODE     ---       #450
      01001578H   LINE      CODE     ---       #452
      0100157BH   LINE      CODE     ---       #455
      0100157EH   LINE      CODE     ---       #456
      01001583H   LINE      CODE     ---       #457
      01001583H   LINE      CODE     ---       #458
      01001585H   LINE      CODE     ---       #459
      01001587H   LINE      CODE     ---       #461
      01001587H   LINE      CODE     ---       #462
      0100158AH   LINE      CODE     ---       #463
      0100158FH   LINE      CODE     ---       #465
      01001597H   LINE      CODE     ---       #466
      01001597H   LINE      CODE     ---       #467
      01001599H   LINE      CODE     ---       #468
      0100159BH   LINE      CODE     ---       #469
      0100159EH   LINE      CODE     ---       #470
      010015A0H   LINE      CODE     ---       #472
      010015A8H   LINE      CODE     ---       #473
      010015A8H   LINE      CODE     ---       #474
LX51 LINKER/LOCATER V4.66.30.0                                                        01/24/2020  09:48:17  PAGE 83


      010015A8H   LINE      CODE     ---       #475
      010015A8H   LINE      CODE     ---       #476
      010015AEH   LINE      CODE     ---       #478
      010015B0H   LINE      CODE     ---       #480
      010015B0H   LINE      CODE     ---       #483
      010015B3H   LINE      CODE     ---       #486
      010015B6H   LINE      CODE     ---       #487
      010015B9H   LINE      CODE     ---       #488
      010015C2H   LINE      CODE     ---       #489
      010015CAH   LINE      CODE     ---       #490
      010015CAH   LINE      CODE     ---       #491
      010015CCH   LINE      CODE     ---       #492
      010015CEH   LINE      CODE     ---       #494
      010015CEH   LINE      CODE     ---       #495
      010015D0H   LINE      CODE     ---       #496
      010015D0H   LINE      CODE     ---       #497
      010015D0H   LINE      CODE     ---       #498
      010015D3H   LINE      CODE     ---       #499
      010015D6H   LINE      CODE     ---       #500
      ---         BLOCKEND  ---      ---       LVL=0

      0100172EH   BLOCK     CODE     ---       LVL=0
      0100172EH   LINE      CODE     ---       #515
      0100172EH   LINE      CODE     ---       #516
      0100172EH   LINE      CODE     ---       #517
      01001738H   LINE      CODE     ---       #519
      0100175FH   LINE      CODE     ---       #523
      01001762H   LINE      CODE     ---       #524
      01001762H   LINE      CODE     ---       #528
      01001768H   LINE      CODE     ---       #529
      01001769H   LINE      CODE     ---       #531
      01001769H   LINE      CODE     ---       #532
      01001775H   LINE      CODE     ---       #533
      01001775H   LINE      CODE     ---       #534
      ---         BLOCKEND  ---      ---       LVL=0

      010017BDH   BLOCK     CODE     VOID      LVL=0
      ---         BLOCKEND  ---      ---       LVL=0

      010017C6H   BLOCK     CODE     ---       LVL=0
      010017C6H   LINE      CODE     ---       #571
      010017C6H   LINE      CODE     ---       #572
      010017C6H   LINE      CODE     ---       #576
      010017D3H   LINE      CODE     ---       #578
      010017D8H   LINE      CODE     ---       #579
      010017DEH   LINE      CODE     ---       #580
      010017E2H   LINE      CODE     ---       #582
      010017E5H   LINE      CODE     ---       #584
      010017E8H   LINE      CODE     ---       #585
      010017E8H   LINE      CODE     ---       #586
      010017EAH   LINE      CODE     ---       #587
      010017F1H   LINE      CODE     ---       #588
      010017F4H   LINE      CODE     ---       #589
      010017F5H   LINE      CODE     ---       #592
      010017F5H   LINE      CODE     ---       #593
      010017F7H   LINE      CODE     ---       #594
      010017FEH   LINE      CODE     ---       #595
      01001801H   LINE      CODE     ---       #596
      01001801H   LINE      CODE     ---       #597
      ---         BLOCKEND  ---      ---       LVL=0

      010004D2H   BLOCK     CODE     ---       LVL=0
LX51 LINKER/LOCATER V4.66.30.0                                                        01/24/2020  09:48:17  PAGE 84


      010004D2H   BLOCK     CODE     NEAR LAB  LVL=1
      0000005EH   SYMBOL    DATA     BYTE      idx
      0000005FH   SYMBOL    DATA     BYTE      tmp
      00000021H.4 SYMBOL    BIT      BIT       saved_ea
      02000071H   SYMBOL    XDATA    DWORD     SIG_k_1
      02000075H   SYMBOL    XDATA    DWORD     SIG_k
      00000060H   SYMBOL    DATA     WORD      T_k
      ---         BLOCKEND  ---      ---       LVL=1
      010004D2H   LINE      CODE     ---       #616
      010004D2H   LINE      CODE     ---       #617
      010004D2H   LINE      CODE     ---       #625
      010004D5H   LINE      CODE     ---       #627
      010004DEH   LINE      CODE     ---       #628
      010004E6H   LINE      CODE     ---       #630
      010004E8H   LINE      CODE     ---       #632
      010004F2H   LINE      CODE     ---       #636
      010004F5H   LINE      CODE     ---       #639
      010004FAH   LINE      CODE     ---       #642
      01000500H   LINE      CODE     ---       #643
      01000507H   LINE      CODE     ---       #646
      0100050AH   LINE      CODE     ---       #649
      0100050DH   LINE      CODE     ---       #650
      0100050FH   LINE      CODE     ---       #653
      0100050FH   LINE      CODE     ---       #654
      0100050FH   LINE      CODE     ---       #655
      01000512H   LINE      CODE     ---       #656
      01000516H   LINE      CODE     ---       #657
      01000519H   LINE      CODE     ---       #658
      01000522H   LINE      CODE     ---       #659
      01000522H   LINE      CODE     ---       #660
      01000527H   LINE      CODE     ---       #661
      01000529H   LINE      CODE     ---       #664
      0100052CH   LINE      CODE     ---       #665
      0100052EH   LINE      CODE     ---       #667
      0100052EH   LINE      CODE     ---       #669
      0100052EH   LINE      CODE     ---       #670
      0100052EH   LINE      CODE     ---       #671
      01000531H   LINE      CODE     ---       #672
      01000535H   LINE      CODE     ---       #674
      0100053CH   LINE      CODE     ---       #675
      0100053CH   LINE      CODE     ---       #676
      01000555H   LINE      CODE     ---       #677
      01000557H   LINE      CODE     ---       #679
      01000557H   LINE      CODE     ---       #683
      01000584H   LINE      CODE     ---       #684
      01000584H   LINE      CODE     ---       #685
      01000598H   LINE      CODE     ---       #686
      010005BDH   LINE      CODE     ---       #688
      010005C9H   LINE      CODE     ---       #689
      010005CFH   LINE      CODE     ---       #690
      010005D2H   LINE      CODE     ---       #692
      010005D5H   LINE      CODE     ---       #694
      010005D8H   LINE      CODE     ---       #695
      010005DBH   LINE      CODE     ---       #696
      010005E2H   LINE      CODE     ---       #697
      010005E2H   LINE      CODE     ---       #698
      010005E7H   LINE      CODE     ---       #699
      010005E7H   LINE      CODE     ---       #700
      010005EAH   LINE      CODE     ---       #701
      010005ECH   LINE      CODE     ---       #702
      010005ECH   LINE      CODE     ---       #703
      010005F1H   LINE      CODE     ---       #704
LX51 LINKER/LOCATER V4.66.30.0                                                        01/24/2020  09:48:17  PAGE 85


      010005F1H   LINE      CODE     ---       #705
      010005F4H   LINE      CODE     ---       #706
      010005FAH   LINE      CODE     ---       #707
      010005FDH   LINE      CODE     ---       #708
      01000600H   LINE      CODE     ---       #709
      01000604H   LINE      CODE     ---       #710
      01000604H   LINE      CODE     ---       #711
      01000606H   LINE      CODE     ---       #713
      01000609H   LINE      CODE     ---       #714
      01000617H   LINE      CODE     ---       #715
      01000617H   LINE      CODE     ---       #716
      01000617H   LINE      CODE     ---       #717
      01000617H   LINE      CODE     ---       #720
      01000628H   LINE      CODE     ---       #721
      01000633H   LINE      CODE     ---       #722
      01000645H   LINE      CODE     ---       #723
      01000645H   LINE      CODE     ---       #724
      0100064BH   LINE      CODE     ---       #725
      0100064BH   LINE      CODE     ---       #726
      01000651H   LINE      CODE     ---       #729
      01000654H   LINE      CODE     ---       #730
      01000657H   LINE      CODE     ---       #733
      0100065FH   LINE      CODE     ---       #734
      01000662H   LINE      CODE     ---       #735
      ---         BLOCKEND  ---      ---       LVL=0

      01000663H   BLOCK     CODE     ---       LVL=0
      01000663H   BLOCK     CODE     NEAR LAB  LVL=1
      00000021H.4 SYMBOL    BIT      BIT       saved_ea
      00000021H.5 SYMBOL    BIT      BIT       is_1st_crossing
      0000005EH   SYMBOL    DATA     ---       ticks
      ---         BLOCKEND  ---      ---       LVL=1
      01000663H   LINE      CODE     ---       #749
      01000663H   LINE      CODE     ---       #750
      01000663H   LINE      CODE     ---       #758
      01000666H   LINE      CODE     ---       #762
      01000669H   LINE      CODE     ---       #764
      0100066EH   LINE      CODE     ---       #766
      01000671H   LINE      CODE     ---       #769
      01000676H   LINE      CODE     ---       #770
      0100067AH   LINE      CODE     ---       #772
      0100067DH   LINE      CODE     ---       #776
      01000681H   LINE      CODE     ---       #777
      01000683H   LINE      CODE     ---       #778
      01000688H   LINE      CODE     ---       #779
      01000688H   LINE      CODE     ---       #780
      0100068EH   LINE      CODE     ---       #781
      0100068EH   LINE      CODE     ---       #783
      01000691H   LINE      CODE     ---       #784
      01000691H   LINE      CODE     ---       #786
      01000697H   LINE      CODE     ---       #787
      0100069AH   LINE      CODE     ---       #788
      0100069AH   LINE      CODE     ---       #789
      0100069AH   LINE      CODE     ---       #790
      0100069AH   LINE      CODE     ---       #791
      0100069CH   LINE      CODE     ---       #793
      0100069CH   LINE      CODE     ---       #795
      010006A2H   LINE      CODE     ---       #796
      010006A5H   LINE      CODE     ---       #797
      010006ABH   LINE      CODE     ---       #799
      010006B0H   LINE      CODE     ---       #800
      010006B3H   LINE      CODE     ---       #801
LX51 LINKER/LOCATER V4.66.30.0                                                        01/24/2020  09:48:17  PAGE 86


      010006B7H   LINE      CODE     ---       #802
      010006B7H   LINE      CODE     ---       #806
      010006BCH   LINE      CODE     ---       #807
      010006BCH   LINE      CODE     ---       #809
      010006BFH   LINE      CODE     ---       #810
      010006BFH   LINE      CODE     ---       #811
      010006C2H   LINE      CODE     ---       #812
      010006C5H   LINE      CODE     ---       #813
      010006C7H   LINE      CODE     ---       #816
      010006C7H   LINE      CODE     ---       #817
      010006CAH   LINE      CODE     ---       #818
      010006CDH   LINE      CODE     ---       #819
      010006CDH   LINE      CODE     ---       #820
      010006CFH   LINE      CODE     ---       #821
      010006D1H   LINE      CODE     ---       #823
      010006D6H   LINE      CODE     ---       #824
      010006D6H   LINE      CODE     ---       #826
      010006D9H   LINE      CODE     ---       #827
      010006D9H   LINE      CODE     ---       #828
      010006DCH   LINE      CODE     ---       #829
      010006DFH   LINE      CODE     ---       #830
      010006E1H   LINE      CODE     ---       #833
      010006E1H   LINE      CODE     ---       #834
      010006E4H   LINE      CODE     ---       #835
      010006E7H   LINE      CODE     ---       #836
      010006E7H   LINE      CODE     ---       #837
      010006E9H   LINE      CODE     ---       #838
      010006E9H   LINE      CODE     ---       #840
      010006ECH   LINE      CODE     ---       #842
      010006EFH   LINE      CODE     ---       #843
      010006EFH   LINE      CODE     ---       #844
      010006F1H   LINE      CODE     ---       #845
      010006F3H   LINE      CODE     ---       #847
      010006F3H   LINE      CODE     ---       #848
      010006F3H   LINE      CODE     ---       #849
      010006F3H   LINE      CODE     ---       #850
      010006F3H   LINE      CODE     ---       #851
      010006F3H   LINE      CODE     ---       #853
      010006F8H   LINE      CODE     ---       #854
      010006F8H   LINE      CODE     ---       #855
      010006FBH   LINE      CODE     ---       #857
      010006FBH   LINE      CODE     ---       #858
      010006FDH   LINE      CODE     ---       #867
      01000710H   LINE      CODE     ---       #872
      01000713H   LINE      CODE     ---       #873
      0100072CH   LINE      CODE     ---       #875
      01000732H   LINE      CODE     ---       #877
      01000735H   LINE      CODE     ---       #878
      0100075BH   LINE      CODE     ---       #879
      0100075EH   LINE      CODE     ---       #880
      01000768H   LINE      CODE     ---       #882
      0100076AH   LINE      CODE     ---       #883
      0100076DH   LINE      CODE     ---       #884
      01000770H   LINE      CODE     ---       #886
      01000772H   LINE      CODE     ---       #887
      01000774H   LINE      CODE     ---       #888
      01000778H   LINE      CODE     ---       #892
      0100077BH   LINE      CODE     ---       #893
      0100077EH   LINE      CODE     ---       #894
      0100078DH   LINE      CODE     ---       #895
      0100078FH   LINE      CODE     ---       #898
      01000792H   LINE      CODE     ---       #899
LX51 LINKER/LOCATER V4.66.30.0                                                        01/24/2020  09:48:17  PAGE 87


      01000795H   LINE      CODE     ---       #901
      01000798H   LINE      CODE     ---       #903
      0100079AH   LINE      CODE     ---       #906
      0100079DH   LINE      CODE     ---       #912
      010007C7H   LINE      CODE     ---       #913
      010007C9H   LINE      CODE     ---       #914
      010007CBH   LINE      CODE     ---       #915
      010007D4H   LINE      CODE     ---       #916
      010007DEH   LINE      CODE     ---       #918
      010007E0H   LINE      CODE     ---       #919
      010007E7H   LINE      CODE     ---       #922
      010007EAH   LINE      CODE     ---       #924
      ---         BLOCKEND  ---      ---       LVL=0

      01001776H   BLOCK     CODE     ---       LVL=0
      01001776H   BLOCK     CODE     NEAR LAB  LVL=1
      02000071H   SYMBOL    XDATA    DWORD     t0
      00000021H.4 SYMBOL    BIT      BIT       saved_ea
      ---         BLOCKEND  ---      ---       LVL=1
      01001776H   LINE      CODE     ---       #938
      01001776H   LINE      CODE     ---       #939
      01001776H   LINE      CODE     ---       #946
      01001779H   LINE      CODE     ---       #947
      01001779H   LINE      CODE     ---       #948
      0100177BH   LINE      CODE     ---       #949
      01001781H   LINE      CODE     ---       #950
      01001795H   LINE      CODE     ---       #951
      01001799H   LINE      CODE     ---       #952
      010017BAH   LINE      CODE     ---       #954
      010017BCH   LINE      CODE     ---       #955
      010017BCH   LINE      CODE     ---       #956
      ---         BLOCKEND  ---      ---       LVL=0

      0100193FH   BLOCK     CODE     ---       LVL=0
      0100193FH   BLOCK     CODE     NEAR LAB  LVL=1
      00000023H   SYMBOL    DATA     BYTE      ovf
      ---         BLOCKEND  ---      ---       LVL=1
      0100193FH   LINE      CODE     ---       #969
      0100193FH   LINE      CODE     ---       #970
      0100193FH   LINE      CODE     ---       #973
      0100194FH   LINE      CODE     ---       #974
      01001951H   LINE      CODE     ---       #975
      01001954H   LINE      CODE     ---       #976
      01001957H   LINE      CODE     ---       #977
      0100195DH   LINE      CODE     ---       #978
      01001963H   LINE      CODE     ---       #979
      01001965H   LINE      CODE     ---       #981
      0100196EH   LINE      CODE     ---       #982
      0100196EH   LINE      CODE     ---       #983
      01001976H   LINE      CODE     ---       #984
      01001976H   LINE      CODE     ---       #985
      ---         BLOCKEND  ---      ---       LVL=0

      01001E3EH   BLOCK     CODE     ---       LVL=0
      01001E3EH   LINE      CODE     ---       #1000
      01001E3EH   LINE      CODE     ---       #1001
      01001E3EH   LINE      CODE     ---       #1011
      01001E45H   LINE      CODE     ---       #1087
      ---         BLOCKEND  ---      ---       LVL=0

      01001D95H   BLOCK     CODE     ---       LVL=0
      01001D95H   BLOCK     CODE     NEAR LAB  LVL=1
LX51 LINKER/LOCATER V4.66.30.0                                                        01/24/2020  09:48:17  PAGE 88


      00000021H.6 SYMBOL    BIT      BIT       saved_ea
      00000006H   SYMBOL    DATA     WORD      xtime
      ---         BLOCKEND  ---      ---       LVL=1
      01001D95H   LINE      CODE     ---       #1105
      01001D95H   LINE      CODE     ---       #1106
      01001D95H   LINE      CODE     ---       #1110
      01001D9BH   LINE      CODE     ---       #1111
      01001D9FH   LINE      CODE     ---       #1112
      01001DA3H   LINE      CODE     ---       #1114
      01001DA3H   LINE      CODE     ---       #1115
      ---         BLOCKEND  ---      ---       LVL=0

      01000046H   BLOCK     CODE     ---       LVL=0
      00000007H   SYMBOL    DATA     BYTE      poles
      01000046H   LINE      CODE     ---       #1128
      01000046H   LINE      CODE     ---       #1129
      01000046H   LINE      CODE     ---       #1130
      0100004BH   LINE      CODE     ---       #1132
      01000059H   LINE      CODE     ---       #1133
      ---         BLOCKEND  ---      ---       LVL=0

      01000AC5H   BLOCK     CODE     ---       LVL=0
      01000AC5H   BLOCK     CODE     NEAR LAB  LVL=1
      02000030H   SYMBOL    XDATA    WORD      prev_opamp_offset
      02000071H   SYMBOL    XDATA    ---       tmp
      ---         BLOCKEND  ---      ---       LVL=1
      01000AC5H   LINE      CODE     ---       #1144
      01000AC5H   LINE      CODE     ---       #1145
      01000AC5H   LINE      CODE     ---       #1149
      01000ACDH   LINE      CODE     ---       #1150
      01000ACDH   LINE      CODE     ---       #1152
      01000ADDH   LINE      CODE     ---       #1155
      01000AE2H   LINE      CODE     ---       #1156
      01000AE2H   LINE      CODE     ---       #1157
      01000AEAH   LINE      CODE     ---       #1158
      01000B1EH   LINE      CODE     ---       #1160
      01000B26H   LINE      CODE     ---       #1161
      01000B29H   LINE      CODE     ---       #1163
      01000B29H   LINE      CODE     ---       #1164
      01000B3FH   LINE      CODE     ---       #1165
      01000B3FH   LINE      CODE     ---       #1166
      01000B46H   LINE      CODE     ---       #1167
      01000B48H   LINE      CODE     ---       #1169
      01000B48H   LINE      CODE     ---       #1170
      01000B55H   LINE      CODE     ---       #1171
      01000B55H   LINE      CODE     ---       #1173
      01000B80H   LINE      CODE     ---       #1174
      01000B88H   LINE      CODE     ---       #1175
      01000B88H   LINE      CODE     ---       #1176
      01000BA3H   LINE      CODE     ---       #1177
      01000BB7H   LINE      CODE     ---       #1178
      01000BC1H   LINE      CODE     ---       #1179
      01000BC7H   LINE      CODE     ---       #1185
      01000BE7H   LINE      CODE     ---       #1186
      01000BE7H   LINE      CODE     ---       #1187
      01000BE7H   LINE      CODE     ---       #1188
      01000BE7H   LINE      CODE     ---       #1191
      01000BECH   LINE      CODE     ---       #1192
      01000BECH   LINE      CODE     ---       #1194
      01000BFBH   LINE      CODE     ---       #1197
      01000C17H   LINE      CODE     ---       #1200
      01000C17H   LINE      CODE     ---       #1202
LX51 LINKER/LOCATER V4.66.30.0                                                        01/24/2020  09:48:17  PAGE 89


      ---         BLOCKEND  ---      ---       LVL=0

      01000C18H   BLOCK     CODE     ---       LVL=0
      01000C18H   BLOCK     CODE     NEAR LAB  LVL=1
      00000024H   SYMBOL    DATA     BYTE      oc_count
      00000006H   SYMBOL    DATA     WORD      gap
      0000005EH   SYMBOL    DATA     WORD      delta_I
      00000060H   SYMBOL    DATA     WORD      rpm_changes
      00000006H   SYMBOL    DATA     WORD      i_changes
      ---         BLOCKEND  ---      ---       LVL=1
      01000C18H   LINE      CODE     ---       #1213
      01000C18H   LINE      CODE     ---       #1214
      01000C18H   LINE      CODE     ---       #1220
      01000C1EH   LINE      CODE     ---       #1221
      01000C1EH   LINE      CODE     ---       #1222
      01000C20H   LINE      CODE     ---       #1223
      01000C2BH   LINE      CODE     ---       #1226
      01000C2BH   LINE      CODE     ---       #1228
      01000C2EH   LINE      CODE     ---       #1229
      01000C2EH   LINE      CODE     ---       #1230
      01000C40H   LINE      CODE     ---       #1231
      01000C4CH   LINE      CODE     ---       #1232
      01000C4CH   LINE      CODE     ---       #1233
      01000C4EH   LINE      CODE     ---       #1234
      01000C50H   LINE      CODE     ---       #1236
      01000C51H   LINE      CODE     ---       #1238
      01000C51H   LINE      CODE     ---       #1240
      01000C59H   LINE      CODE     ---       #1241
      01000C59H   LINE      CODE     ---       #1243
      01000C67H   LINE      CODE     ---       #1244
      01000C67H   LINE      CODE     ---       #1245
      01000C75H   LINE      CODE     ---       #1247
      01000C75H   LINE      CODE     ---       #1248
      01000C77H   LINE      CODE     ---       #1249
      01000C7CH   LINE      CODE     ---       #1250
      01000C7CH   LINE      CODE     ---       #1251
      01000C7EH   LINE      CODE     ---       #1252
      01000C7EH   LINE      CODE     ---       #1253
      01000C80H   LINE      CODE     ---       #1255
      01000C80H   LINE      CODE     ---       #1256
      01000C83H   LINE      CODE     ---       #1257
      01000C83H   LINE      CODE     ---       #1258
      01000C83H   LINE      CODE     ---       #1262
      01000C8EH   LINE      CODE     ---       #1263
      01000C8EH   LINE      CODE     ---       #1267
      01000CB6H   LINE      CODE     ---       #1268
      01000CB6H   LINE      CODE     ---       #1269
      01000CBFH   LINE      CODE     ---       #1273
      01000CD7H   LINE      CODE     ---       #1274
      01000CF2H   LINE      CODE     ---       #1276
      01000D05H   LINE      CODE     ---       #1277
      01000D2BH   LINE      CODE     ---       #1279
      01000D34H   LINE      CODE     ---       #1280
      01000D34H   LINE      CODE     ---       #1281
      01000D36H   LINE      CODE     ---       #1282
      01000D36H   LINE      CODE     ---       #1283
      01000D36H   LINE      CODE     ---       #1284
      01000D3CH   LINE      CODE     ---       #1285
      01000D4BH   LINE      CODE     ---       #1286
      01000D5AH   LINE      CODE     ---       #1287
      01000D5AH   LINE      CODE     ---       #1289
      01000D5AH   LINE      CODE     ---       #1291
LX51 LINKER/LOCATER V4.66.30.0                                                        01/24/2020  09:48:17  PAGE 90


      01000D5DH   LINE      CODE     ---       #1292
      01000D5DH   LINE      CODE     ---       #1293
      01000D60H   LINE      CODE     ---       #1294
      01000D62H   LINE      CODE     ---       #1295
      01000D64H   LINE      CODE     ---       #1296
      01000D64H   LINE      CODE     ---       #1298
      ---         BLOCKEND  ---      ---       LVL=0

      0100096DH   BLOCK     CODE     ---       LVL=0
      0100098AH   BLOCK     CODE     NEAR LAB  LVL=1
      00000025H   SYMBOL    DATA     ---       ticks
      ---         BLOCKEND  ---      ---       LVL=1
      0100096DH   LINE      CODE     ---       #1310
      0100098AH   LINE      CODE     ---       #1315
      0100098DH   LINE      CODE     ---       #1316
      010009A6H   LINE      CODE     ---       #1319
      010009ECH   LINE      CODE     ---       #1323
      01000A04H   LINE      CODE     ---       #1324
      01000A07H   LINE      CODE     ---       #1325
      01000A07H   LINE      CODE     ---       #1326
      01000A15H   LINE      CODE     ---       #1327
      01000A21H   LINE      CODE     ---       #1328
      01000A27H   LINE      CODE     ---       #1329
      01000A29H   LINE      CODE     ---       #1330
      01000A29H   LINE      CODE     ---       #1333
      01000A3EH   LINE      CODE     ---       #1334
      01000A53H   LINE      CODE     ---       #1335
      01000A53H   LINE      CODE     ---       #1336
      01000A6BH   LINE      CODE     ---       #1337
      01000A6DH   LINE      CODE     ---       #1339
      01000A6DH   LINE      CODE     ---       #1340
      01000A79H   LINE      CODE     ---       #1341
      01000A79H   LINE      CODE     ---       #1344
      01000A7CH   LINE      CODE     ---       #1345
      01000A82H   LINE      CODE     ---       #1346
      01000A85H   LINE      CODE     ---       #1389
      01000A85H   LINE      CODE     ---       #1390
      01000A88H   LINE      CODE     ---       #1391
      01000A88H   LINE      CODE     ---       #1392
      01000A93H   LINE      CODE     ---       #1394
      01000A96H   LINE      CODE     ---       #1395
      01000A99H   LINE      CODE     ---       #1396
      01000A9BH   LINE      CODE     ---       #1399
      01000A9EH   LINE      CODE     ---       #1400
      01000AA1H   LINE      CODE     ---       #1410
      01000AA4H   LINE      CODE     ---       #1412
      01000AA7H   LINE      CODE     ---       #1414
      01000AAAH   LINE      CODE     ---       #1415
      ---         BLOCKEND  ---      ---       LVL=0

      01001088H   BLOCK     CODE     ---       LVL=0
      01001099H   BLOCK     CODE     NEAR LAB  LVL=1
      00000029H   SYMBOL    DATA     ---       hyt
      ---         BLOCKEND  ---      ---       LVL=1
      01001088H   LINE      CODE     ---       #1426
      01001099H   LINE      CODE     ---       #1429
      0100109BH   LINE      CODE     ---       #1432
      010010A1H   LINE      CODE     ---       #1433
      010010A1H   LINE      CODE     ---       #1434
      010010A5H   LINE      CODE     ---       #1435
      010010A5H   LINE      CODE     ---       #1436
      010010A8H   LINE      CODE     ---       #1439
LX51 LINKER/LOCATER V4.66.30.0                                                        01/24/2020  09:48:17  PAGE 91


      010010ABH   LINE      CODE     ---       #1441
      010010ADH   LINE      CODE     ---       #1442
      010010B2H   LINE      CODE     ---       #1443
      010010B2H   LINE      CODE     ---       #1444
      010010B5H   LINE      CODE     ---       #1445
      010010B7H   LINE      CODE     ---       #1447
      010010B7H   LINE      CODE     ---       #1448
      010010BDH   LINE      CODE     ---       #1449
      010010BDH   LINE      CODE     ---       #1450
      010010C0H   LINE      CODE     ---       #1452
      010010D7H   LINE      CODE     ---       #1453
      010010DAH   LINE      CODE     ---       #1454
      010010DDH   LINE      CODE     ---       #1455
      010010E0H   LINE      CODE     ---       #1456
      010010E2H   LINE      CODE     ---       #1457
      010010E5H   LINE      CODE     ---       #1458
      010010E8H   LINE      CODE     ---       #1459
      010010EBH   LINE      CODE     ---       #1461
      010010EEH   LINE      CODE     ---       #1462
      010010F1H   LINE      CODE     ---       #1463
      010010F3H   LINE      CODE     ---       #1465
      010010F3H   LINE      CODE     ---       #1466
      010010F5H   LINE      CODE     ---       #1467
      010010F8H   LINE      CODE     ---       #1468
      010010FBH   LINE      CODE     ---       #1469
      010010FEH   LINE      CODE     ---       #1470
      01001100H   LINE      CODE     ---       #1471
      01001100H   LINE      CODE     ---       #1472
      01001102H   LINE      CODE     ---       #1492
      01001106H   LINE      CODE     ---       #1493
      01001106H   LINE      CODE     ---       #1496
      01001109H   LINE      CODE     ---       #1497
      0100110BH   LINE      CODE     ---       #1498
      0100110EH   LINE      CODE     ---       #1502
      01001111H   LINE      CODE     ---       #1503
      01001114H   LINE      CODE     ---       #1504
      01001116H   LINE      CODE     ---       #1505
      01001118H   LINE      CODE     ---       #1506
      0100111AH   LINE      CODE     ---       #1507
      0100111DH   LINE      CODE     ---       #1508
      01001120H   LINE      CODE     ---       #1509
      01001123H   LINE      CODE     ---       #1510
      01001125H   LINE      CODE     ---       #1511
      0100112AH   LINE      CODE     ---       #1512
      0100112AH   LINE      CODE     ---       #1513
      0100112CH   LINE      CODE     ---       #1516
      01001133H   LINE      CODE     ---       #1517
      01001133H   LINE      CODE     ---       #1518
      01001135H   LINE      CODE     ---       #1519
      01001135H   LINE      CODE     ---       #1520
      01001135H   LINE      CODE     ---       #1521
      ---         BLOCKEND  ---      ---       LVL=0

      ---         MODULE    ---      ---       MTRAPP
      01000FA8H   PUBLIC    CODE     ---       MTRAPP_read_target_speed
      01001A85H   PUBLIC    CODE     ---       MTRAPP_read_direction
      01000E9CH   PUBLIC    CODE     ---       MTRAPP_task
      01001884H   PUBLIC    CODE     ---       MTRAPP_init
      000000A2H   SFRSYM    DATA     BYTE      SPI0CKR
      00000080H   SFRSYM    DATA     BYTE      P0
      000000D0H.2 SFRSYM    DATA     BIT       PSW_OV
      00000090H   SFRSYM    DATA     BYTE      P1
LX51 LINKER/LOCATER V4.66.30.0                                                        01/24/2020  09:48:17  PAGE 92


      00000097H   SFRSYM    DATA     BYTE      WDTCN
      000000A0H   SFRSYM    DATA     BYTE      P2
      000000BCH   SFRSYM    DATA     BYTE      ADC0CF
      000000C8H   SFRSYM    DATA     BIT       TMR2CN0_T2XCLK
      000000C0H.7 SFRSYM    DATA     BIT       SMB0CN0_MASTER
      000000F9H   SFRSYM    DATA     WORD      PCA0
      000000E6H   SFRSYM    DATA     BYTE      EIE1
      000000C0H.1 SFRSYM    DATA     BIT       SMB0CN0_ACK
      0000008FH   SFRSYM    DATA     BYTE      PSCTL
      000000E4H   SFRSYM    DATA     BYTE      IT01CF
      000000C0H.6 SFRSYM    DATA     BIT       SMB0CN0_TXMODE
      000000ADH   SFRSYM    DATA     BYTE      DERIVID
      000000A4H   SFRSYM    DATA     BYTE      P0MDOUT
      000000A5H   SFRSYM    DATA     BYTE      P1MDOUT
      000000E8H.5 SFRSYM    DATA     BIT       ADC0CN0_ADINT
      000000CBH   SFRSYM    DATA     BYTE      TMR2RLH
      000000A6H   SFRSYM    DATA     BYTE      P2MDOUT
      000000A8H   SFRSYM    DATA     BYTE      IE
      00000093H   SFRSYM    DATA     BYTE      TMR3RLH
      000000F3H   SFRSYM    DATA     BYTE      EIP1
      00000098H.2 SFRSYM    DATA     BIT       SCON0_RB8
      000000CAH   SFRSYM    DATA     BYTE      TMR2RLL
      000000FCH   SFRSYM    DATA     BYTE      PCA0CPH0
      00000092H   SFRSYM    DATA     BYTE      TMR3RLL
      000000EAH   SFRSYM    DATA     BYTE      PCA0CPH1
      00000098H.3 SFRSYM    DATA     BIT       SCON0_TB8
      000000F0H   SFRSYM    DATA     BIT       B_B0
      00000082H   SFRSYM    DATA     WORD      DP
      000000ECH   SFRSYM    DATA     BYTE      PCA0CPH2
      00000080H.2 SFRSYM    DATA     BIT       BTN0
      000000F0H.1 SFRSYM    DATA     BIT       B_B1
      000000C3H   SFRSYM    DATA     WORD      ADC0GT
      00000090H.1 SFRSYM    DATA     BIT       BTN1
      000000F0H.2 SFRSYM    DATA     BIT       B_B2
      000000FBH   SFRSYM    DATA     BYTE      PCA0CPL0
      000000F0H.3 SFRSYM    DATA     BIT       B_B3
      000000D9H   SFRSYM    DATA     BYTE      PCA0MD
      000000DAH   SFRSYM    DATA     BYTE      PCA0CPM0
      000000E9H   SFRSYM    DATA     BYTE      PCA0CPL1
      000000F0H.4 SFRSYM    DATA     BIT       B_B4
      000000DBH   SFRSYM    DATA     BYTE      PCA0CPM1
      000000EBH   SFRSYM    DATA     BYTE      PCA0CPL2
      000000F0H.5 SFRSYM    DATA     BIT       B_B5
      000000DCH   SFRSYM    DATA     BYTE      PCA0CPM2
      000000B8H   SFRSYM    DATA     BYTE      IP
      000000B9H   SFRSYM    DATA     BYTE      ADC0TK
      000000F0H.6 SFRSYM    DATA     BIT       B_B6
      000000C5H   SFRSYM    DATA     WORD      ADC0LT
      00000098H.5 SFRSYM    DATA     BIT       SCON0_MCE
      000000F0H.7 SFRSYM    DATA     BIT       B_B7
      000000E1H   SFRSYM    DATA     BYTE      XBR0
      000000C1H   SFRSYM    DATA     BYTE      SMB0CF
      000000E2H   SFRSYM    DATA     BYTE      XBR1
      000000C0H.5 SFRSYM    DATA     BIT       SMB0CN0_STA
      000000E3H   SFRSYM    DATA     BYTE      XBR2
      000000BBH   SFRSYM    DATA     BYTE      ADC0MX
      000000E0H   SFRSYM    DATA     BIT       ACC_ACC0
      000000D1H   SFRSYM    DATA     BYTE      REF0CN
      0000008EH   SFRSYM    DATA     BYTE      CKCON0
      000000E0H.1 SFRSYM    DATA     BIT       ACC_ACC1
      000000C9H   SFRSYM    DATA     BYTE      REG0CN
      000000DDH   SFRSYM    DATA     BYTE      CRC0IN
LX51 LINKER/LOCATER V4.66.30.0                                                        01/24/2020  09:48:17  PAGE 93


      000000C8H.2 SFRSYM    DATA     BIT       TMR2CN0_TR2
      000000E0H.2 SFRSYM    DATA     BIT       ACC_ACC2
      000000E0H.3 SFRSYM    DATA     BIT       ACC_ACC3
      00000081H   SFRSYM    DATA     BYTE      SP
      0000009DH   SFRSYM    DATA     BYTE      CMP0MD
      000000E0H.4 SFRSYM    DATA     BIT       ACC_ACC4
      000000B1H   SFRSYM    DATA     BYTE      LFO0CN
      000000ABH   SFRSYM    DATA     BYTE      CMP1MD
      000000D8H   SFRSYM    DATA     BIT       PCA0CN0_CCF0
      000000E0H.5 SFRSYM    DATA     BIT       ACC_ACC5
      000000D8H.1 SFRSYM    DATA     BIT       PCA0CN0_CCF1
      000000E0H.6 SFRSYM    DATA     BIT       ACC_ACC6
      000000CCH   SFRSYM    DATA     WORD      TMR2
      000000D8H.2 SFRSYM    DATA     BIT       PCA0CN0_CCF2
      000000E0H.7 SFRSYM    DATA     BIT       ACC_ACC7
      00000094H   SFRSYM    DATA     WORD      TMR3
      000000C0H.3 SFRSYM    DATA     BIT       SMB0CN0_ACKRQ
      000000FFH   SFRSYM    DATA     BYTE      VDM0CN
      000000F1H   SFRSYM    DATA     BYTE      P0MDIN
      00000098H.4 SFRSYM    DATA     BIT       SCON0_REN
      000000ACH   SFRSYM    DATA     BYTE      SMB0TC
      000000F2H   SFRSYM    DATA     BYTE      P1MDIN
      000000C0H.4 SFRSYM    DATA     BIT       SMB0CN0_STO
      000000FEH   SFRSYM    DATA     BYTE      P0MASK
      000000EEH   SFRSYM    DATA     BYTE      P1MASK
      000000D0H.3 SFRSYM    DATA     BIT       PSW_RS0
      000000D8H.7 SFRSYM    DATA     BIT       PCA0CN0_CF
      0000009EH   SFRSYM    DATA     BYTE      PCA0CENT
      000000F8H.4 SFRSYM    DATA     BIT       SPI0CN0_RXOVRN
      000000D0H.4 SFRSYM    DATA     BIT       PSW_RS1
      000000E8H.7 SFRSYM    DATA     BIT       ADC0CN0_ADEN
      00000089H   SFRSYM    DATA     BYTE      TMOD
      00000088H   SFRSYM    DATA     BYTE      TCON
      000000CFH   SFRSYM    DATA     BYTE      CRC0FLIP
      000000D0H   SFRSYM    DATA     BIT       PSW_PARITY
      000000A8H.4 SFRSYM    DATA     BIT       IE_ES0
      0000009FH   SFRSYM    DATA     BYTE      CMP0MX
      000000A8H.1 SFRSYM    DATA     BIT       IE_ET0
      000000AAH   SFRSYM    DATA     BYTE      CMP1MX
      000000A8H.3 SFRSYM    DATA     BIT       IE_ET1
      000000D4H   SFRSYM    DATA     BYTE      P0SKIP
      000000A8H.5 SFRSYM    DATA     BIT       IE_ET2
      000000D5H   SFRSYM    DATA     BYTE      P1SKIP
      000000E8H   SFRSYM    DATA     BYTE      ADC0CN0
      000000A8H   SFRSYM    DATA     BIT       IE_EX0
      000000B2H   SFRSYM    DATA     BYTE      ADC0CN1
      000000D8H.6 SFRSYM    DATA     BIT       PCA0CN0_CR
      000000A8H.2 SFRSYM    DATA     BIT       IE_EX1
      00000098H.7 SFRSYM    DATA     BIT       SCON0_SMODE
      000000B5H   SFRSYM    DATA     BYTE      DEVICEID
      000000A9H   SFRSYM    DATA     BYTE      CLKSEL
      000000F8H   SFRSYM    DATA     BIT       SPI0CN0_SPIEN
      000000F0H   SFRSYM    DATA     BYTE      B
      000000BEH   SFRSYM    DATA     BYTE      ADC0H
      000000D2H   SFRSYM    DATA     BYTE      CRC0AUTO
      000000E8H.6 SFRSYM    DATA     BIT       ADC0CN0_ADBMEN
      000000CAH   SFRSYM    DATA     WORD      TMR2RL
      000000BDH   SFRSYM    DATA     BYTE      ADC0L
      00000092H   SFRSYM    DATA     WORD      TMR3RL
      000000D8H   SFRSYM    DATA     BYTE      PCA0CN0
      000000E0H   SFRSYM    DATA     BYTE      ACC
      000000FBH   SFRSYM    DATA     WORD      PCA0CP0
LX51 LINKER/LOCATER V4.66.30.0                                                        01/24/2020  09:48:17  PAGE 94


      000000E9H   SFRSYM    DATA     WORD      PCA0CP1
      000000EBH   SFRSYM    DATA     WORD      PCA0CP2
      000000CEH   SFRSYM    DATA     BYTE      CRC0CN0
      00000090H.4 SFRSYM    DATA     BIT       BSP_LED0
      0000008CH   SFRSYM    DATA     BYTE      TH0
      000000B8H.4 SFRSYM    DATA     BIT       IP_PS0
      0000008DH   SFRSYM    DATA     BYTE      TH1
      000000FAH   SFRSYM    DATA     BYTE      PCA0H
      000000B8H.1 SFRSYM    DATA     BIT       IP_PT0
      000000B8H.3 SFRSYM    DATA     BIT       IP_PT1
      000000C0H.2 SFRSYM    DATA     BIT       SMB0CN0_ARBLOST
      000000B8H.5 SFRSYM    DATA     BIT       IP_PT2
      0000008AH   SFRSYM    DATA     BYTE      TL0
      000000F8H.1 SFRSYM    DATA     BIT       SPI0CN0_TXBMT
      000000D0H.5 SFRSYM    DATA     BIT       PSW_F0
      000000A8H.6 SFRSYM    DATA     BIT       IE_ESPI0
      0000008BH   SFRSYM    DATA     BYTE      TL1
      000000F9H   SFRSYM    DATA     BYTE      PCA0L
      000000C0H   SFRSYM    DATA     BIT       SMB0CN0_SI
      000000D0H.1 SFRSYM    DATA     BIT       PSW_F1
      00000080H   SFRSYM    DATA     BIT       P0_B0
      000000B8H   SFRSYM    DATA     BIT       IP_PX0
      00000090H   SFRSYM    DATA     BIT       P1_B0
      00000080H.1 SFRSYM    DATA     BIT       P0_B1
      000000B8H.2 SFRSYM    DATA     BIT       IP_PX1
      0000009BH   SFRSYM    DATA     BYTE      CMP0CN0
      00000088H.1 SFRSYM    DATA     BIT       TCON_IE0
      000000A0H   SFRSYM    DATA     BIT       P2_B0
      00000090H.1 SFRSYM    DATA     BIT       P1_B1
      00000080H.2 SFRSYM    DATA     BIT       P0_B2
      000000BFH   SFRSYM    DATA     BYTE      CMP1CN0
      00000088H.3 SFRSYM    DATA     BIT       TCON_IE1
      000000A0H.1 SFRSYM    DATA     BIT       P2_B1
      00000090H.2 SFRSYM    DATA     BIT       P1_B2
      00000080H.3 SFRSYM    DATA     BIT       P0_B3
      000000C0H   SFRSYM    DATA     BYTE      SMB0CN0
      00000090H.3 SFRSYM    DATA     BIT       P1_B3
      00000080H.4 SFRSYM    DATA     BIT       P0_B4
      00000090H.4 SFRSYM    DATA     BIT       P1_B4
      00000080H.5 SFRSYM    DATA     BIT       P0_B5
      00000090H.5 SFRSYM    DATA     BIT       P1_B5
      00000080H.6 SFRSYM    DATA     BIT       P0_B6
      00000090H.6 SFRSYM    DATA     BIT       P1_B6
      00000080H.7 SFRSYM    DATA     BIT       P0_B7
      00000090H.7 SFRSYM    DATA     BIT       P1_B7
      00000080H.2 SFRSYM    DATA     BIT       BSP_BTN0
      00000083H   SFRSYM    DATA     BYTE      DPH
      000000C4H   SFRSYM    DATA     BYTE      ADC0GTH
      000000C8H.7 SFRSYM    DATA     BIT       TMR2CN0_TF2H
      000000C8H.3 SFRSYM    DATA     BIT       TMR2CN0_T2SPLIT
      000000D0H.6 SFRSYM    DATA     BIT       PSW_AC
      000000F8H   SFRSYM    DATA     BYTE      SPI0CN0
      000000C7H   SFRSYM    DATA     BYTE      HFO0CAL
      00000088H.5 SFRSYM    DATA     BIT       TCON_TF0
      00000098H   SFRSYM    DATA     BIT       SCON0_RI
      00000082H   SFRSYM    DATA     BYTE      DPL
      00000088H.7 SFRSYM    DATA     BIT       TCON_TF1
      00000099H   SFRSYM    DATA     BYTE      SBUF0
      00000087H   SFRSYM    DATA     BYTE      PCON0
      000000C3H   SFRSYM    DATA     BYTE      ADC0GTL
      000000C8H.6 SFRSYM    DATA     BIT       TMR2CN0_TF2L
      00000098H.1 SFRSYM    DATA     BIT       SCON0_TI
LX51 LINKER/LOCATER V4.66.30.0                                                        01/24/2020  09:48:17  PAGE 95


      000000E8H   SFRSYM    DATA     BIT       ADC0CN0_ADCM0
      000000C6H   SFRSYM    DATA     BYTE      ADC0LTH
      00000088H   SFRSYM    DATA     BIT       TCON_IT0
      000000E8H.1 SFRSYM    DATA     BIT       ADC0CN0_ADCM1
      000000EFH   SFRSYM    DATA     BYTE      RSTSRC
      000000FDH   SFRSYM    DATA     BYTE      P0MAT
      000000DEH   SFRSYM    DATA     BYTE      CRC0DAT
      00000088H.2 SFRSYM    DATA     BIT       TCON_IT1
      000000E8H.2 SFRSYM    DATA     BIT       ADC0CN0_ADCM2
      00000098H   SFRSYM    DATA     BYTE      SCON0
      000000F6H   SFRSYM    DATA     BYTE      PRTDRV
      000000EDH   SFRSYM    DATA     BYTE      P1MAT
      000000E8H.3 SFRSYM    DATA     BIT       ADC0CN0_ADWINT
      000000E8H.4 SFRSYM    DATA     BIT       ADC0CN0_ADBUSY
      000000D6H   SFRSYM    DATA     BYTE      SMB0ADM
      000000C5H   SFRSYM    DATA     BYTE      ADC0LTL
      000000F8H.5 SFRSYM    DATA     BIT       SPI0CN0_MODF
      000000B8H.6 SFRSYM    DATA     BIT       IP_PSPI0
      0000009CH   SFRSYM    DATA     BYTE      PCA0CLR
      000000C8H   SFRSYM    DATA     BYTE      TMR2CN0
      00000091H   SFRSYM    DATA     BYTE      TMR3CN0
      000000D7H   SFRSYM    DATA     BYTE      SMB0ADR
      00000088H.4 SFRSYM    DATA     BIT       TCON_TR0
      000000C8H.4 SFRSYM    DATA     BIT       TMR2CN0_TF2CEN
      00000088H.6 SFRSYM    DATA     BIT       TCON_TR1
      000000C2H   SFRSYM    DATA     BYTE      SMB0DAT
      000000CDH   SFRSYM    DATA     BYTE      TMR2H
      000000A1H   SFRSYM    DATA     BYTE      SPI0CFG
      00000095H   SFRSYM    DATA     BYTE      TMR3H
      000000D3H   SFRSYM    DATA     BYTE      CRC0CNT
      00000096H   SFRSYM    DATA     BYTE      PCA0POL
      000000CCH   SFRSYM    DATA     BYTE      TMR2L
      000000F8H.7 SFRSYM    DATA     BIT       SPI0CN0_SPIF
      00000094H   SFRSYM    DATA     BYTE      TMR3L
      000000DFH   SFRSYM    DATA     BYTE      ADC0PWR
      000000A8H.7 SFRSYM    DATA     BIT       IE_EA
      000000C8H.5 SFRSYM    DATA     BIT       TMR2CN0_TF2LEN
      000000F8H.6 SFRSYM    DATA     BIT       SPI0CN0_WCOL
      000000F8H.2 SFRSYM    DATA     BIT       SPI0CN0_NSSMD0
      000000D0H.7 SFRSYM    DATA     BIT       PSW_CY
      000000A3H   SFRSYM    DATA     BYTE      SPI0DAT
      000000F8H.3 SFRSYM    DATA     BIT       SPI0CN0_NSSMD1
      000000BDH   SFRSYM    DATA     WORD      ADC0
      000000D0H   SFRSYM    DATA     BYTE      PSW
      000000F7H   SFRSYM    DATA     BYTE      PCA0PWM
      000000B6H   SFRSYM    DATA     BYTE      REVID
      000000B7H   SFRSYM    DATA     BYTE      FLKEY
      000000B3H   SFRSYM    DATA     BYTE      ADC0AC
      02000089H   SYMBOL    XDATA    WORD      pot_reading
      00000022H.3 SYMBOL    BIT      BIT       speed_ctrl_by_pc
      00000022H.4 SYMBOL    BIT      BIT       start_by_pc
      00000067H   SYMBOL    DATA     WORD      prev_target_rpm
      0200008BH   SYMBOL    XDATA    WORD      read_speed_interval

      01001884H   BLOCK     CODE     ---       LVL=0
      01001884H   LINE      CODE     ---       #55
      01001884H   LINE      CODE     ---       #56
      01001884H   LINE      CODE     ---       #57
      0100188DH   LINE      CODE     ---       #58
      01001897H   LINE      CODE     ---       #59
      010018A1H   LINE      CODE     ---       #60
      010018AEH   LINE      CODE     ---       #61
LX51 LINKER/LOCATER V4.66.30.0                                                        01/24/2020  09:48:17  PAGE 96


      010018B0H   LINE      CODE     ---       #62
      010018B2H   LINE      CODE     ---       #64
      010018B7H   LINE      CODE     ---       #66
      010018BDH   LINE      CODE     ---       #67
      010018C3H   LINE      CODE     ---       #72
      ---         BLOCKEND  ---      ---       LVL=0

      01000E9CH   BLOCK     CODE     ---       LVL=0
      01000E9CH   BLOCK     CODE     NEAR LAB  LVL=1
      0200006DH   SYMBOL    XDATA    WORD      Pg
      0200006FH   SYMBOL    XDATA    WORD      Ig
      00000064H   SYMBOL    DATA     BYTE      last_report
      0000005DH   SYMBOL    DATA     BYTE      tmp
      00000021H.3 SYMBOL    BIT      BIT       run_dir
      ---         BLOCKEND  ---      ---       LVL=1
      01000E9CH   LINE      CODE     ---       #85
      01000E9CH   LINE      CODE     ---       #86
      01000E9CH   LINE      CODE     ---       #96
      01000E9FH   LINE      CODE     ---       #98
      01000EA4H   LINE      CODE     ---       #99
      01000EACH   LINE      CODE     ---       #100
      01000EACH   LINE      CODE     ---       #101
      01000EB3H   LINE      CODE     ---       #102
      01000EB3H   LINE      CODE     ---       #103
      01000EB6H   LINE      CODE     ---       #104
      01000EB6H   LINE      CODE     ---       #105
      01000EBCH   LINE      CODE     ---       #106
      01000EBCH   LINE      CODE     ---       #110
      01000EBFH   LINE      CODE     ---       #112
      01000EC2H   LINE      CODE     ---       #113
      01000EC2H   LINE      CODE     ---       #115
      01000EC6H   LINE      CODE     ---       #116
      01000EC6H   LINE      CODE     ---       #118
      01000EC8H   LINE      CODE     ---       #119
      01000EC8H   LINE      CODE     ---       #121
      01000ECBH   LINE      CODE     ---       #128
      01000ED7H   LINE      CODE     ---       #130
      01000ED7H   LINE      CODE     ---       #131
      01000ED9H   LINE      CODE     ---       #132
      01000ED9H   LINE      CODE     ---       #136
      01000EDCH   LINE      CODE     ---       #141
      01000EE6H   LINE      CODE     ---       #142
      01000EF0H   LINE      CODE     ---       #143
      01000EFDH   LINE      CODE     ---       #144
      01000F09H   LINE      CODE     ---       #154
      01000F16H   LINE      CODE     ---       #155
      01000F25H   LINE      CODE     ---       #156
      01000F30H   LINE      CODE     ---       #158
      01000F32H   LINE      CODE     ---       #159
      01000F38H   LINE      CODE     ---       #160
      01000F38H   LINE      CODE     ---       #162
      01000F42H   LINE      CODE     ---       #167
      01000F42H   LINE      CODE     ---       #168
      01000F45H   LINE      CODE     ---       #176
      01000F45H   LINE      CODE     ---       #177
      01000F45H   LINE      CODE     ---       #179
      01000F4AH   LINE      CODE     ---       #180
      01000F55H   LINE      CODE     ---       #181
      01000F55H   LINE      CODE     ---       #182
      01000F57H   LINE      CODE     ---       #183
      01000F66H   LINE      CODE     ---       #185
      01000F71H   LINE      CODE     ---       #186
LX51 LINKER/LOCATER V4.66.30.0                                                        01/24/2020  09:48:17  PAGE 97


      01000F7BH   LINE      CODE     ---       #187
      01000F87H   LINE      CODE     ---       #189
      01000F87H   LINE      CODE     ---       #193
      01000F8AH   LINE      CODE     ---       #197
      01000F99H   LINE      CODE     ---       #203
      ---         BLOCKEND  ---      ---       LVL=0

      01001A85H   BLOCK     CODE     ---       LVL=0
      01001A85H   BLOCK     CODE     NEAR LAB  LVL=1
      00000022H.2 SYMBOL    BIT      BIT       wait_release
      ---         BLOCKEND  ---      ---       LVL=1
      01001A85H   LINE      CODE     ---       #218
      01001A85H   LINE      CODE     ---       #219
      01001A85H   LINE      CODE     ---       #222
      01001A88H   LINE      CODE     ---       #223
      01001A88H   LINE      CODE     ---       #224
      01001A8BH   LINE      CODE     ---       #225
      01001A8BH   LINE      CODE     ---       #226
      01001A8DH   LINE      CODE     ---       #227
      01001A8DH   LINE      CODE     ---       #228
      01001A8FH   LINE      CODE     ---       #229
      01001A9CH   LINE      CODE     ---       #230
      01001A9CH   LINE      CODE     ---       #231
      01001A9FH   LINE      CODE     ---       #232
      01001AA1H   LINE      CODE     ---       #233
      01001AADH   LINE      CODE     ---       #235
      01001AAFH   LINE      CODE     ---       #236
      01001AAFH   LINE      CODE     ---       #238
      01001AB9H   LINE      CODE     ---       #239
      ---         BLOCKEND  ---      ---       LVL=0

      01000FA8H   BLOCK     CODE     ---       LVL=0
      01000FA8H   BLOCK     CODE     NEAR LAB  LVL=1
      00000065H   SYMBOL    DATA     WORD      last_read_speed_time
      0000005EH   SYMBOL    DATA     WORD      temp
      ---         BLOCKEND  ---      ---       LVL=1
      01000FA8H   LINE      CODE     ---       #254
      01000FA8H   LINE      CODE     ---       #255
      01000FA8H   LINE      CODE     ---       #261
      01000FC4H   LINE      CODE     ---       #262
      01000FC4H   LINE      CODE     ---       #264
      01000FC4H   LINE      CODE     ---       #265
      01000FCBH   LINE      CODE     ---       #267
      01000FD3H   LINE      CODE     ---       #268
      01000FD3H   LINE      CODE     ---       #270
      01000FDCH   LINE      CODE     ---       #271
      01000FE8H   LINE      CODE     ---       #272
      01000FE8H   LINE      CODE     ---       #273
      01000FF0H   LINE      CODE     ---       #274
      01000FF0H   LINE      CODE     ---       #276
      01000FF2H   LINE      CODE     ---       #279
      01000FFDH   LINE      CODE     ---       #280
      01000FFFH   LINE      CODE     ---       #282
      01000FFFH   LINE      CODE     ---       #283
      01001005H   LINE      CODE     ---       #284
      01001005H   LINE      CODE     ---       #285
      01001007H   LINE      CODE     ---       #286
      01001007H   LINE      CODE     ---       #287
      01001007H   LINE      CODE     ---       #290
      01001011H   LINE      CODE     ---       #292
      0100101EH   LINE      CODE     ---       #294
      0100102AH   LINE      CODE     ---       #296
LX51 LINKER/LOCATER V4.66.30.0                                                        01/24/2020  09:48:17  PAGE 98


      01001045H   LINE      CODE     ---       #297
      01001059H   LINE      CODE     ---       #298
      0100105DH   LINE      CODE     ---       #299
      01001065H   LINE      CODE     ---       #300
      01001065H   LINE      CODE     ---       #301
      0100106FH   LINE      CODE     ---       #302
      0100106FH   LINE      CODE     ---       #304
      01001072H   LINE      CODE     ---       #305
      01001072H   LINE      CODE     ---       #307
      0100107CH   LINE      CODE     ---       #309
      01001087H   LINE      CODE     ---       #310
      01001087H   LINE      CODE     ---       #374
      ---         BLOCKEND  ---      ---       LVL=0

      ---         MODULE    ---      ---       MTRPID
      00000022H.6 PUBLIC    BIT      BIT       pid_done
      01001DB2H   PUBLIC    CODE     ---       MTR_pid_compute_newpwm
      01001D02H   PUBLIC    CODE     ---       MTR_pid_init
      01001D73H   PUBLIC    CODE     ---       _SL_MTR_change_pid_gain
      000000A2H   SFRSYM    DATA     BYTE      SPI0CKR
      00000080H   SFRSYM    DATA     BYTE      P0
      000000D0H.2 SFRSYM    DATA     BIT       PSW_OV
      00000090H   SFRSYM    DATA     BYTE      P1
      00000097H   SFRSYM    DATA     BYTE      WDTCN
      000000A0H   SFRSYM    DATA     BYTE      P2
      000000BCH   SFRSYM    DATA     BYTE      ADC0CF
      000000C8H   SFRSYM    DATA     BIT       TMR2CN0_T2XCLK
      000000C0H.7 SFRSYM    DATA     BIT       SMB0CN0_MASTER
      000000F9H   SFRSYM    DATA     WORD      PCA0
      000000E6H   SFRSYM    DATA     BYTE      EIE1
      000000C0H.1 SFRSYM    DATA     BIT       SMB0CN0_ACK
      0000008FH   SFRSYM    DATA     BYTE      PSCTL
      000000E4H   SFRSYM    DATA     BYTE      IT01CF
      000000C0H.6 SFRSYM    DATA     BIT       SMB0CN0_TXMODE
      000000ADH   SFRSYM    DATA     BYTE      DERIVID
      000000A4H   SFRSYM    DATA     BYTE      P0MDOUT
      000000A5H   SFRSYM    DATA     BYTE      P1MDOUT
      000000E8H.5 SFRSYM    DATA     BIT       ADC0CN0_ADINT
      000000CBH   SFRSYM    DATA     BYTE      TMR2RLH
      000000A6H   SFRSYM    DATA     BYTE      P2MDOUT
      000000A8H   SFRSYM    DATA     BYTE      IE
      00000093H   SFRSYM    DATA     BYTE      TMR3RLH
      000000F3H   SFRSYM    DATA     BYTE      EIP1
      00000098H.2 SFRSYM    DATA     BIT       SCON0_RB8
      000000CAH   SFRSYM    DATA     BYTE      TMR2RLL
      000000FCH   SFRSYM    DATA     BYTE      PCA0CPH0
      00000092H   SFRSYM    DATA     BYTE      TMR3RLL
      000000EAH   SFRSYM    DATA     BYTE      PCA0CPH1
      00000098H.3 SFRSYM    DATA     BIT       SCON0_TB8
      000000F0H   SFRSYM    DATA     BIT       B_B0
      00000082H   SFRSYM    DATA     WORD      DP
      000000ECH   SFRSYM    DATA     BYTE      PCA0CPH2
      00000080H.2 SFRSYM    DATA     BIT       BTN0
      000000F0H.1 SFRSYM    DATA     BIT       B_B1
      000000C3H   SFRSYM    DATA     WORD      ADC0GT
      00000090H.1 SFRSYM    DATA     BIT       BTN1
      000000F0H.2 SFRSYM    DATA     BIT       B_B2
      000000FBH   SFRSYM    DATA     BYTE      PCA0CPL0
      000000F0H.3 SFRSYM    DATA     BIT       B_B3
      000000D9H   SFRSYM    DATA     BYTE      PCA0MD
      000000DAH   SFRSYM    DATA     BYTE      PCA0CPM0
      000000E9H   SFRSYM    DATA     BYTE      PCA0CPL1
LX51 LINKER/LOCATER V4.66.30.0                                                        01/24/2020  09:48:17  PAGE 99


      000000F0H.4 SFRSYM    DATA     BIT       B_B4
      000000DBH   SFRSYM    DATA     BYTE      PCA0CPM1
      000000EBH   SFRSYM    DATA     BYTE      PCA0CPL2
      000000F0H.5 SFRSYM    DATA     BIT       B_B5
      000000DCH   SFRSYM    DATA     BYTE      PCA0CPM2
      000000B8H   SFRSYM    DATA     BYTE      IP
      000000B9H   SFRSYM    DATA     BYTE      ADC0TK
      000000F0H.6 SFRSYM    DATA     BIT       B_B6
      000000C5H   SFRSYM    DATA     WORD      ADC0LT
      00000098H.5 SFRSYM    DATA     BIT       SCON0_MCE
      000000F0H.7 SFRSYM    DATA     BIT       B_B7
      000000E1H   SFRSYM    DATA     BYTE      XBR0
      000000C1H   SFRSYM    DATA     BYTE      SMB0CF
      000000E2H   SFRSYM    DATA     BYTE      XBR1
      000000C0H.5 SFRSYM    DATA     BIT       SMB0CN0_STA
      000000E3H   SFRSYM    DATA     BYTE      XBR2
      000000BBH   SFRSYM    DATA     BYTE      ADC0MX
      000000E0H   SFRSYM    DATA     BIT       ACC_ACC0
      000000D1H   SFRSYM    DATA     BYTE      REF0CN
      0000008EH   SFRSYM    DATA     BYTE      CKCON0
      000000E0H.1 SFRSYM    DATA     BIT       ACC_ACC1
      000000C9H   SFRSYM    DATA     BYTE      REG0CN
      000000DDH   SFRSYM    DATA     BYTE      CRC0IN
      000000C8H.2 SFRSYM    DATA     BIT       TMR2CN0_TR2
      000000E0H.2 SFRSYM    DATA     BIT       ACC_ACC2
      000000E0H.3 SFRSYM    DATA     BIT       ACC_ACC3
      00000081H   SFRSYM    DATA     BYTE      SP
      0000009DH   SFRSYM    DATA     BYTE      CMP0MD
      000000E0H.4 SFRSYM    DATA     BIT       ACC_ACC4
      000000B1H   SFRSYM    DATA     BYTE      LFO0CN
      000000ABH   SFRSYM    DATA     BYTE      CMP1MD
      000000D8H   SFRSYM    DATA     BIT       PCA0CN0_CCF0
      000000E0H.5 SFRSYM    DATA     BIT       ACC_ACC5
      000000D8H.1 SFRSYM    DATA     BIT       PCA0CN0_CCF1
      000000E0H.6 SFRSYM    DATA     BIT       ACC_ACC6
      000000CCH   SFRSYM    DATA     WORD      TMR2
      000000D8H.2 SFRSYM    DATA     BIT       PCA0CN0_CCF2
      000000E0H.7 SFRSYM    DATA     BIT       ACC_ACC7
      00000094H   SFRSYM    DATA     WORD      TMR3
      000000C0H.3 SFRSYM    DATA     BIT       SMB0CN0_ACKRQ
      000000FFH   SFRSYM    DATA     BYTE      VDM0CN
      000000F1H   SFRSYM    DATA     BYTE      P0MDIN
      00000098H.4 SFRSYM    DATA     BIT       SCON0_REN
      000000ACH   SFRSYM    DATA     BYTE      SMB0TC
      000000F2H   SFRSYM    DATA     BYTE      P1MDIN
      000000C0H.4 SFRSYM    DATA     BIT       SMB0CN0_STO
      000000FEH   SFRSYM    DATA     BYTE      P0MASK
      000000EEH   SFRSYM    DATA     BYTE      P1MASK
      000000D0H.3 SFRSYM    DATA     BIT       PSW_RS0
      000000D8H.7 SFRSYM    DATA     BIT       PCA0CN0_CF
      0000009EH   SFRSYM    DATA     BYTE      PCA0CENT
      000000F8H.4 SFRSYM    DATA     BIT       SPI0CN0_RXOVRN
      000000D0H.4 SFRSYM    DATA     BIT       PSW_RS1
      000000E8H.7 SFRSYM    DATA     BIT       ADC0CN0_ADEN
      00000089H   SFRSYM    DATA     BYTE      TMOD
      00000088H   SFRSYM    DATA     BYTE      TCON
      000000CFH   SFRSYM    DATA     BYTE      CRC0FLIP
      000000D0H   SFRSYM    DATA     BIT       PSW_PARITY
      000000A8H.4 SFRSYM    DATA     BIT       IE_ES0
      0000009FH   SFRSYM    DATA     BYTE      CMP0MX
      000000A8H.1 SFRSYM    DATA     BIT       IE_ET0
      000000AAH   SFRSYM    DATA     BYTE      CMP1MX
LX51 LINKER/LOCATER V4.66.30.0                                                        01/24/2020  09:48:17  PAGE 100


      000000A8H.3 SFRSYM    DATA     BIT       IE_ET1
      000000D4H   SFRSYM    DATA     BYTE      P0SKIP
      000000A8H.5 SFRSYM    DATA     BIT       IE_ET2
      000000D5H   SFRSYM    DATA     BYTE      P1SKIP
      000000E8H   SFRSYM    DATA     BYTE      ADC0CN0
      000000A8H   SFRSYM    DATA     BIT       IE_EX0
      000000B2H   SFRSYM    DATA     BYTE      ADC0CN1
      000000D8H.6 SFRSYM    DATA     BIT       PCA0CN0_CR
      000000A8H.2 SFRSYM    DATA     BIT       IE_EX1
      00000098H.7 SFRSYM    DATA     BIT       SCON0_SMODE
      000000B5H   SFRSYM    DATA     BYTE      DEVICEID
      000000A9H   SFRSYM    DATA     BYTE      CLKSEL
      000000F8H   SFRSYM    DATA     BIT       SPI0CN0_SPIEN
      000000F0H   SFRSYM    DATA     BYTE      B
      000000BEH   SFRSYM    DATA     BYTE      ADC0H
      000000D2H   SFRSYM    DATA     BYTE      CRC0AUTO
      000000E8H.6 SFRSYM    DATA     BIT       ADC0CN0_ADBMEN
      000000CAH   SFRSYM    DATA     WORD      TMR2RL
      000000BDH   SFRSYM    DATA     BYTE      ADC0L
      00000092H   SFRSYM    DATA     WORD      TMR3RL
      000000D8H   SFRSYM    DATA     BYTE      PCA0CN0
      000000E0H   SFRSYM    DATA     BYTE      ACC
      000000FBH   SFRSYM    DATA     WORD      PCA0CP0
      000000E9H   SFRSYM    DATA     WORD      PCA0CP1
      000000EBH   SFRSYM    DATA     WORD      PCA0CP2
      000000CEH   SFRSYM    DATA     BYTE      CRC0CN0
      00000090H.4 SFRSYM    DATA     BIT       BSP_LED0
      0000008CH   SFRSYM    DATA     BYTE      TH0
      000000B8H.4 SFRSYM    DATA     BIT       IP_PS0
      0000008DH   SFRSYM    DATA     BYTE      TH1
      000000FAH   SFRSYM    DATA     BYTE      PCA0H
      000000B8H.1 SFRSYM    DATA     BIT       IP_PT0
      000000B8H.3 SFRSYM    DATA     BIT       IP_PT1
      000000C0H.2 SFRSYM    DATA     BIT       SMB0CN0_ARBLOST
      000000B8H.5 SFRSYM    DATA     BIT       IP_PT2
      0000008AH   SFRSYM    DATA     BYTE      TL0
      000000F8H.1 SFRSYM    DATA     BIT       SPI0CN0_TXBMT
      000000D0H.5 SFRSYM    DATA     BIT       PSW_F0
      000000A8H.6 SFRSYM    DATA     BIT       IE_ESPI0
      0000008BH   SFRSYM    DATA     BYTE      TL1
      000000F9H   SFRSYM    DATA     BYTE      PCA0L
      000000C0H   SFRSYM    DATA     BIT       SMB0CN0_SI
      000000D0H.1 SFRSYM    DATA     BIT       PSW_F1
      00000080H   SFRSYM    DATA     BIT       P0_B0
      000000B8H   SFRSYM    DATA     BIT       IP_PX0
      00000090H   SFRSYM    DATA     BIT       P1_B0
      00000080H.1 SFRSYM    DATA     BIT       P0_B1
      000000B8H.2 SFRSYM    DATA     BIT       IP_PX1
      0000009BH   SFRSYM    DATA     BYTE      CMP0CN0
      00000088H.1 SFRSYM    DATA     BIT       TCON_IE0
      000000A0H   SFRSYM    DATA     BIT       P2_B0
      00000090H.1 SFRSYM    DATA     BIT       P1_B1
      00000080H.2 SFRSYM    DATA     BIT       P0_B2
      000000BFH   SFRSYM    DATA     BYTE      CMP1CN0
      00000088H.3 SFRSYM    DATA     BIT       TCON_IE1
      000000A0H.1 SFRSYM    DATA     BIT       P2_B1
      00000090H.2 SFRSYM    DATA     BIT       P1_B2
      00000080H.3 SFRSYM    DATA     BIT       P0_B3
      000000C0H   SFRSYM    DATA     BYTE      SMB0CN0
      00000090H.3 SFRSYM    DATA     BIT       P1_B3
      00000080H.4 SFRSYM    DATA     BIT       P0_B4
      00000090H.4 SFRSYM    DATA     BIT       P1_B4
LX51 LINKER/LOCATER V4.66.30.0                                                        01/24/2020  09:48:17  PAGE 101


      00000080H.5 SFRSYM    DATA     BIT       P0_B5
      00000090H.5 SFRSYM    DATA     BIT       P1_B5
      00000080H.6 SFRSYM    DATA     BIT       P0_B6
      00000090H.6 SFRSYM    DATA     BIT       P1_B6
      00000080H.7 SFRSYM    DATA     BIT       P0_B7
      00000090H.7 SFRSYM    DATA     BIT       P1_B7
      00000080H.2 SFRSYM    DATA     BIT       BSP_BTN0
      00000083H   SFRSYM    DATA     BYTE      DPH
      000000C4H   SFRSYM    DATA     BYTE      ADC0GTH
      000000C8H.7 SFRSYM    DATA     BIT       TMR2CN0_TF2H
      000000C8H.3 SFRSYM    DATA     BIT       TMR2CN0_T2SPLIT
      000000D0H.6 SFRSYM    DATA     BIT       PSW_AC
      000000F8H   SFRSYM    DATA     BYTE      SPI0CN0
      000000C7H   SFRSYM    DATA     BYTE      HFO0CAL
      00000088H.5 SFRSYM    DATA     BIT       TCON_TF0
      00000098H   SFRSYM    DATA     BIT       SCON0_RI
      00000082H   SFRSYM    DATA     BYTE      DPL
      00000088H.7 SFRSYM    DATA     BIT       TCON_TF1
      00000099H   SFRSYM    DATA     BYTE      SBUF0
      00000087H   SFRSYM    DATA     BYTE      PCON0
      000000C3H   SFRSYM    DATA     BYTE      ADC0GTL
      000000C8H.6 SFRSYM    DATA     BIT       TMR2CN0_TF2L
      00000098H.1 SFRSYM    DATA     BIT       SCON0_TI
      000000E8H   SFRSYM    DATA     BIT       ADC0CN0_ADCM0
      000000C6H   SFRSYM    DATA     BYTE      ADC0LTH
      00000088H   SFRSYM    DATA     BIT       TCON_IT0
      000000E8H.1 SFRSYM    DATA     BIT       ADC0CN0_ADCM1
      000000EFH   SFRSYM    DATA     BYTE      RSTSRC
      000000FDH   SFRSYM    DATA     BYTE      P0MAT
      000000DEH   SFRSYM    DATA     BYTE      CRC0DAT
      00000088H.2 SFRSYM    DATA     BIT       TCON_IT1
      000000E8H.2 SFRSYM    DATA     BIT       ADC0CN0_ADCM2
      00000098H   SFRSYM    DATA     BYTE      SCON0
      000000F6H   SFRSYM    DATA     BYTE      PRTDRV
      000000EDH   SFRSYM    DATA     BYTE      P1MAT
      000000E8H.3 SFRSYM    DATA     BIT       ADC0CN0_ADWINT
      000000E8H.4 SFRSYM    DATA     BIT       ADC0CN0_ADBUSY
      000000D6H   SFRSYM    DATA     BYTE      SMB0ADM
      000000C5H   SFRSYM    DATA     BYTE      ADC0LTL
      000000F8H.5 SFRSYM    DATA     BIT       SPI0CN0_MODF
      000000B8H.6 SFRSYM    DATA     BIT       IP_PSPI0
      0000009CH   SFRSYM    DATA     BYTE      PCA0CLR
      000000C8H   SFRSYM    DATA     BYTE      TMR2CN0
      00000091H   SFRSYM    DATA     BYTE      TMR3CN0
      000000D7H   SFRSYM    DATA     BYTE      SMB0ADR
      00000088H.4 SFRSYM    DATA     BIT       TCON_TR0
      000000C8H.4 SFRSYM    DATA     BIT       TMR2CN0_TF2CEN
      00000088H.6 SFRSYM    DATA     BIT       TCON_TR1
      000000C2H   SFRSYM    DATA     BYTE      SMB0DAT
      000000CDH   SFRSYM    DATA     BYTE      TMR2H
      000000A1H   SFRSYM    DATA     BYTE      SPI0CFG
      00000095H   SFRSYM    DATA     BYTE      TMR3H
      000000D3H   SFRSYM    DATA     BYTE      CRC0CNT
      00000096H   SFRSYM    DATA     BYTE      PCA0POL
      000000CCH   SFRSYM    DATA     BYTE      TMR2L
      000000F8H.7 SFRSYM    DATA     BIT       SPI0CN0_SPIF
      00000094H   SFRSYM    DATA     BYTE      TMR3L
      000000DFH   SFRSYM    DATA     BYTE      ADC0PWR
      000000A8H.7 SFRSYM    DATA     BIT       IE_EA
      000000C8H.5 SFRSYM    DATA     BIT       TMR2CN0_TF2LEN
      000000F8H.6 SFRSYM    DATA     BIT       SPI0CN0_WCOL
      000000F8H.2 SFRSYM    DATA     BIT       SPI0CN0_NSSMD0
LX51 LINKER/LOCATER V4.66.30.0                                                        01/24/2020  09:48:17  PAGE 102


      000000D0H.7 SFRSYM    DATA     BIT       PSW_CY
      000000A3H   SFRSYM    DATA     BYTE      SPI0DAT
      000000F8H.3 SFRSYM    DATA     BIT       SPI0CN0_NSSMD1
      000000BDH   SFRSYM    DATA     WORD      ADC0
      000000D0H   SFRSYM    DATA     BYTE      PSW
      000000F7H   SFRSYM    DATA     BYTE      PCA0PWM
      000000B6H   SFRSYM    DATA     BYTE      REVID
      000000B7H   SFRSYM    DATA     BYTE      FLKEY
      000000B3H   SFRSYM    DATA     BYTE      ADC0AC
      02000079H   SYMBOL    XDATA    ---       tmpval
      0200007DH   SYMBOL    XDATA    ---       pidth
      0000001AH   SYMBOL    DATA     WORD      newpwm
      0200007FH   SYMBOL    XDATA    WORD      Ki
      02000081H   SYMBOL    XDATA    WORD      Kp
      0000001CH   SYMBOL    DATA     WORD      lastspeed
      010002EFH   SYMBOL    CODE     ---       MTR_pid_compute_thread
      0000001EH   SYMBOL    DATA     WORD      curspeed

      01001D73H   BLOCK     CODE     ---       LVL=0
      00000006H   SYMBOL    DATA     WORD      proportion
      00000004H   SYMBOL    DATA     WORD      integral
      01001D73H   LINE      CODE     ---       #42
      01001D73H   LINE      CODE     ---       #43
      01001D73H   LINE      CODE     ---       #44
      01001D7BH   LINE      CODE     ---       #45
      01001D83H   LINE      CODE     ---       #46
      ---         BLOCKEND  ---      ---       LVL=0

      01001D02H   BLOCK     CODE     ---       LVL=0
      01001D02H   LINE      CODE     ---       #63
      01001D02H   LINE      CODE     ---       #64
      01001D02H   LINE      CODE     ---       #65
      01001D0CH   LINE      CODE     ---       #66
      01001D0EH   LINE      CODE     ---       #70
      01001D15H   LINE      CODE     ---       #71
      ---         BLOCKEND  ---      ---       LVL=0

      01001DB2H   BLOCK     CODE     ---       LVL=0
      01001DB2H   LINE      CODE     ---       #87
      01001DB2H   LINE      CODE     ---       #88
      01001DB2H   LINE      CODE     ---       #89
      01001DB8H   LINE      CODE     ---       #91
      01001DBBH   LINE      CODE     ---       #93
      01001DBFH   LINE      CODE     ---       #94
      ---         BLOCKEND  ---      ---       LVL=0

      010002EFH   BLOCK     CODE     ---       LVL=0
      010002EFH   BLOCK     CODE     NEAR LAB  LVL=1
      0000005EH   SYMBOL    DATA     CHAR      PT_YIELD_FLAG
      ---         BLOCKEND  ---      ---       LVL=1
      010002EFH   LINE      CODE     ---       #112
      010002EFH   LINE      CODE     ---       #113
      010002EFH   LINE      CODE     ---       #114
      01000317H   LINE      CODE     ---       #116
      01000317H   LINE      CODE     ---       #117
      01000317H   LINE      CODE     ---       #118
      01000326H   LINE      CODE     ---       #120
      01000328H   LINE      CODE     ---       #123
      01000332H   LINE      CODE     ---       #126
      0100036AH   LINE      CODE     ---       #128
      0100037CH   LINE      CODE     ---       #131
      010003DEH   LINE      CODE     ---       #133
LX51 LINKER/LOCATER V4.66.30.0                                                        01/24/2020  09:48:17  PAGE 103


      010003F0H   LINE      CODE     ---       #136
      010003F6H   LINE      CODE     ---       #139
      0100040FH   LINE      CODE     ---       #141
      01000418H   LINE      CODE     ---       #142
      01000418H   LINE      CODE     ---       #143
      0100042FH   LINE      CODE     ---       #144
      01000449H   LINE      CODE     ---       #145
      01000449H   LINE      CODE     ---       #146
      0100044FH   LINE      CODE     ---       #147
      01000451H   LINE      CODE     ---       #149
      01000451H   LINE      CODE     ---       #150
      0100045BH   LINE      CODE     ---       #151
      0100045BH   LINE      CODE     ---       #154
      01000466H   LINE      CODE     ---       #155
      01000466H   LINE      CODE     ---       #157
      01000467H   LINE      CODE     ---       #158
      01000469H   LINE      CODE     ---       #160
      01000469H   LINE      CODE     ---       #161
      01000476H   LINE      CODE     ---       #162
      01000476H   LINE      CODE     ---       #163
      01000478H   LINE      CODE     ---       #165
      01000478H   LINE      CODE     ---       #166
      01000492H   LINE      CODE     ---       #167
      01000492H   LINE      CODE     ---       #168
      01000498H   LINE      CODE     ---       #169
      0100049AH   LINE      CODE     ---       #171
      0100049AH   LINE      CODE     ---       #172
      010004A4H   LINE      CODE     ---       #173
      010004A4H   LINE      CODE     ---       #174
      010004B0H   LINE      CODE     ---       #175
      010004BBH   LINE      CODE     ---       #176
      010004BBH   LINE      CODE     ---       #178
      010004C1H   LINE      CODE     ---       #179
      010004C1H   LINE      CODE     ---       #180
      010004C1H   LINE      CODE     ---       #181
      010004C3H   LINE      CODE     ---       #182
      010004C6H   LINE      CODE     ---       #183
      010004D1H   LINE      CODE     ---       #184
      ---         BLOCKEND  ---      ---       LVL=0

      ---         MODULE    ---      ---       PCA
      00000057H   PUBLIC    DATA     WORD      user_timer
      0100130AH   PUBLIC    CODE     ---       PCA0_ISR
      010011E9H   PUBLIC    CODE     ---       _PCA_change_duty_cycle
      01001E4FH   PUBLIC    CODE     ---       PCA_enable_pwm
      01001E68H   PUBLIC    CODE     ---       PCA_set_initial_polarity
      01001B95H   PUBLIC    CODE     ---       PCA_initialize_pca
      000000A2H   SFRSYM    DATA     BYTE      SPI0CKR
      00000080H   SFRSYM    DATA     BYTE      P0
      000000D0H.2 SFRSYM    DATA     BIT       PSW_OV
      00000090H   SFRSYM    DATA     BYTE      P1
      00000097H   SFRSYM    DATA     BYTE      WDTCN
      000000A0H   SFRSYM    DATA     BYTE      P2
      000000BCH   SFRSYM    DATA     BYTE      ADC0CF
      000000C8H   SFRSYM    DATA     BIT       TMR2CN0_T2XCLK
      000000C0H.7 SFRSYM    DATA     BIT       SMB0CN0_MASTER
      000000F9H   SFRSYM    DATA     WORD      PCA0
      000000E6H   SFRSYM    DATA     BYTE      EIE1
      000000C0H.1 SFRSYM    DATA     BIT       SMB0CN0_ACK
      0000008FH   SFRSYM    DATA     BYTE      PSCTL
      000000E4H   SFRSYM    DATA     BYTE      IT01CF
      000000C0H.6 SFRSYM    DATA     BIT       SMB0CN0_TXMODE
LX51 LINKER/LOCATER V4.66.30.0                                                        01/24/2020  09:48:17  PAGE 104


      000000ADH   SFRSYM    DATA     BYTE      DERIVID
      000000A4H   SFRSYM    DATA     BYTE      P0MDOUT
      000000A5H   SFRSYM    DATA     BYTE      P1MDOUT
      000000E8H.5 SFRSYM    DATA     BIT       ADC0CN0_ADINT
      000000CBH   SFRSYM    DATA     BYTE      TMR2RLH
      000000A6H   SFRSYM    DATA     BYTE      P2MDOUT
      000000A8H   SFRSYM    DATA     BYTE      IE
      00000093H   SFRSYM    DATA     BYTE      TMR3RLH
      000000F3H   SFRSYM    DATA     BYTE      EIP1
      00000098H.2 SFRSYM    DATA     BIT       SCON0_RB8
      000000CAH   SFRSYM    DATA     BYTE      TMR2RLL
      000000FCH   SFRSYM    DATA     BYTE      PCA0CPH0
      00000092H   SFRSYM    DATA     BYTE      TMR3RLL
      000000EAH   SFRSYM    DATA     BYTE      PCA0CPH1
      00000098H.3 SFRSYM    DATA     BIT       SCON0_TB8
      000000F0H   SFRSYM    DATA     BIT       B_B0
      00000082H   SFRSYM    DATA     WORD      DP
      000000ECH   SFRSYM    DATA     BYTE      PCA0CPH2
      00000080H.2 SFRSYM    DATA     BIT       BTN0
      000000F0H.1 SFRSYM    DATA     BIT       B_B1
      000000C3H   SFRSYM    DATA     WORD      ADC0GT
      00000090H.1 SFRSYM    DATA     BIT       BTN1
      000000F0H.2 SFRSYM    DATA     BIT       B_B2
      000000FBH   SFRSYM    DATA     BYTE      PCA0CPL0
      000000F0H.3 SFRSYM    DATA     BIT       B_B3
      000000D9H   SFRSYM    DATA     BYTE      PCA0MD
      000000DAH   SFRSYM    DATA     BYTE      PCA0CPM0
      000000E9H   SFRSYM    DATA     BYTE      PCA0CPL1
      000000F0H.4 SFRSYM    DATA     BIT       B_B4
      000000DBH   SFRSYM    DATA     BYTE      PCA0CPM1
      000000EBH   SFRSYM    DATA     BYTE      PCA0CPL2
      000000F0H.5 SFRSYM    DATA     BIT       B_B5
      000000DCH   SFRSYM    DATA     BYTE      PCA0CPM2
      000000B8H   SFRSYM    DATA     BYTE      IP
      000000B9H   SFRSYM    DATA     BYTE      ADC0TK
      000000F0H.6 SFRSYM    DATA     BIT       B_B6
      000000C5H   SFRSYM    DATA     WORD      ADC0LT
      00000098H.5 SFRSYM    DATA     BIT       SCON0_MCE
      000000F0H.7 SFRSYM    DATA     BIT       B_B7
      000000E1H   SFRSYM    DATA     BYTE      XBR0
      000000C1H   SFRSYM    DATA     BYTE      SMB0CF
      000000E2H   SFRSYM    DATA     BYTE      XBR1
      000000C0H.5 SFRSYM    DATA     BIT       SMB0CN0_STA
      000000E3H   SFRSYM    DATA     BYTE      XBR2
      000000BBH   SFRSYM    DATA     BYTE      ADC0MX
      000000E0H   SFRSYM    DATA     BIT       ACC_ACC0
      000000D1H   SFRSYM    DATA     BYTE      REF0CN
      0000008EH   SFRSYM    DATA     BYTE      CKCON0
      000000E0H.1 SFRSYM    DATA     BIT       ACC_ACC1
      000000C9H   SFRSYM    DATA     BYTE      REG0CN
      000000DDH   SFRSYM    DATA     BYTE      CRC0IN
      000000C8H.2 SFRSYM    DATA     BIT       TMR2CN0_TR2
      000000E0H.2 SFRSYM    DATA     BIT       ACC_ACC2
      000000E0H.3 SFRSYM    DATA     BIT       ACC_ACC3
      00000081H   SFRSYM    DATA     BYTE      SP
      0000009DH   SFRSYM    DATA     BYTE      CMP0MD
      000000E0H.4 SFRSYM    DATA     BIT       ACC_ACC4
      000000B1H   SFRSYM    DATA     BYTE      LFO0CN
      000000ABH   SFRSYM    DATA     BYTE      CMP1MD
      000000D8H   SFRSYM    DATA     BIT       PCA0CN0_CCF0
      000000E0H.5 SFRSYM    DATA     BIT       ACC_ACC5
      000000D8H.1 SFRSYM    DATA     BIT       PCA0CN0_CCF1
LX51 LINKER/LOCATER V4.66.30.0                                                        01/24/2020  09:48:17  PAGE 105


      000000E0H.6 SFRSYM    DATA     BIT       ACC_ACC6
      000000CCH   SFRSYM    DATA     WORD      TMR2
      000000D8H.2 SFRSYM    DATA     BIT       PCA0CN0_CCF2
      000000E0H.7 SFRSYM    DATA     BIT       ACC_ACC7
      00000094H   SFRSYM    DATA     WORD      TMR3
      000000C0H.3 SFRSYM    DATA     BIT       SMB0CN0_ACKRQ
      000000FFH   SFRSYM    DATA     BYTE      VDM0CN
      000000F1H   SFRSYM    DATA     BYTE      P0MDIN
      00000098H.4 SFRSYM    DATA     BIT       SCON0_REN
      000000ACH   SFRSYM    DATA     BYTE      SMB0TC
      000000F2H   SFRSYM    DATA     BYTE      P1MDIN
      000000C0H.4 SFRSYM    DATA     BIT       SMB0CN0_STO
      000000FEH   SFRSYM    DATA     BYTE      P0MASK
      000000EEH   SFRSYM    DATA     BYTE      P1MASK
      000000D0H.3 SFRSYM    DATA     BIT       PSW_RS0
      000000D8H.7 SFRSYM    DATA     BIT       PCA0CN0_CF
      0000009EH   SFRSYM    DATA     BYTE      PCA0CENT
      000000F8H.4 SFRSYM    DATA     BIT       SPI0CN0_RXOVRN
      000000D0H.4 SFRSYM    DATA     BIT       PSW_RS1
      000000E8H.7 SFRSYM    DATA     BIT       ADC0CN0_ADEN
      00000089H   SFRSYM    DATA     BYTE      TMOD
      00000088H   SFRSYM    DATA     BYTE      TCON
      000000CFH   SFRSYM    DATA     BYTE      CRC0FLIP
      000000D0H   SFRSYM    DATA     BIT       PSW_PARITY
      000000A8H.4 SFRSYM    DATA     BIT       IE_ES0
      0000009FH   SFRSYM    DATA     BYTE      CMP0MX
      000000A8H.1 SFRSYM    DATA     BIT       IE_ET0
      000000AAH   SFRSYM    DATA     BYTE      CMP1MX
      000000A8H.3 SFRSYM    DATA     BIT       IE_ET1
      000000D4H   SFRSYM    DATA     BYTE      P0SKIP
      000000A8H.5 SFRSYM    DATA     BIT       IE_ET2
      000000D5H   SFRSYM    DATA     BYTE      P1SKIP
      000000E8H   SFRSYM    DATA     BYTE      ADC0CN0
      000000A8H   SFRSYM    DATA     BIT       IE_EX0
      000000B2H   SFRSYM    DATA     BYTE      ADC0CN1
      000000D8H.6 SFRSYM    DATA     BIT       PCA0CN0_CR
      000000A8H.2 SFRSYM    DATA     BIT       IE_EX1
      00000098H.7 SFRSYM    DATA     BIT       SCON0_SMODE
      000000B5H   SFRSYM    DATA     BYTE      DEVICEID
      000000A9H   SFRSYM    DATA     BYTE      CLKSEL
      000000F8H   SFRSYM    DATA     BIT       SPI0CN0_SPIEN
      000000F0H   SFRSYM    DATA     BYTE      B
      000000BEH   SFRSYM    DATA     BYTE      ADC0H
      000000D2H   SFRSYM    DATA     BYTE      CRC0AUTO
      000000E8H.6 SFRSYM    DATA     BIT       ADC0CN0_ADBMEN
      000000CAH   SFRSYM    DATA     WORD      TMR2RL
      000000BDH   SFRSYM    DATA     BYTE      ADC0L
      00000092H   SFRSYM    DATA     WORD      TMR3RL
      000000D8H   SFRSYM    DATA     BYTE      PCA0CN0
      000000E0H   SFRSYM    DATA     BYTE      ACC
      000000FBH   SFRSYM    DATA     WORD      PCA0CP0
      000000E9H   SFRSYM    DATA     WORD      PCA0CP1
      000000EBH   SFRSYM    DATA     WORD      PCA0CP2
      000000CEH   SFRSYM    DATA     BYTE      CRC0CN0
      00000090H.4 SFRSYM    DATA     BIT       BSP_LED0
      0000008CH   SFRSYM    DATA     BYTE      TH0
      000000B8H.4 SFRSYM    DATA     BIT       IP_PS0
      0000008DH   SFRSYM    DATA     BYTE      TH1
      000000FAH   SFRSYM    DATA     BYTE      PCA0H
      000000B8H.1 SFRSYM    DATA     BIT       IP_PT0
      000000B8H.3 SFRSYM    DATA     BIT       IP_PT1
      000000C0H.2 SFRSYM    DATA     BIT       SMB0CN0_ARBLOST
LX51 LINKER/LOCATER V4.66.30.0                                                        01/24/2020  09:48:17  PAGE 106


      000000B8H.5 SFRSYM    DATA     BIT       IP_PT2
      0000008AH   SFRSYM    DATA     BYTE      TL0
      000000F8H.1 SFRSYM    DATA     BIT       SPI0CN0_TXBMT
      000000D0H.5 SFRSYM    DATA     BIT       PSW_F0
      000000A8H.6 SFRSYM    DATA     BIT       IE_ESPI0
      0000008BH   SFRSYM    DATA     BYTE      TL1
      000000F9H   SFRSYM    DATA     BYTE      PCA0L
      000000C0H   SFRSYM    DATA     BIT       SMB0CN0_SI
      000000D0H.1 SFRSYM    DATA     BIT       PSW_F1
      00000080H   SFRSYM    DATA     BIT       P0_B0
      000000B8H   SFRSYM    DATA     BIT       IP_PX0
      00000090H   SFRSYM    DATA     BIT       P1_B0
      00000080H.1 SFRSYM    DATA     BIT       P0_B1
      000000B8H.2 SFRSYM    DATA     BIT       IP_PX1
      0000009BH   SFRSYM    DATA     BYTE      CMP0CN0
      00000088H.1 SFRSYM    DATA     BIT       TCON_IE0
      000000A0H   SFRSYM    DATA     BIT       P2_B0
      00000090H.1 SFRSYM    DATA     BIT       P1_B1
      00000080H.2 SFRSYM    DATA     BIT       P0_B2
      000000BFH   SFRSYM    DATA     BYTE      CMP1CN0
      00000088H.3 SFRSYM    DATA     BIT       TCON_IE1
      000000A0H.1 SFRSYM    DATA     BIT       P2_B1
      00000090H.2 SFRSYM    DATA     BIT       P1_B2
      00000080H.3 SFRSYM    DATA     BIT       P0_B3
      000000C0H   SFRSYM    DATA     BYTE      SMB0CN0
      00000090H.3 SFRSYM    DATA     BIT       P1_B3
      00000080H.4 SFRSYM    DATA     BIT       P0_B4
      00000090H.4 SFRSYM    DATA     BIT       P1_B4
      00000080H.5 SFRSYM    DATA     BIT       P0_B5
      00000090H.5 SFRSYM    DATA     BIT       P1_B5
      00000080H.6 SFRSYM    DATA     BIT       P0_B6
      00000090H.6 SFRSYM    DATA     BIT       P1_B6
      00000080H.7 SFRSYM    DATA     BIT       P0_B7
      00000090H.7 SFRSYM    DATA     BIT       P1_B7
      00000080H.2 SFRSYM    DATA     BIT       BSP_BTN0
      00000083H   SFRSYM    DATA     BYTE      DPH
      000000C4H   SFRSYM    DATA     BYTE      ADC0GTH
      000000C8H.7 SFRSYM    DATA     BIT       TMR2CN0_TF2H
      000000C8H.3 SFRSYM    DATA     BIT       TMR2CN0_T2SPLIT
      000000D0H.6 SFRSYM    DATA     BIT       PSW_AC
      000000F8H   SFRSYM    DATA     BYTE      SPI0CN0
      000000C7H   SFRSYM    DATA     BYTE      HFO0CAL
      00000088H.5 SFRSYM    DATA     BIT       TCON_TF0
      00000098H   SFRSYM    DATA     BIT       SCON0_RI
      00000082H   SFRSYM    DATA     BYTE      DPL
      00000088H.7 SFRSYM    DATA     BIT       TCON_TF1
      00000099H   SFRSYM    DATA     BYTE      SBUF0
      00000087H   SFRSYM    DATA     BYTE      PCON0
      000000C3H   SFRSYM    DATA     BYTE      ADC0GTL
      000000C8H.6 SFRSYM    DATA     BIT       TMR2CN0_TF2L
      00000098H.1 SFRSYM    DATA     BIT       SCON0_TI
      000000E8H   SFRSYM    DATA     BIT       ADC0CN0_ADCM0
      000000C6H   SFRSYM    DATA     BYTE      ADC0LTH
      00000088H   SFRSYM    DATA     BIT       TCON_IT0
      000000E8H.1 SFRSYM    DATA     BIT       ADC0CN0_ADCM1
      000000EFH   SFRSYM    DATA     BYTE      RSTSRC
      000000FDH   SFRSYM    DATA     BYTE      P0MAT
      000000DEH   SFRSYM    DATA     BYTE      CRC0DAT
      00000088H.2 SFRSYM    DATA     BIT       TCON_IT1
      000000E8H.2 SFRSYM    DATA     BIT       ADC0CN0_ADCM2
      00000098H   SFRSYM    DATA     BYTE      SCON0
      000000F6H   SFRSYM    DATA     BYTE      PRTDRV
LX51 LINKER/LOCATER V4.66.30.0                                                        01/24/2020  09:48:17  PAGE 107


      000000EDH   SFRSYM    DATA     BYTE      P1MAT
      000000E8H.3 SFRSYM    DATA     BIT       ADC0CN0_ADWINT
      000000E8H.4 SFRSYM    DATA     BIT       ADC0CN0_ADBUSY
      000000D6H   SFRSYM    DATA     BYTE      SMB0ADM
      000000C5H   SFRSYM    DATA     BYTE      ADC0LTL
      000000F8H.5 SFRSYM    DATA     BIT       SPI0CN0_MODF
      000000B8H.6 SFRSYM    DATA     BIT       IP_PSPI0
      0000009CH   SFRSYM    DATA     BYTE      PCA0CLR
      000000C8H   SFRSYM    DATA     BYTE      TMR2CN0
      00000091H   SFRSYM    DATA     BYTE      TMR3CN0
      000000D7H   SFRSYM    DATA     BYTE      SMB0ADR
      00000088H.4 SFRSYM    DATA     BIT       TCON_TR0
      000000C8H.4 SFRSYM    DATA     BIT       TMR2CN0_TF2CEN
      00000088H.6 SFRSYM    DATA     BIT       TCON_TR1
      000000C2H   SFRSYM    DATA     BYTE      SMB0DAT
      000000CDH   SFRSYM    DATA     BYTE      TMR2H
      000000A1H   SFRSYM    DATA     BYTE      SPI0CFG
      00000095H   SFRSYM    DATA     BYTE      TMR3H
      000000D3H   SFRSYM    DATA     BYTE      CRC0CNT
      00000096H   SFRSYM    DATA     BYTE      PCA0POL
      000000CCH   SFRSYM    DATA     BYTE      TMR2L
      000000F8H.7 SFRSYM    DATA     BIT       SPI0CN0_SPIF
      00000094H   SFRSYM    DATA     BYTE      TMR3L
      000000DFH   SFRSYM    DATA     BYTE      ADC0PWR
      000000A8H.7 SFRSYM    DATA     BIT       IE_EA
      000000C8H.5 SFRSYM    DATA     BIT       TMR2CN0_TF2LEN
      000000F8H.6 SFRSYM    DATA     BIT       SPI0CN0_WCOL
      000000F8H.2 SFRSYM    DATA     BIT       SPI0CN0_NSSMD0
      000000D0H.7 SFRSYM    DATA     BIT       PSW_CY
      000000A3H   SFRSYM    DATA     BYTE      SPI0DAT
      000000F8H.3 SFRSYM    DATA     BIT       SPI0CN0_NSSMD1
      000000BDH   SFRSYM    DATA     WORD      ADC0
      000000D0H   SFRSYM    DATA     BYTE      PSW
      000000F7H   SFRSYM    DATA     BYTE      PCA0PWM
      000000B6H   SFRSYM    DATA     BYTE      REVID
      000000B7H   SFRSYM    DATA     BYTE      FLKEY
      000000B3H   SFRSYM    DATA     BYTE      ADC0AC
      00000054H   SYMBOL    DATA     BYTE      new_polarity
      00000055H   SYMBOL    DATA     ---       new_cpblank_duty
      00000059H   SYMBOL    DATA     WORD      prev_duty
      0000005BH   SYMBOL    DATA     ---       new_duty

      01001B95H   BLOCK     CODE     ---       LVL=0
      01001B95H   LINE      CODE     ---       #60
      01001B95H   LINE      CODE     ---       #61
      01001B95H   LINE      CODE     ---       #64
      01001B98H   LINE      CODE     ---       #68
      01001B9BH   LINE      CODE     ---       #71
      01001B9EH   LINE      CODE     ---       #72
      01001BA1H   LINE      CODE     ---       #75
      01001BA4H   LINE      CODE     ---       #86
      01001BA7H   LINE      CODE     ---       #91
      01001BAAH   LINE      CODE     ---       #92
      01001BACH   LINE      CODE     ---       #93
      01001BAEH   LINE      CODE     ---       #95
      01001BB0H   LINE      CODE     ---       #96
      01001BB2H   LINE      CODE     ---       #98
      01001BB5H   LINE      CODE     ---       #101
      01001BB8H   LINE      CODE     ---       #102
      01001BBCH   LINE      CODE     ---       #103
      ---         BLOCKEND  ---      ---       LVL=0

LX51 LINKER/LOCATER V4.66.30.0                                                        01/24/2020  09:48:17  PAGE 108


      01001E68H   BLOCK     CODE     ---       LVL=0
      01001E68H   LINE      CODE     ---       #114
      01001E68H   LINE      CODE     ---       #115
      01001E68H   LINE      CODE     ---       #116
      01001E6BH   LINE      CODE     ---       #117
      ---         BLOCKEND  ---      ---       LVL=0

      01001E4FH   BLOCK     CODE     ---       LVL=0
      01001E4FH   LINE      CODE     ---       #127
      01001E4FH   LINE      CODE     ---       #128
      01001E4FH   LINE      CODE     ---       #130
      01001E52H   LINE      CODE     ---       #131
      01001E55H   LINE      CODE     ---       #132
      ---         BLOCKEND  ---      ---       LVL=0

      010011E9H   BLOCK     CODE     ---       LVL=0
      00000002H   SYMBOL    DATA     WORD      duty
      010011EDH   BLOCK     CODE     NEAR LAB  LVL=1
      00000021H.6 SYMBOL    BIT      BIT       saved_ea
      00000004H   SYMBOL    DATA     WORD      ringing
      00000022H.7 SYMBOL    BIT      BIT       enable_during_pwmon
      00000001H   SYMBOL    DATA     BYTE      x_new_polarity
      00000062H   SYMBOL    DATA     ---       x_new_cpblank_duty
      ---         BLOCKEND  ---      ---       LVL=1
      010011E9H   LINE      CODE     ---       #170
      010011EDH   LINE      CODE     ---       #171
      010011EDH   LINE      CODE     ---       #179
      010011FAH   LINE      CODE     ---       #180
      01001203H   LINE      CODE     ---       #181
      01001203H   LINE      CODE     ---       #183
      01001203H   LINE      CODE     ---       #184
      01001207H   LINE      CODE     ---       #188
      0100121CH   LINE      CODE     ---       #189
      0100121CH   LINE      CODE     ---       #190
      0100121EH   LINE      CODE     ---       #191
      01001227H   LINE      CODE     ---       #192
      01001236H   LINE      CODE     ---       #193
      0100123FH   LINE      CODE     ---       #194
      01001241H   LINE      CODE     ---       #195
      01001243H   LINE      CODE     ---       #197
      01001243H   LINE      CODE     ---       #198
      01001245H   LINE      CODE     ---       #202
      01001257H   LINE      CODE     ---       #203
      0100125FH   LINE      CODE     ---       #204
      01001261H   LINE      CODE     ---       #205
      01001261H   LINE      CODE     ---       #207
      01001267H   LINE      CODE     ---       #208
      01001269H   LINE      CODE     ---       #209
      0100126FH   LINE      CODE     ---       #210
      01001273H   LINE      CODE     ---       #211
      01001277H   LINE      CODE     ---       #215
      0100127AH   LINE      CODE     ---       #216
      ---         BLOCKEND  ---      ---       LVL=0

      0100130AH   BLOCK     CODE     ---       LVL=0
      01001317H   BLOCK     CODE     NEAR LAB  LVL=1
      00000052H   SYMBOL    DATA     ---       xpca_count
      ---         BLOCKEND  ---      ---       LVL=1
      0100130AH   LINE      CODE     ---       #232
      01001317H   LINE      CODE     ---       #236
      0100131FH   LINE      CODE     ---       #237
      0100131FH   LINE      CODE     ---       #242
LX51 LINKER/LOCATER V4.66.30.0                                                        01/24/2020  09:48:17  PAGE 109


      01001322H   LINE      CODE     ---       #244
      01001324H   LINE      CODE     ---       #245
      01001327H   LINE      CODE     ---       #246
      01001329H   LINE      CODE     ---       #247
      0100132BH   LINE      CODE     ---       #249
      0100132EH   LINE      CODE     ---       #251
      01001331H   LINE      CODE     ---       #253
      01001334H   LINE      CODE     ---       #254
      01001337H   LINE      CODE     ---       #255
      0100133AH   LINE      CODE     ---       #257
      0100133DH   LINE      CODE     ---       #258
      0100133DH   LINE      CODE     ---       #259
      01001340H   LINE      CODE     ---       #260
      01001343H   LINE      CODE     ---       #267
      0100134EH   LINE      CODE     ---       #268
      01001351H   LINE      CODE     ---       #269
      01001354H   LINE      CODE     ---       #270
      01001354H   LINE      CODE     ---       #272
      01001357H   LINE      CODE     ---       #273
      01001357H   LINE      CODE     ---       #274
      0100135AH   LINE      CODE     ---       #275
      0100135DH   LINE      CODE     ---       #282
      01001368H   LINE      CODE     ---       #283
      0100136BH   LINE      CODE     ---       #284
      0100136EH   LINE      CODE     ---       #285
      0100136EH   LINE      CODE     ---       #286
      01001370H   LINE      CODE     ---       #288
      01001372H   LINE      CODE     ---       #289
      01001372H   LINE      CODE     ---       #291
      01001375H   LINE      CODE     ---       #292
      01001375H   LINE      CODE     ---       #295
      01001377H   LINE      CODE     ---       #296
      01001379H   LINE      CODE     ---       #297
      01001381H   LINE      CODE     ---       #298
      01001383H   LINE      CODE     ---       #300
      0100138BH   LINE      CODE     ---       #301
      0100138BH   LINE      CODE     ---       #302
      0100138DH   LINE      CODE     ---       #303
      0100138DH   LINE      CODE     ---       #304
      0100138DH   LINE      CODE     ---       #305
      ---         BLOCKEND  ---      ---       LVL=0

      ---         MODULE    ---      ---       TIMERS
      0000006FH   PUBLIC    DATA     ---       timer0_next
      0000006EH   PUBLIC    DATA     BYTE      timer0_state
      0000006DH   PUBLIC    DATA     BYTE      repeated_timer0
      01001BE4H   PUBLIC    CODE     ---       _TMR_delay_timer3
      01001D61H   PUBLIC    CODE     ---       TMR_init_timer3
      01001D84H   PUBLIC    CODE     ---       TMR_init_timer0
      000000A2H   SFRSYM    DATA     BYTE      SPI0CKR
      00000080H   SFRSYM    DATA     BYTE      P0
      000000D0H.2 SFRSYM    DATA     BIT       PSW_OV
      00000090H   SFRSYM    DATA     BYTE      P1
      00000097H   SFRSYM    DATA     BYTE      WDTCN
      000000A0H   SFRSYM    DATA     BYTE      P2
      000000BCH   SFRSYM    DATA     BYTE      ADC0CF
      000000C8H   SFRSYM    DATA     BIT       TMR2CN0_T2XCLK
      000000C0H.7 SFRSYM    DATA     BIT       SMB0CN0_MASTER
      000000F9H   SFRSYM    DATA     WORD      PCA0
      000000E6H   SFRSYM    DATA     BYTE      EIE1
      000000C0H.1 SFRSYM    DATA     BIT       SMB0CN0_ACK
      0000008FH   SFRSYM    DATA     BYTE      PSCTL
LX51 LINKER/LOCATER V4.66.30.0                                                        01/24/2020  09:48:17  PAGE 110


      000000E4H   SFRSYM    DATA     BYTE      IT01CF
      000000C0H.6 SFRSYM    DATA     BIT       SMB0CN0_TXMODE
      000000ADH   SFRSYM    DATA     BYTE      DERIVID
      000000A4H   SFRSYM    DATA     BYTE      P0MDOUT
      000000A5H   SFRSYM    DATA     BYTE      P1MDOUT
      000000E8H.5 SFRSYM    DATA     BIT       ADC0CN0_ADINT
      000000CBH   SFRSYM    DATA     BYTE      TMR2RLH
      000000A6H   SFRSYM    DATA     BYTE      P2MDOUT
      000000A8H   SFRSYM    DATA     BYTE      IE
      00000093H   SFRSYM    DATA     BYTE      TMR3RLH
      000000F3H   SFRSYM    DATA     BYTE      EIP1
      00000098H.2 SFRSYM    DATA     BIT       SCON0_RB8
      000000CAH   SFRSYM    DATA     BYTE      TMR2RLL
      000000FCH   SFRSYM    DATA     BYTE      PCA0CPH0
      00000092H   SFRSYM    DATA     BYTE      TMR3RLL
      000000EAH   SFRSYM    DATA     BYTE      PCA0CPH1
      00000098H.3 SFRSYM    DATA     BIT       SCON0_TB8
      000000F0H   SFRSYM    DATA     BIT       B_B0
      00000082H   SFRSYM    DATA     WORD      DP
      000000ECH   SFRSYM    DATA     BYTE      PCA0CPH2
      00000080H.2 SFRSYM    DATA     BIT       BTN0
      000000F0H.1 SFRSYM    DATA     BIT       B_B1
      000000C3H   SFRSYM    DATA     WORD      ADC0GT
      00000090H.1 SFRSYM    DATA     BIT       BTN1
      000000F0H.2 SFRSYM    DATA     BIT       B_B2
      000000FBH   SFRSYM    DATA     BYTE      PCA0CPL0
      000000F0H.3 SFRSYM    DATA     BIT       B_B3
      000000D9H   SFRSYM    DATA     BYTE      PCA0MD
      000000DAH   SFRSYM    DATA     BYTE      PCA0CPM0
      000000E9H   SFRSYM    DATA     BYTE      PCA0CPL1
      000000F0H.4 SFRSYM    DATA     BIT       B_B4
      000000DBH   SFRSYM    DATA     BYTE      PCA0CPM1
      000000EBH   SFRSYM    DATA     BYTE      PCA0CPL2
      000000F0H.5 SFRSYM    DATA     BIT       B_B5
      000000DCH   SFRSYM    DATA     BYTE      PCA0CPM2
      000000B8H   SFRSYM    DATA     BYTE      IP
      000000B9H   SFRSYM    DATA     BYTE      ADC0TK
      000000F0H.6 SFRSYM    DATA     BIT       B_B6
      000000C5H   SFRSYM    DATA     WORD      ADC0LT
      00000098H.5 SFRSYM    DATA     BIT       SCON0_MCE
      000000F0H.7 SFRSYM    DATA     BIT       B_B7
      000000E1H   SFRSYM    DATA     BYTE      XBR0
      000000C1H   SFRSYM    DATA     BYTE      SMB0CF
      000000E2H   SFRSYM    DATA     BYTE      XBR1
      000000C0H.5 SFRSYM    DATA     BIT       SMB0CN0_STA
      000000E3H   SFRSYM    DATA     BYTE      XBR2
      000000BBH   SFRSYM    DATA     BYTE      ADC0MX
      000000E0H   SFRSYM    DATA     BIT       ACC_ACC0
      000000D1H   SFRSYM    DATA     BYTE      REF0CN
      0000008EH   SFRSYM    DATA     BYTE      CKCON0
      000000E0H.1 SFRSYM    DATA     BIT       ACC_ACC1
      000000C9H   SFRSYM    DATA     BYTE      REG0CN
      000000DDH   SFRSYM    DATA     BYTE      CRC0IN
      000000C8H.2 SFRSYM    DATA     BIT       TMR2CN0_TR2
      000000E0H.2 SFRSYM    DATA     BIT       ACC_ACC2
      000000E0H.3 SFRSYM    DATA     BIT       ACC_ACC3
      00000081H   SFRSYM    DATA     BYTE      SP
      0000009DH   SFRSYM    DATA     BYTE      CMP0MD
      000000E0H.4 SFRSYM    DATA     BIT       ACC_ACC4
      000000B1H   SFRSYM    DATA     BYTE      LFO0CN
      000000ABH   SFRSYM    DATA     BYTE      CMP1MD
      000000D8H   SFRSYM    DATA     BIT       PCA0CN0_CCF0
LX51 LINKER/LOCATER V4.66.30.0                                                        01/24/2020  09:48:17  PAGE 111


      000000E0H.5 SFRSYM    DATA     BIT       ACC_ACC5
      000000D8H.1 SFRSYM    DATA     BIT       PCA0CN0_CCF1
      000000E0H.6 SFRSYM    DATA     BIT       ACC_ACC6
      000000CCH   SFRSYM    DATA     WORD      TMR2
      000000D8H.2 SFRSYM    DATA     BIT       PCA0CN0_CCF2
      000000E0H.7 SFRSYM    DATA     BIT       ACC_ACC7
      00000094H   SFRSYM    DATA     WORD      TMR3
      000000C0H.3 SFRSYM    DATA     BIT       SMB0CN0_ACKRQ
      000000FFH   SFRSYM    DATA     BYTE      VDM0CN
      000000F1H   SFRSYM    DATA     BYTE      P0MDIN
      00000098H.4 SFRSYM    DATA     BIT       SCON0_REN
      000000ACH   SFRSYM    DATA     BYTE      SMB0TC
      000000F2H   SFRSYM    DATA     BYTE      P1MDIN
      000000C0H.4 SFRSYM    DATA     BIT       SMB0CN0_STO
      000000FEH   SFRSYM    DATA     BYTE      P0MASK
      000000EEH   SFRSYM    DATA     BYTE      P1MASK
      000000D0H.3 SFRSYM    DATA     BIT       PSW_RS0
      000000D8H.7 SFRSYM    DATA     BIT       PCA0CN0_CF
      0000009EH   SFRSYM    DATA     BYTE      PCA0CENT
      000000F8H.4 SFRSYM    DATA     BIT       SPI0CN0_RXOVRN
      000000D0H.4 SFRSYM    DATA     BIT       PSW_RS1
      000000E8H.7 SFRSYM    DATA     BIT       ADC0CN0_ADEN
      00000089H   SFRSYM    DATA     BYTE      TMOD
      00000088H   SFRSYM    DATA     BYTE      TCON
      000000CFH   SFRSYM    DATA     BYTE      CRC0FLIP
      000000D0H   SFRSYM    DATA     BIT       PSW_PARITY
      000000A8H.4 SFRSYM    DATA     BIT       IE_ES0
      0000009FH   SFRSYM    DATA     BYTE      CMP0MX
      000000A8H.1 SFRSYM    DATA     BIT       IE_ET0
      000000AAH   SFRSYM    DATA     BYTE      CMP1MX
      000000A8H.3 SFRSYM    DATA     BIT       IE_ET1
      000000D4H   SFRSYM    DATA     BYTE      P0SKIP
      000000A8H.5 SFRSYM    DATA     BIT       IE_ET2
      000000D5H   SFRSYM    DATA     BYTE      P1SKIP
      000000E8H   SFRSYM    DATA     BYTE      ADC0CN0
      000000A8H   SFRSYM    DATA     BIT       IE_EX0
      000000B2H   SFRSYM    DATA     BYTE      ADC0CN1
      000000D8H.6 SFRSYM    DATA     BIT       PCA0CN0_CR
      000000A8H.2 SFRSYM    DATA     BIT       IE_EX1
      00000098H.7 SFRSYM    DATA     BIT       SCON0_SMODE
      000000B5H   SFRSYM    DATA     BYTE      DEVICEID
      000000A9H   SFRSYM    DATA     BYTE      CLKSEL
      000000F8H   SFRSYM    DATA     BIT       SPI0CN0_SPIEN
      000000F0H   SFRSYM    DATA     BYTE      B
      000000BEH   SFRSYM    DATA     BYTE      ADC0H
      000000D2H   SFRSYM    DATA     BYTE      CRC0AUTO
      000000E8H.6 SFRSYM    DATA     BIT       ADC0CN0_ADBMEN
      000000CAH   SFRSYM    DATA     WORD      TMR2RL
      000000BDH   SFRSYM    DATA     BYTE      ADC0L
      00000092H   SFRSYM    DATA     WORD      TMR3RL
      000000D8H   SFRSYM    DATA     BYTE      PCA0CN0
      000000E0H   SFRSYM    DATA     BYTE      ACC
      000000FBH   SFRSYM    DATA     WORD      PCA0CP0
      000000E9H   SFRSYM    DATA     WORD      PCA0CP1
      000000EBH   SFRSYM    DATA     WORD      PCA0CP2
      000000CEH   SFRSYM    DATA     BYTE      CRC0CN0
      00000090H.4 SFRSYM    DATA     BIT       BSP_LED0
      0000008CH   SFRSYM    DATA     BYTE      TH0
      000000B8H.4 SFRSYM    DATA     BIT       IP_PS0
      0000008DH   SFRSYM    DATA     BYTE      TH1
      000000FAH   SFRSYM    DATA     BYTE      PCA0H
      000000B8H.1 SFRSYM    DATA     BIT       IP_PT0
LX51 LINKER/LOCATER V4.66.30.0                                                        01/24/2020  09:48:17  PAGE 112


      000000B8H.3 SFRSYM    DATA     BIT       IP_PT1
      000000C0H.2 SFRSYM    DATA     BIT       SMB0CN0_ARBLOST
      000000B8H.5 SFRSYM    DATA     BIT       IP_PT2
      0000008AH   SFRSYM    DATA     BYTE      TL0
      000000F8H.1 SFRSYM    DATA     BIT       SPI0CN0_TXBMT
      000000D0H.5 SFRSYM    DATA     BIT       PSW_F0
      000000A8H.6 SFRSYM    DATA     BIT       IE_ESPI0
      0000008BH   SFRSYM    DATA     BYTE      TL1
      000000F9H   SFRSYM    DATA     BYTE      PCA0L
      000000C0H   SFRSYM    DATA     BIT       SMB0CN0_SI
      000000D0H.1 SFRSYM    DATA     BIT       PSW_F1
      00000080H   SFRSYM    DATA     BIT       P0_B0
      000000B8H   SFRSYM    DATA     BIT       IP_PX0
      00000090H   SFRSYM    DATA     BIT       P1_B0
      00000080H.1 SFRSYM    DATA     BIT       P0_B1
      000000B8H.2 SFRSYM    DATA     BIT       IP_PX1
      0000009BH   SFRSYM    DATA     BYTE      CMP0CN0
      00000088H.1 SFRSYM    DATA     BIT       TCON_IE0
      000000A0H   SFRSYM    DATA     BIT       P2_B0
      00000090H.1 SFRSYM    DATA     BIT       P1_B1
      00000080H.2 SFRSYM    DATA     BIT       P0_B2
      000000BFH   SFRSYM    DATA     BYTE      CMP1CN0
      00000088H.3 SFRSYM    DATA     BIT       TCON_IE1
      000000A0H.1 SFRSYM    DATA     BIT       P2_B1
      00000090H.2 SFRSYM    DATA     BIT       P1_B2
      00000080H.3 SFRSYM    DATA     BIT       P0_B3
      000000C0H   SFRSYM    DATA     BYTE      SMB0CN0
      00000090H.3 SFRSYM    DATA     BIT       P1_B3
      00000080H.4 SFRSYM    DATA     BIT       P0_B4
      00000090H.4 SFRSYM    DATA     BIT       P1_B4
      00000080H.5 SFRSYM    DATA     BIT       P0_B5
      00000090H.5 SFRSYM    DATA     BIT       P1_B5
      00000080H.6 SFRSYM    DATA     BIT       P0_B6
      00000090H.6 SFRSYM    DATA     BIT       P1_B6
      00000080H.7 SFRSYM    DATA     BIT       P0_B7
      00000090H.7 SFRSYM    DATA     BIT       P1_B7
      00000080H.2 SFRSYM    DATA     BIT       BSP_BTN0
      00000083H   SFRSYM    DATA     BYTE      DPH
      000000C4H   SFRSYM    DATA     BYTE      ADC0GTH
      000000C8H.7 SFRSYM    DATA     BIT       TMR2CN0_TF2H
      000000C8H.3 SFRSYM    DATA     BIT       TMR2CN0_T2SPLIT
      000000D0H.6 SFRSYM    DATA     BIT       PSW_AC
      000000F8H   SFRSYM    DATA     BYTE      SPI0CN0
      000000C7H   SFRSYM    DATA     BYTE      HFO0CAL
      00000088H.5 SFRSYM    DATA     BIT       TCON_TF0
      00000098H   SFRSYM    DATA     BIT       SCON0_RI
      00000082H   SFRSYM    DATA     BYTE      DPL
      00000088H.7 SFRSYM    DATA     BIT       TCON_TF1
      00000099H   SFRSYM    DATA     BYTE      SBUF0
      00000087H   SFRSYM    DATA     BYTE      PCON0
      000000C3H   SFRSYM    DATA     BYTE      ADC0GTL
      000000C8H.6 SFRSYM    DATA     BIT       TMR2CN0_TF2L
      00000098H.1 SFRSYM    DATA     BIT       SCON0_TI
      000000E8H   SFRSYM    DATA     BIT       ADC0CN0_ADCM0
      000000C6H   SFRSYM    DATA     BYTE      ADC0LTH
      00000088H   SFRSYM    DATA     BIT       TCON_IT0
      000000E8H.1 SFRSYM    DATA     BIT       ADC0CN0_ADCM1
      000000EFH   SFRSYM    DATA     BYTE      RSTSRC
      000000FDH   SFRSYM    DATA     BYTE      P0MAT
      000000DEH   SFRSYM    DATA     BYTE      CRC0DAT
      00000088H.2 SFRSYM    DATA     BIT       TCON_IT1
      000000E8H.2 SFRSYM    DATA     BIT       ADC0CN0_ADCM2
LX51 LINKER/LOCATER V4.66.30.0                                                        01/24/2020  09:48:17  PAGE 113


      00000098H   SFRSYM    DATA     BYTE      SCON0
      000000F6H   SFRSYM    DATA     BYTE      PRTDRV
      000000EDH   SFRSYM    DATA     BYTE      P1MAT
      000000E8H.3 SFRSYM    DATA     BIT       ADC0CN0_ADWINT
      000000E8H.4 SFRSYM    DATA     BIT       ADC0CN0_ADBUSY
      000000D6H   SFRSYM    DATA     BYTE      SMB0ADM
      000000C5H   SFRSYM    DATA     BYTE      ADC0LTL
      000000F8H.5 SFRSYM    DATA     BIT       SPI0CN0_MODF
      000000B8H.6 SFRSYM    DATA     BIT       IP_PSPI0
      0000009CH   SFRSYM    DATA     BYTE      PCA0CLR
      000000C8H   SFRSYM    DATA     BYTE      TMR2CN0
      00000091H   SFRSYM    DATA     BYTE      TMR3CN0
      000000D7H   SFRSYM    DATA     BYTE      SMB0ADR
      00000088H.4 SFRSYM    DATA     BIT       TCON_TR0
      000000C8H.4 SFRSYM    DATA     BIT       TMR2CN0_TF2CEN
      00000088H.6 SFRSYM    DATA     BIT       TCON_TR1
      000000C2H   SFRSYM    DATA     BYTE      SMB0DAT
      000000CDH   SFRSYM    DATA     BYTE      TMR2H
      000000A1H   SFRSYM    DATA     BYTE      SPI0CFG
      00000095H   SFRSYM    DATA     BYTE      TMR3H
      000000D3H   SFRSYM    DATA     BYTE      CRC0CNT
      00000096H   SFRSYM    DATA     BYTE      PCA0POL
      000000CCH   SFRSYM    DATA     BYTE      TMR2L
      000000F8H.7 SFRSYM    DATA     BIT       SPI0CN0_SPIF
      00000094H   SFRSYM    DATA     BYTE      TMR3L
      000000DFH   SFRSYM    DATA     BYTE      ADC0PWR
      000000A8H.7 SFRSYM    DATA     BIT       IE_EA
      000000C8H.5 SFRSYM    DATA     BIT       TMR2CN0_TF2LEN
      000000F8H.6 SFRSYM    DATA     BIT       SPI0CN0_WCOL
      000000F8H.2 SFRSYM    DATA     BIT       SPI0CN0_NSSMD0
      000000D0H.7 SFRSYM    DATA     BIT       PSW_CY
      000000A3H   SFRSYM    DATA     BYTE      SPI0DAT
      000000F8H.3 SFRSYM    DATA     BIT       SPI0CN0_NSSMD1
      000000BDH   SFRSYM    DATA     WORD      ADC0
      000000D0H   SFRSYM    DATA     BYTE      PSW
      000000F7H   SFRSYM    DATA     BYTE      PCA0PWM
      000000B6H   SFRSYM    DATA     BYTE      REVID
      000000B7H   SFRSYM    DATA     BYTE      FLKEY
      000000B3H   SFRSYM    DATA     BYTE      ADC0AC

      01001D84H   BLOCK     CODE     ---       LVL=0
      01001D84H   LINE      CODE     ---       #38
      01001D84H   LINE      CODE     ---       #39
      01001D84H   LINE      CODE     ---       #41
      01001D87H   LINE      CODE     ---       #42
      01001D8AH   LINE      CODE     ---       #43
      01001D8DH   LINE      CODE     ---       #44
      01001D92H   LINE      CODE     ---       #46
      01001D94H   LINE      CODE     ---       #47
      ---         BLOCKEND  ---      ---       LVL=0

      01001D61H   BLOCK     CODE     ---       LVL=0
      01001D61H   LINE      CODE     ---       #62
      01001D61H   LINE      CODE     ---       #63
      01001D61H   LINE      CODE     ---       #65
      01001D64H   LINE      CODE     ---       #66
      01001D67H   LINE      CODE     ---       #67
      01001D6AH   LINE      CODE     ---       #70
      01001D6DH   LINE      CODE     ---       #72
      01001D70H   LINE      CODE     ---       #73
      01001D72H   LINE      CODE     ---       #74
      ---         BLOCKEND  ---      ---       LVL=0
LX51 LINKER/LOCATER V4.66.30.0                                                        01/24/2020  09:48:17  PAGE 114



      01001BE4H   BLOCK     CODE     ---       LVL=0
      00000007H   SYMBOL    DATA     BYTE      delay_ms
      01001BE4H   LINE      CODE     ---       #87
      01001BE4H   LINE      CODE     ---       #88
      01001BE4H   LINE      CODE     ---       #90
      01001BE7H   LINE      CODE     ---       #92
      01001BEAH   LINE      CODE     ---       #93
      01001BEDH   LINE      CODE     ---       #95
      01001BF3H   LINE      CODE     ---       #96
      01001BF6H   LINE      CODE     ---       #97
      01001BFCH   LINE      CODE     ---       #98
      01001BFCH   LINE      CODE     ---       #99
      01001C01H   LINE      CODE     ---       #100
      01001C04H   LINE      CODE     ---       #101
      01001C07H   LINE      CODE     ---       #103
      01001C0AH   LINE      CODE     ---       #104
      ---         BLOCKEND  ---      ---       LVL=0

      ---         MODULE    ---      ---       ?C_INIT
      010012C5H   PUBLIC    CODE     ---       ?C_START

      ---         MODULE    ---      ---       ?C?IMUL
      01000066H   PUBLIC    CODE     ---       ?C?IMUL

      ---         MODULE    ---      ---       ?C?UIDIV
      01000078H   PUBLIC    CODE     ---       ?C?UIDIV

      ---         MODULE    ---      ---       ?C?LMUL
      010000CDH   PUBLIC    CODE     ---       ?C?LMUL

      ---         MODULE    ---      ---       ?C?ULDIV
      01000158H   PUBLIC    CODE     ---       ?C?ULDIV

      ---         MODULE    ---      ---       ?C?LNEG
      010001EAH   PUBLIC    CODE     ---       ?C?LNEG

      ---         MODULE    ---      ---       ?C?SLCMP
      010001F8H   PUBLIC    CODE     ---       ?C?SLCMP

      ---         MODULE    ---      ---       ?C?ULCMP
      0100020EH   PUBLIC    CODE     ---       ?C?ULCMP

      ---         MODULE    ---      ---       ?C?ULSHR
      0100021FH   PUBLIC    CODE     ---       ?C?ULSHR

      ---         MODULE    ---      ---       ?C?SLSHR
      01000232H   PUBLIC    CODE     ---       ?C?SLSHR

      ---         MODULE    ---      ---       ?C?LSTXDATA
      01000246H   PUBLIC    CODE     ---       ?C?LSTXDATA

      ---         MODULE    ---      ---       ?C?LSTKXDATA
      01000252H   PUBLIC    CODE     ---       ?C?LSTKXDATA

      ---         MODULE    ---      ---       ?C?OFFXADD
      01000283H   PUBLIC    CODE     ---       ?C?OFFXADD

      ---         MODULE    ---      ---       ?C?ICASE
      0100028FH   PUBLIC    CODE     ---       ?C?ICASE

      ---         MODULE    ---      ---       ?C?ICALL
LX51 LINKER/LOCATER V4.66.30.0                                                        01/24/2020  09:48:17  PAGE 115


      010002BCH   PUBLIC    CODE     ---       ?C?ICALL
      010002C0H   PUBLIC    CODE     ---       ?C?ICALL2

      ---         MODULE    ---      ---       ?C?LIMUL
      010002C2H   PUBLIC    CODE     ---       ?C?LIMUL

Program Size: data=180.0 xdata=143 const=51 code=7787
LX51 RUN COMPLETE.  0 WARNING(S),  0 ERROR(S)
