LX51 LINKER/LOCATER V4.66.30.0                                                          01/16/2020  15:26:40  PAGE 1


LX51 LINKER/LOCATER V4.66.30.0, INVOKED BY:
C:\SILICONLABS\SIMPLICITYSTUDIO\V4\DEVELOPER\TOOLCHAINS\KEIL_8051\9.53\BIN\LX51.EXE ./lib/efm8_assert/assert.OBJ, ./lib/
>> efm8bb1/peripheralDrivers/src/pca_0.OBJ, ./src/EFM8BB1_BLDC_PORT.OBJ, ./src/InitDevice.OBJ, ./src/Interrupts.OBJ, ./s
>> rc/SILABS_STARTUP.OBJ, ./src/adc.OBJ, ./src/motor.OBJ, ./src/mtrpid.OBJ, ./src/pca.OBJ, ./src/timers.OBJ TO EFM8BB1_B
>> LDC_PORT.OMF.CRBUILD REMOVEUNUSED PRINT (.\EFM8BB1_BLDC_PORT.m51) PAGEWIDTH (120) PAGELENGTH (65) CLASSES (ECODE (C:0
>> X0-C:0X1FFE), HCONST (C:0X0-C:0X1FFE), XDATA (X:0X0-X:0XFF), HDATA (X:0X0-X:0XFF))


CPU MODE:     8051 MODE
MEMORY MODEL: SMALL


INPUT MODULES INCLUDED:
  ./lib/efm8_assert/assert.OBJ (ASSERT)
         COMMENT TYPE 0: C51 V9.53.0.0
  ./lib/efm8bb1/peripheralDrivers/src/pca_0.OBJ (PCA_0)
         COMMENT TYPE 0: C51 V9.53.0.0
  ./src/EFM8BB1_BLDC_PORT.OBJ (EFM8BB1_BLDC_PORT)
         COMMENT TYPE 0: C51 V9.53.0.0
  ./src/InitDevice.OBJ (INITDEVICE)
         COMMENT TYPE 0: C51 V9.53.0.0
  ./src/Interrupts.OBJ (INTERRUPTS)
         COMMENT TYPE 0: C51 V9.53.0.0
  ./src/SILABS_STARTUP.OBJ (?C_STARTUP)
         COMMENT TYPE 0: AX51 V3.12.0.0
  ./src/adc.OBJ (ADC)
         COMMENT TYPE 0: C51 V9.53.0.0
  ./src/motor.OBJ (MOTOR)
         COMMENT TYPE 0: C51 V9.53.0.0
  ./src/mtrpid.OBJ (MTRPID)
         COMMENT TYPE 0: C51 V9.53.0.0
  ./src/pca.OBJ (PCA)
         COMMENT TYPE 0: C51 V9.53.0.0
  ./src/timers.OBJ (TIMERS)
         COMMENT TYPE 0: C51 V9.53.0.0
  C:\SILICONLABS\SIMPLICITYSTUDIO\V4\DEVELOPER\TOOLCHAINS\KEIL_8051\9.53\LIB\C51S.LIB (?C_INIT)
         COMMENT TYPE 1: A51 / ASM51 Assembler
  C:\SILICONLABS\SIMPLICITYSTUDIO\V4\DEVELOPER\TOOLCHAINS\KEIL_8051\9.53\LIB\C51S.LIB (?C?UIDIV)
         COMMENT TYPE 1: A51 / ASM51 Assembler
  C:\SILICONLABS\SIMPLICITYSTUDIO\V4\DEVELOPER\TOOLCHAINS\KEIL_8051\9.53\LIB\C51S.LIB (?C?LMUL)
         COMMENT TYPE 1: A51 / ASM51 Assembler
  C:\SILICONLABS\SIMPLICITYSTUDIO\V4\DEVELOPER\TOOLCHAINS\KEIL_8051\9.53\LIB\C51S.LIB (?C?ULDIV)
         COMMENT TYPE 1: A51 / ASM51 Assembler
  C:\SILICONLABS\SIMPLICITYSTUDIO\V4\DEVELOPER\TOOLCHAINS\KEIL_8051\9.53\LIB\C51S.LIB (?C?LNEG)
         COMMENT TYPE 1: A51 / ASM51 Assembler
  C:\SILICONLABS\SIMPLICITYSTUDIO\V4\DEVELOPER\TOOLCHAINS\KEIL_8051\9.53\LIB\C51S.LIB (?C?SLCMP)
         COMMENT TYPE 1: A51 / ASM51 Assembler
  C:\SILICONLABS\SIMPLICITYSTUDIO\V4\DEVELOPER\TOOLCHAINS\KEIL_8051\9.53\LIB\C51S.LIB (?C?ULCMP)
         COMMENT TYPE 1: A51 / ASM51 Assembler
  C:\SILICONLABS\SIMPLICITYSTUDIO\V4\DEVELOPER\TOOLCHAINS\KEIL_8051\9.53\LIB\C51S.LIB (?C?ULSHR)
         COMMENT TYPE 1: A51 / ASM51 Assembler
  C:\SILICONLABS\SIMPLICITYSTUDIO\V4\DEVELOPER\TOOLCHAINS\KEIL_8051\9.53\LIB\C51S.LIB (?C?SLSHR)
         COMMENT TYPE 1: A51 / ASM51 Assembler
  C:\SILICONLABS\SIMPLICITYSTUDIO\V4\DEVELOPER\TOOLCHAINS\KEIL_8051\9.53\LIB\C51S.LIB (?C?LSTXDATA)
         COMMENT TYPE 1: A51 / ASM51 Assembler
  C:\SILICONLABS\SIMPLICITYSTUDIO\V4\DEVELOPER\TOOLCHAINS\KEIL_8051\9.53\LIB\C51S.LIB (?C?LSTKXDATA)
         COMMENT TYPE 1: A51 / ASM51 Assembler
  C:\SILICONLABS\SIMPLICITYSTUDIO\V4\DEVELOPER\TOOLCHAINS\KEIL_8051\9.53\LIB\C51S.LIB (?C?OFFXADD)
         COMMENT TYPE 1: A51 / ASM51 Assembler
  C:\SILICONLABS\SIMPLICITYSTUDIO\V4\DEVELOPER\TOOLCHAINS\KEIL_8051\9.53\LIB\C51S.LIB (?C?LIMUL)
         COMMENT TYPE 1: A51 / ASM51 Assembler
  C:\SILICONLABS\SIMPLICITYSTUDIO\V4\DEVELOPER\TOOLCHAINS\KEIL_8051\9.53\LIB\C51S.LIB (PRINTF)
         COMMENT TYPE 1: A51 / ASM51 Assembler
LX51 LINKER/LOCATER V4.66.30.0                                                        01/16/2020  15:26:40  PAGE 2


  C:\SILICONLABS\SIMPLICITYSTUDIO\V4\DEVELOPER\TOOLCHAINS\KEIL_8051\9.53\LIB\C51S.LIB (?C?CLDPTR)
         COMMENT TYPE 1: A51 / ASM51 Assembler
  C:\SILICONLABS\SIMPLICITYSTUDIO\V4\DEVELOPER\TOOLCHAINS\KEIL_8051\9.53\LIB\C51S.LIB (?C?CLDOPTR)
         COMMENT TYPE 1: A51 / ASM51 Assembler
  C:\SILICONLABS\SIMPLICITYSTUDIO\V4\DEVELOPER\TOOLCHAINS\KEIL_8051\9.53\LIB\C51S.LIB (?C?CSTPTR)
         COMMENT TYPE 1: A51 / ASM51 Assembler
  C:\SILICONLABS\SIMPLICITYSTUDIO\V4\DEVELOPER\TOOLCHAINS\KEIL_8051\9.53\LIB\C51S.LIB (?C?PLDIIDATA)
         COMMENT TYPE 1: A51 / ASM51 Assembler
  C:\SILICONLABS\SIMPLICITYSTUDIO\V4\DEVELOPER\TOOLCHAINS\KEIL_8051\9.53\LIB\C51S.LIB (?C?CCASE)
         COMMENT TYPE 1: A51 / ASM51 Assembler
  C:\SILICONLABS\SIMPLICITYSTUDIO\V4\DEVELOPER\TOOLCHAINS\KEIL_8051\9.53\LIB\C51S.LIB (PUTCHAR)
         COMMENT TYPE 1: A51 / ASM51 Assembler


ACTIVE MEMORY CLASSES OF MODULE:  EFM8BB1_BLDC_PORT.OMF.CRBUILD (ASSERT)

BASE        START       END         USED      MEMORY CLASS
==========================================================
C:000000H   C:000000H   C:001FFEH             ECODE
B00:0000H   C:000000H   C:001FFEH             HCONST
X:000000H   X:000000H   X:0000FFH   000037H   XDATA
X:000000H   X:000000H   X:0000FFH             HDATA
C:000000H   C:000000H   C:00FFFFH   0009F2H   CODE
I:000020H.0 I:000020H.0 I:00002FH.7 000003H.0 BIT
I:000000H   I:000000H   I:00007FH   000065H   DATA
I:000000H   I:000000H   I:0000FFH   000003H   IDATA
C:000000H   C:000000H   C:00FFFFH             CONST


MEMORY MAP OF MODULE:  EFM8BB1_BLDC_PORT.OMF.CRBUILD (ASSERT)


START     STOP      LENGTH    ALIGN  RELOC    MEMORY CLASS   SEGMENT NAME
=========================================================================

* * * * * * * * * * *   D A T A   M E M O R Y   * * * * * * * * * * * * *
000000H   000007H   000008H   ---    AT..     DATA           "REG BANK 0"
000008H   000014H   00000DH   BYTE   UNIT     DATA           ?DT?INTERRUPTS
000015H   00001DH   000009H   BYTE   UNIT     DATA           ?DT?PCA
00001EH   00001EH   000001H   BYTE   UNIT     DATA           ?DT?ADC
00001FH   00001FH   000001H   BYTE   UNIT     IDATA          ?ID?ADC
000020H.0 000021H.2 000001H.3 BIT    UNIT     BIT            ?BI?MOTOR
000021H.3 000022H.5 000001H.3 BIT    UNIT     BIT            _BIT_GROUP_
000022H.6 000022H.6 000000H.1 BIT    UNIT     BIT            ?BI?MTRPID
000022H.7 000022H.7 000000H.1 BIT    UNIT     BIT            ?BI?PCA
000023H   000041H   00001FH   BYTE   UNIT     DATA           _DATA_GROUP_
000042H   00005EH   00001DH   BYTE   UNIT     DATA           ?DT?MOTOR
00005FH   000064H   000006H   BYTE   UNIT     DATA           ?DT?MTRPID
000065H   000068H   000004H   BYTE   UNIT     DATA           ?DT?TIMERS
000069H   000069H   000001H   BYTE   UNIT     IDATA          ?ID?MOTOR
00006AH   00006AH   000001H   BYTE   UNIT     IDATA          ?STACK

* * * * * * * * * * *   C O D E   M E M O R Y   * * * * * * * * * * * * *
000000H   000002H   000003H   ---    OFFS..   CODE           ?CO?SILABS_STARTUP?3
000003H   000052H   000050H   BYTE   UNIT     CODE           ?PR?MAIN?EFM8BB1_BLDC_PORT
000053H   000055H   000003H   BYTE   OFFS..   CODE           ?INTERRUPTS?00053
000056H   000059H   000004H   BYTE   UNIT     CODE           ?PR?CLOCK_0_ENTER_DEFAULTMODE_FROM_RESET?INITDEVICE
00005AH   00005AH   000001H   BYTE   UNIT     CODE           ?PR?SILABS_STARTUP?EFM8BB1_BLDC_PORT
00005BH   00005DH   000003H   BYTE   OFFS..   CODE           ?INTERRUPTS?0005B
00005EH   00006AH   00000DH   BYTE   UNIT     CODE           ?PR?ADC_0_ENTER_DEFAULTMODE_FROM_RESET?INITDEVICE
00006BH   00006DH   000003H   BYTE   OFFS..   CODE           ?INTERRUPTS?0006B
00006EH   000071H   000004H   BYTE   UNIT     CODE           ?PR?UART_0_ENTER_DEFAULTMODE_FROM_RESET?INITDEVICE
LX51 LINKER/LOCATER V4.66.30.0                                                        01/16/2020  15:26:40  PAGE 3


000072H   000072H   000001H   BYTE   UNIT     CODE           ?PR?CMP1_ISR?INTERRUPTS
000073H   000075H   000003H   BYTE   OFFS..   CODE           ?INTERRUPTS?00073
000076H   0003D1H   00035CH   BYTE   UNIT     CODE           ?PR?PRINTF?PRINTF
0003D2H   0006A3H   0002D2H   BYTE   UNIT     CODE           ?C?LIB_CODE
0006A4H   000768H   0000C5H   BYTE   UNIT     CODE           ?PR?ADC0EOC_ISR?INTERRUPTS
000769H   0007F7H   00008FH   BYTE   UNIT     CODE           ?C_C51STARTUP
0007F8H   000885H   00008EH   BYTE   UNIT     CODE           ?PR?PCA0_ISR?INTERRUPTS
000886H   0008CEH   000049H   BYTE   UNIT     CODE           ?PR?WDT_0_ENTER_DEFAULTMODE_FROM_RESET?INITDEVICE
0008CFH   0008FBH   00002DH   BYTE   UNIT     CODE           ?PR?ENTER_DEFAULTMODE_FROM_RESET?INITDEVICE
0008FCH   000922H   000027H   BYTE   UNIT     CODE           ?PR?PUTCHAR?PUTCHAR
000923H   000940H   00001EH   BYTE   UNIT     CODE           ?PR?_PCA0_WRITECHANNEL?PCA_0
000941H   00095BH   00001BH   BYTE   UNIT     CODE           ?C_INITSEG
00095CH   000972H   000017H   BYTE   UNIT     CODE           ?CO?INTERRUPTS
000973H   000985H   000013H   BYTE   UNIT     CODE           ?PR?TIMER01_0_ENTER_DEFAULTMODE_FROM_RESET?INITDEVICE
000986H   000998H   000013H   BYTE   UNIT     CODE           ?PR?TIMER16_2_ENTER_DEFAULTMODE_FROM_RESET?INITDEVICE
000999H   0009A6H   00000EH   BYTE   UNIT     CODE           ?PR?PCA_0_ENTER_DEFAULTMODE_FROM_RESET?INITDEVICE
0009A7H   0009B3H   00000DH   BYTE   UNIT     CODE           ?PR?TIMER16_3_ENTER_DEFAULTMODE_FROM_RESET?INITDEVICE
0009B4H   0009BDH   00000AH   BYTE   UNIT     CODE           ?PR?PORTS_0_ENTER_DEFAULTMODE_FROM_RESET?INITDEVICE
0009BEH   0009C7H   00000AH   BYTE   UNIT     CODE           ?PR?PCACH_0_ENTER_DEFAULTMODE_FROM_RESET?INITDEVICE
0009C8H   0009D1H   00000AH   BYTE   UNIT     CODE           ?PR?CMP_1_ENTER_DEFAULTMODE_FROM_RESET?INITDEVICE
0009D2H   0009DBH   00000AH   BYTE   UNIT     CODE           ?PR?TIMER_SETUP_0_ENTER_DEFAULTMODE_FROM_RESET?INITDEVICE
0009DCH   0009E2H   000007H   BYTE   UNIT     CODE           ?PR?PORTS_1_ENTER_DEFAULTMODE_FROM_RESET?INITDEVICE
0009E3H   0009E9H   000007H   BYTE   UNIT     CODE           ?PR?PBCFG_0_ENTER_DEFAULTMODE_FROM_RESET?INITDEVICE
0009EAH   0009F0H   000007H   BYTE   UNIT     CODE           ?PR?INTERRUPT_0_ENTER_DEFAULTMODE_FROM_RESET?INITDEVICE
0009F1H   0009F1H   000001H   BYTE   UNIT     CODE           ?PR?TIMER3_ISR?INTERRUPTS

* * * * * * * * * * *  X D A T A   M E M O R Y  * * * * * * * * * * * * *
000000H   000026H   000027H   BYTE   UNIT     XDATA          ?XD?MOTOR
000027H   000030H   00000AH   BYTE   UNIT     XDATA          ?XD?MTRPID
000031H   000036H   000006H   BYTE   UNIT     XDATA          ?XD?ADC

* * * * * * * * *   R E M O V E D     S E G M E N T S   * * * * * * * *
   *DEL*:           000002H   BYTE   UNIT     CODE           ?PR?SLAB_ASSERT?ASSERT
   *DEL*:           00000CH   BYTE   UNIT     CODE           ?PR?PCA0_GETINTFLAGS?PCA_0
   *DEL*:           00000DH   BYTE   UNIT     CODE           ?PR?_PCA0_CLEARINTFLAG?PCA_0
   *DEL*:           00003DH   BYTE   UNIT     CODE           ?PR?_PCA0_ENABLEINT?PCA_0
   *DEL*:           000000H.1 BIT    UNIT     BIT            ?BI?_PCA0_ENABLEINT?PCA_0
   *DEL*:           00001EH   BYTE   UNIT     CODE           ?PR?_PCA0_READCHANNEL?PCA_0
   *DEL*:           00000FH   BYTE   UNIT     CODE           ?PR?PCA0_READCOUNTER?PCA_0
   *DEL*:           000005H   BYTE   UNIT     CODE           ?PR?_PCA0_WRITECOUNTER?PCA_0
   *DEL*:           000003H   BYTE   UNIT     CODE           ?PR?PCA0_RUN?PCA_0
   *DEL*:           000003H   BYTE   UNIT     CODE           ?PR?PCA0_HALT?PCA_0
   *DEL*:           000008H   BYTE   UNIT     CODE           ?PR?_PCA0_INIT?PCA_0
   *DEL*:           00006FH   BYTE   UNIT     CODE           ?PR?_PCA0_INITCHANNEL?PCA_0
   *DEL*:           00001DH   BYTE   UNIT     CODE           ?PR?PCA0_RESET?PCA_0
   *DEL*:           000001H   BYTE   UNIT     DATA           ?DT?PCA0_RESET?PCA_0
   *DEL*:           000033H   BYTE   UNIT     CODE           ?PR?_PCA0_RESETCHANNEL?PCA_0
   *DEL*:           000013H   BYTE   UNIT     CODE           ?PR?ADC_INITIALIZE_ADC?ADC
   *DEL*:           00003FH   BYTE   UNIT     CODE           ?PR?ADC_TASK?ADC
   *DEL*:           000003H   BYTE   UNIT     CONST          ?CO?ADC
   *DEL*:           00002BH   BYTE   UNIT     CODE           ?PR?SL_MTR_INIT?MOTOR
   *DEL*:           000037H   BYTE   UNIT     CODE           ?PR?SL_MTR_MOTOR?MOTOR
   *DEL*:           000027H   BYTE   UNIT     CODE           ?PR?SL_MTR_START_MOTOR?MOTOR
   *DEL*:           000041H   BYTE   UNIT     CODE           ?PR?SL_MTR_STOP_MOTOR?MOTOR
   *DEL*:           000000H.1 BIT    UNIT     BIT            ?BI?SL_MTR_STOP_MOTOR?MOTOR
   *DEL*:           000062H   BYTE   UNIT     CODE           ?PR?MTR_CHECK_MOTOR_SPINNING?MOTOR
   *DEL*:           000001H   BYTE   UNIT     DATA           ?DT?MTR_CHECK_MOTOR_SPINNING?MOTOR
   *DEL*:           000000H.2 BIT    UNIT     BIT            ?BI?MTR_CHECK_MOTOR_SPINNING?MOTOR
   *DEL*:           000048H   BYTE   UNIT     CODE           ?PR?MTR_PRE_COMMUTATION?MOTOR
   *DEL*:           000045H   BYTE   UNIT     CODE           ?PR?MTR_COMMUTATE?MOTOR
   *DEL*:           000191H   BYTE   UNIT     CODE           ?PR?MTR_START_SPINNING?MOTOR
   *DEL*:           000004H   BYTE   UNIT     DATA           ?DT?MTR_START_SPINNING?MOTOR
LX51 LINKER/LOCATER V4.66.30.0                                                        01/16/2020  15:26:40  PAGE 4


   *DEL*:           000000H.1 BIT    UNIT     BIT            ?BI?MTR_START_SPINNING?MOTOR
   *DEL*:           000188H   BYTE   UNIT     CODE           ?PR?MTR_DO_QUICKSTART?MOTOR
   *DEL*:           000004H   BYTE   UNIT     DATA           ?DT?MTR_DO_QUICKSTART?MOTOR
   *DEL*:           000000H.2 BIT    UNIT     BIT            ?BI?MTR_DO_QUICKSTART?MOTOR
   *DEL*:           000047H   BYTE   UNIT     CODE           ?PR?MTR_CALCULATE_MOTOR_RPM?MOTOR
   *DEL*:           000000H.1 BIT    UNIT     BIT            ?BI?MTR_CALCULATE_MOTOR_RPM?MOTOR
   *DEL*:           000038H   BYTE   UNIT     CODE           ?PR?MTR_SAVE_ZERO_CROSSING_TIME?MOTOR
   *DEL*:           00000AH   BYTE   UNIT     CODE           ?PR?MTR_CALCULATE_PID?MOTOR
   *DEL*:           00000FH   BYTE   UNIT     CODE           ?PR?SL_MTR_TIME?MOTOR
   *DEL*:           000000H.1 BIT    UNIT     BIT            ?BI?SL_MTR_TIME?MOTOR
   *DEL*:           000014H   BYTE   UNIT     CODE           ?PR?_SL_MTR_CHANGE_NUM_POLES?MOTOR
   *DEL*:           000153H   BYTE   UNIT     CODE           ?PR?MTR_PROCESS_ADC?MOTOR
   *DEL*:           00014DH   BYTE   UNIT     CODE           ?PR?MTR_PROCESS_ERRORS?MOTOR
   *DEL*:           000004H   BYTE   UNIT     DATA           ?DT?MTR_PROCESS_ERRORS?MOTOR
   *DEL*:           00002AH   BYTE   UNIT     CONST          ?CO?MOTOR
   *DEL*:           000008H   BYTE   UNIT     XDATA          ?XD?MTR_START_SPINNING?MOTOR
   *DEL*:           000004H   BYTE   UNIT     XDATA          ?XD?MTR_CALCULATE_MOTOR_RPM?MOTOR
   *DEL*:           000002H   BYTE   UNIT     XDATA          ?XD?MTR_PROCESS_ADC?MOTOR
   *DEL*:           000011H   BYTE   UNIT     CODE           ?PR?_SL_MTR_CHANGE_PID_GAIN?MTRPID
   *DEL*:           000014H   BYTE   UNIT     CODE           ?PR?MTR_PID_INIT?MTRPID
   *DEL*:           00000EH   BYTE   UNIT     CODE           ?PR?MTR_PID_COMPUTE_NEWPWM?MTRPID
   *DEL*:           0001E3H   BYTE   UNIT     CODE           ?PR?MTR_PID_COMPUTE_THREAD?MTRPID
   *DEL*:           000001H   BYTE   UNIT     DATA           ?DT?MTR_PID_COMPUTE_THREAD?MTRPID
   *DEL*:           000004H   BYTE   UNIT     CODE           ?PR?PCA_SET_INITIAL_POLARITY?PCA
   *DEL*:           000007H   BYTE   UNIT     CODE           ?PR?PCA_ENABLE_PWM?PCA
   *DEL*:           000007H   BYTE   UNIT     CODE           ?PR?PCA_DISABLE_PWM?PCA
   *DEL*:           000092H   BYTE   UNIT     CODE           ?PR?_PCA_CHANGE_DUTY_CYCLE?PCA
   *DEL*:           000002H   BYTE   UNIT     DATA           ?DT?_PCA_CHANGE_DUTY_CYCLE?PCA
   *DEL*:           000000H.1 BIT    UNIT     BIT            ?BI?_PCA_CHANGE_DUTY_CYCLE?PCA
   *DEL*:           000027H   BYTE   UNIT     CODE           ?PR?_TMR_DELAY_TIMER3?TIMERS



OVERLAY MAP OF MODULE:   EFM8BB1_BLDC_PORT.OMF.CRBUILD (ASSERT)


FUNCTION/MODULE                                BIT_GROUP   DATA_GROUP 
--> CALLED FUNCTION/MODULE                    START  STOP  START  STOP
======================================================================
ADC0EOC_ISR/INTERRUPTS                        ----- -----  0023H 0026H
  +--> ?CO?INTERRUPTS
  +--> PRINTF/PRINTF

?CO?INTERRUPTS                                ----- -----  ----- -----

PRINTF/PRINTF                                 21H.3 22H.3  0027H 003AH
  +--> PUTCHAR/PUTCHAR

PUTCHAR/PUTCHAR                               ----- -----  ----- -----

*** NEW ROOT ********************************

PCA0_ISR/INTERRUPTS                           ----- -----  003BH 003CH

*** NEW ROOT ********************************

CMP1_ISR/INTERRUPTS                           ----- -----  ----- -----

*** NEW ROOT ********************************

TIMER3_ISR/INTERRUPTS                         ----- -----  ----- -----

LX51 LINKER/LOCATER V4.66.30.0                                                        01/16/2020  15:26:40  PAGE 5


*** NEW ROOT ********************************

?C_C51STARTUP                                 ----- -----  ----- -----
  +--> SILABS_STARTUP/EFM8BB1_BLDC_PORT
  +--> MAIN/EFM8BB1_BLDC_PORT
  +--> ?C_INITSEG

SILABS_STARTUP/EFM8BB1_BLDC_PORT              ----- -----  ----- -----

MAIN/EFM8BB1_BLDC_PORT                        22H.4 22H.4  003DH 003DH
  +--> ENTER_DEFAULTMODE_FROM_RESET/INITDEVICE
  +--> _PCA0_WRITECHANNEL/PCA_0

ENTER_DEFAULTMODE_FROM_RESET/INITDEVICE       ----- -----  ----- -----
  +--> WDT_0_ENTER_DEFAULTMODE_FROM_RESET/INITDEVICE
  +--> PORTS_0_ENTER_DEFAULTMODE_FROM_RESET/INITDEVICE
  +--> PORTS_1_ENTER_DEFAULTMODE_FROM_RESET/INITDEVICE
  +--> PBCFG_0_ENTER_DEFAULTMODE_FROM_RESET/INITDEVICE
  +--> ADC_0_ENTER_DEFAULTMODE_FROM_RESET/INITDEVICE
  +--> CMP_1_ENTER_DEFAULTMODE_FROM_RESET/INITDEVICE
  +--> CLOCK_0_ENTER_DEFAULTMODE_FROM_RESET/INITDEVICE
  +--> TIMER01_0_ENTER_DEFAULTMODE_FROM_RESET/INITDEVICE
  +--> TIMER16_2_ENTER_DEFAULTMODE_FROM_RESET/INITDEVICE
  +--> TIMER16_3_ENTER_DEFAULTMODE_FROM_RESET/INITDEVICE
  +--> TIMER_SETUP_0_ENTER_DEFAULTMODE_FROM_RESET/INITDEVICE
  +--> PCA_0_ENTER_DEFAULTMODE_FROM_RESET/INITDEVICE
  +--> PCACH_0_ENTER_DEFAULTMODE_FROM_RESET/INITDEVICE
  +--> UART_0_ENTER_DEFAULTMODE_FROM_RESET/INITDEVICE
  +--> INTERRUPT_0_ENTER_DEFAULTMODE_FROM_RESET/INITDEVICE

WDT_0_ENTER_DEFAULTMODE_FROM_RESET/INITD+     22H.5 22H.5  003EH 0041H
... EVICE

PORTS_0_ENTER_DEFAULTMODE_FROM_RESET/INI+     ----- -----  ----- -----
... TDEVICE

PORTS_1_ENTER_DEFAULTMODE_FROM_RESET/INI+     ----- -----  ----- -----
... TDEVICE

PBCFG_0_ENTER_DEFAULTMODE_FROM_RESET/INI+     ----- -----  ----- -----
... TDEVICE

ADC_0_ENTER_DEFAULTMODE_FROM_RESET/INITD+     ----- -----  ----- -----
... EVICE

CMP_1_ENTER_DEFAULTMODE_FROM_RESET/INITD+     ----- -----  ----- -----
... EVICE

CLOCK_0_ENTER_DEFAULTMODE_FROM_RESET/INI+     ----- -----  ----- -----
... TDEVICE

TIMER01_0_ENTER_DEFAULTMODE_FROM_RESET/I+     ----- -----  ----- -----
... NITDEVICE

TIMER16_2_ENTER_DEFAULTMODE_FROM_RESET/I+     ----- -----  ----- -----
... NITDEVICE

TIMER16_3_ENTER_DEFAULTMODE_FROM_RESET/I+     ----- -----  ----- -----
... NITDEVICE

TIMER_SETUP_0_ENTER_DEFAULTMODE_FROM_RES+     ----- -----  ----- -----
... ET/INITDEVICE
LX51 LINKER/LOCATER V4.66.30.0                                                        01/16/2020  15:26:40  PAGE 6



PCA_0_ENTER_DEFAULTMODE_FROM_RESET/INITD+     ----- -----  ----- -----
... EVICE

PCACH_0_ENTER_DEFAULTMODE_FROM_RESET/INI+     ----- -----  ----- -----
... TDEVICE

UART_0_ENTER_DEFAULTMODE_FROM_RESET/INIT+     ----- -----  ----- -----
... DEVICE

INTERRUPT_0_ENTER_DEFAULTMODE_FROM_RESET+     ----- -----  ----- -----
... /INITDEVICE

_PCA0_WRITECHANNEL/PCA_0                      ----- -----  ----- -----

?C_INITSEG                                    ----- -----  ----- -----



PUBLIC SYMBOLS OF MODULE:  EFM8BB1_BLDC_PORT.OMF.CRBUILD (ASSERT)


      VALUE       CLASS    TYPE      PUBLIC SYMBOL NAME
      =================================================
*DEL*:00000000H.0 BIT      BIT       ?_PCA0_enableInt?BIT
      00000027H   DATA     ---       ?_PRINTF517?BYTE
      00000027H   DATA     ---       ?_PRINTF?BYTE
      00000027H   DATA     ---       ?_SPRINTF517?BYTE
      00000027H   DATA     ---       ?_SPRINTF?BYTE
      0100067EH   CODE     ---       ?C?CCASE
      0100062FH   CODE     ---       ?C?CLDOPTR
      01000616H   CODE     ---       ?C?CLDPTR
      00000000H   NUMBER   ---       ?C?CODESEG
      0100065CH   CODE     ---       ?C?CSTPTR
      010005E9H   CODE     ---       ?C?LIMUL
      01000427H   CODE     ---       ?C?LMUL
      01000544H   CODE     ---       ?C?LNEG
      010005ACH   CODE     ---       ?C?LSTKXDATA
      010005A0H   CODE     ---       ?C?LSTXDATA
      010005DDH   CODE     ---       ?C?OFFXADD
      0100066EH   CODE     ---       ?C?PLDIIDATA
      01000552H   CODE     ---       ?C?SLCMP
      0100058CH   CODE     ---       ?C?SLSHR
      010003D2H   CODE     ---       ?C?UIDIV
      01000568H   CODE     ---       ?C?ULCMP
      010004B2H   CODE     ---       ?C?ULDIV
      01000579H   CODE     ---       ?C?ULSHR
      00000000H   NUMBER   ---       ?C?XDATASEG
      010007B3H   CODE     ---       ?C_START
      01000000H   CODE     NEAR LAB  ?C_STARTUP
*DEL*:00000000H   CODE     ---       _PCA0_clearIntFlag
*DEL*:00000000H   CODE     ---       _PCA0_enableInt
*DEL*:00000000H   CODE     ---       _PCA0_init
*DEL*:00000000H   CODE     ---       _PCA0_initChannel
*DEL*:00000000H   CODE     ---       _PCA0_readChannel
*DEL*:00000000H   CODE     ---       _PCA0_resetChannel
      01000923H   CODE     ---       _PCA0_writeChannel
*DEL*:00000000H   CODE     ---       _PCA0_writeCounter
*DEL*:00000000H   CODE     ---       _PCA_change_duty_cycle
      010000D8H   CODE     ---       _PRINTF
      010000D8H   CODE     ---       _PRINTF517
      010008FCH   CODE     ---       _PUTCHAR
LX51 LINKER/LOCATER V4.66.30.0                                                        01/16/2020  15:26:40  PAGE 7


*DEL*:00000000H   CODE     ---       _SL_MTR_change_num_poles
*DEL*:00000000H   CODE     ---       _SL_MTR_change_pid_gain
      010000D2H   CODE     ---       _SPRINTF
      010000D2H   CODE     ---       _SPRINTF517
*DEL*:00000000H   CODE     ---       _TMR_delay_timer3
*SFR* 000000E0H   DATA     BYTE      ACC
*SFR* 000000E0H   DATA     BIT       ACC_ACC0
*SFR* 000000E0H.1 DATA     BIT       ACC_ACC1
*SFR* 000000E0H.2 DATA     BIT       ACC_ACC2
*SFR* 000000E0H.3 DATA     BIT       ACC_ACC3
*SFR* 000000E0H.4 DATA     BIT       ACC_ACC4
*SFR* 000000E0H.5 DATA     BIT       ACC_ACC5
*SFR* 000000E0H.6 DATA     BIT       ACC_ACC6
*SFR* 000000E0H.7 DATA     BIT       ACC_ACC7
*DEL*:00000024H   CONST    ---       active_gpio
*SFR* 000000BDH   DATA     WORD      ADC0
*SFR* 000000B3H   DATA     BYTE      ADC0AC
*SFR* 000000BCH   DATA     BYTE      ADC0CF
*SFR* 000000E8H   DATA     BYTE      ADC0CN0
*SFR* 000000E8H.6 DATA     BIT       ADC0CN0_ADBMEN
*SFR* 000000E8H.4 DATA     BIT       ADC0CN0_ADBUSY
*SFR* 000000E8H   DATA     BIT       ADC0CN0_ADCM0
*SFR* 000000E8H.1 DATA     BIT       ADC0CN0_ADCM1
*SFR* 000000E8H.2 DATA     BIT       ADC0CN0_ADCM2
*SFR* 000000E8H.7 DATA     BIT       ADC0CN0_ADEN
*SFR* 000000E8H.5 DATA     BIT       ADC0CN0_ADINT
*SFR* 000000E8H.3 DATA     BIT       ADC0CN0_ADWINT
*SFR* 000000B2H   DATA     BYTE      ADC0CN1
      010006A4H   CODE     ---       ADC0EOC_ISR
*SFR* 000000C3H   DATA     WORD      ADC0GT
*SFR* 000000C4H   DATA     BYTE      ADC0GTH
*SFR* 000000C3H   DATA     BYTE      ADC0GTL
*SFR* 000000BEH   DATA     BYTE      ADC0H
*SFR* 000000BDH   DATA     BYTE      ADC0L
*SFR* 000000C5H   DATA     WORD      ADC0LT
*SFR* 000000C6H   DATA     BYTE      ADC0LTH
*SFR* 000000C5H   DATA     BYTE      ADC0LTL
*SFR* 000000BBH   DATA     BYTE      ADC0MX
*SFR* 000000DFH   DATA     BYTE      ADC0PWR
*SFR* 000000B9H   DATA     BYTE      ADC0TK
      0100005EH   CODE     ---       ADC_0_enter_DefaultMode_from_RESET
      0000001EH   DATA     BYTE      adc_flags
*DEL*:00000000H   CODE     ---       ADC_initialize_adc
*DEL*:00000000H   CONST    ---       adc_mux
      02000031H   XDATA    ---       adc_result
*DEL*:00000000H   CODE     ---       ADC_task
*SFR* 000000F0H   DATA     BYTE      B
*SFR* 000000F0H   DATA     BIT       B_B0
*SFR* 000000F0H.1 DATA     BIT       B_B1
*SFR* 000000F0H.2 DATA     BIT       B_B2
*SFR* 000000F0H.3 DATA     BIT       B_B3
*SFR* 000000F0H.4 DATA     BIT       B_B4
*SFR* 000000F0H.5 DATA     BIT       B_B5
*SFR* 000000F0H.6 DATA     BIT       B_B6
*SFR* 000000F0H.7 DATA     BIT       B_B7
*SFR* 00000080H.2 DATA     BIT       BSP_BTN0
*SFR* 00000090H.4 DATA     BIT       BSP_LED0
*SFR* 0000008EH   DATA     BYTE      CKCON0
*SFR* 000000A9H   DATA     BYTE      CLKSEL
      01000056H   CODE     ---       CLOCK_0_enter_DefaultMode_from_RESET
*SFR* 0000009BH   DATA     BYTE      CMP0CN0
*SFR* 0000009DH   DATA     BYTE      CMP0MD
LX51 LINKER/LOCATER V4.66.30.0                                                        01/16/2020  15:26:40  PAGE 8


*SFR* 0000009FH   DATA     BYTE      CMP0MX
      01000072H   CODE     ---       CMP1_ISR
*SFR* 000000BFH   DATA     BYTE      CMP1CN0
*SFR* 000000ABH   DATA     BYTE      CMP1MD
*SFR* 000000AAH   DATA     BYTE      CMP1MX
      010009C8H   CODE     ---       CMP_1_enter_DefaultMode_from_RESET
      00000051H   DATA     BYTE      commutation_index
*DEL*:00000006H   CONST    ---       compMux
*SFR* 000000D2H   DATA     BYTE      CRC0AUTO
*SFR* 000000CEH   DATA     BYTE      CRC0CN0
*SFR* 000000D3H   DATA     BYTE      CRC0CNT
*SFR* 000000DEH   DATA     BYTE      CRC0DAT
*SFR* 000000CFH   DATA     BYTE      CRC0FLIP
*SFR* 000000DDH   DATA     BYTE      CRC0IN
*SFR* 000000ADH   DATA     BYTE      DERIVID
*SFR* 000000B5H   DATA     BYTE      DEVICEID
*SFR* 00000082H   DATA     WORD      DP
*SFR* 00000083H   DATA     BYTE      DPH
*SFR* 00000082H   DATA     BYTE      DPL
*SFR* 000000E6H   DATA     BYTE      EIE1
*SFR* 000000F3H   DATA     BYTE      EIP1
      010008CFH   CODE     ---       enter_DefaultMode_from_RESET
      02000012H   XDATA    WORD      error_event_time
*SFR* 000000B7H   DATA     BYTE      FLKEY
*DEL*:0000001EH   CONST    ---       freeterminal
      00000020H.2 BIT      BIT       handle_motor_error
*SFR* 000000C7H   DATA     BYTE      HFO0CAL
*SFR* 000000A8H   DATA     BYTE      IE
*SFR* 000000A8H.7 DATA     BIT       IE_EA
*SFR* 000000A8H.4 DATA     BIT       IE_ES0
*SFR* 000000A8H.6 DATA     BIT       IE_ESPI0
*SFR* 000000A8H.1 DATA     BIT       IE_ET0
*SFR* 000000A8H.3 DATA     BIT       IE_ET1
*SFR* 000000A8H.5 DATA     BIT       IE_ET2
*SFR* 000000A8H   DATA     BIT       IE_EX0
*SFR* 000000A8H.2 DATA     BIT       IE_EX1
      010009EAH   CODE     ---       INTERRUPT_0_enter_DefaultMode_from_RESET
*SFR* 000000B8H   DATA     BYTE      IP
*SFR* 000000B8H.4 DATA     BIT       IP_PS0
*SFR* 000000B8H.6 DATA     BIT       IP_PSPI0
*SFR* 000000B8H.1 DATA     BIT       IP_PT0
*SFR* 000000B8H.3 DATA     BIT       IP_PT1
*SFR* 000000B8H.5 DATA     BIT       IP_PT2
*SFR* 000000B8H   DATA     BIT       IP_PX0
*SFR* 000000B8H.2 DATA     BIT       IP_PX1
*SFR* 000000E4H   DATA     BYTE      IT01CF
      00000020H.3 BIT      BIT       last_motor_stalled
*SFR* 000000B1H   DATA     BYTE      LFO0CN
      01000003H   CODE     ---       main
*DEL*:00000000H   CODE     ---       MTR_calculate_motor_rpm
*DEL*:00000000H   CODE     ---       MTR_calculate_pid
*DEL*:00000000H   CODE     ---       MTR_check_motor_spinning
*DEL*:00000009H   CODE     ---       MTR_commutate
*DEL*:00000000H   CODE     ---       MTR_do_quickstart
*DEL*:00000000H   CODE     ---       MTR_pid_compute_newpwm
*DEL*:00000000H   CODE     ---       MTR_pid_init
*DEL*:00000000H   CODE     ---       MTR_pre_commutation
*DEL*:00000000H   CODE     ---       MTR_save_zero_crossing_time
*DEL*:00000000H   CODE     ---       MTR_start_spinning
      02000015H   XDATA    BYTE      num_poles
      00000050H   DATA     BYTE      open_phase
*SFR* 00000080H   DATA     BYTE      P0
LX51 LINKER/LOCATER V4.66.30.0                                                        01/16/2020  15:26:40  PAGE 9


*SFR* 00000080H   DATA     BIT       P0_B0
*SFR* 00000080H.1 DATA     BIT       P0_B1
*SFR* 00000080H.2 DATA     BIT       P0_B2
*SFR* 00000080H.3 DATA     BIT       P0_B3
*SFR* 00000080H.4 DATA     BIT       P0_B4
*SFR* 00000080H.5 DATA     BIT       P0_B5
*SFR* 00000080H.6 DATA     BIT       P0_B6
*SFR* 00000080H.7 DATA     BIT       P0_B7
*SFR* 000000FEH   DATA     BYTE      P0MASK
*SFR* 000000FDH   DATA     BYTE      P0MAT
*SFR* 000000F1H   DATA     BYTE      P0MDIN
*SFR* 000000A4H   DATA     BYTE      P0MDOUT
*SFR* 000000D4H   DATA     BYTE      P0SKIP
*SFR* 00000090H   DATA     BYTE      P1
*SFR* 00000090H   DATA     BIT       P1_B0
*SFR* 00000090H.1 DATA     BIT       P1_B1
*SFR* 00000090H.2 DATA     BIT       P1_B2
*SFR* 00000090H.3 DATA     BIT       P1_B3
*SFR* 00000090H.4 DATA     BIT       P1_B4
*SFR* 00000090H.5 DATA     BIT       P1_B5
*SFR* 00000090H.6 DATA     BIT       P1_B6
*SFR* 00000090H.7 DATA     BIT       P1_B7
*SFR* 000000EEH   DATA     BYTE      P1MASK
*SFR* 000000EDH   DATA     BYTE      P1MAT
*SFR* 000000F2H   DATA     BYTE      P1MDIN
*SFR* 000000A5H   DATA     BYTE      P1MDOUT
*SFR* 000000D5H   DATA     BYTE      P1SKIP
*SFR* 000000A0H   DATA     BYTE      P2
*SFR* 000000A0H   DATA     BIT       P2_B0
*SFR* 000000A0H.1 DATA     BIT       P2_B1
*SFR* 000000A6H   DATA     BYTE      P2MDOUT
      010009E3H   CODE     ---       PBCFG_0_enter_DefaultMode_from_RESET
*SFR* 000000F9H   DATA     WORD      PCA0
*DEL*:00000000H   CODE     ---       PCA0_getIntFlags
*DEL*:00000000H   CODE     ---       PCA0_halt
      010007F8H   CODE     ---       PCA0_ISR
*DEL*:00000000H   CODE     ---       PCA0_readCounter
*DEL*:00000000H   CODE     ---       PCA0_reset
*DEL*:00000000H   CODE     ---       PCA0_run
*SFR* 0000009EH   DATA     BYTE      PCA0CENT
*SFR* 0000009CH   DATA     BYTE      PCA0CLR
*SFR* 000000D8H   DATA     BYTE      PCA0CN0
*SFR* 000000D8H   DATA     BIT       PCA0CN0_CCF0
*SFR* 000000D8H.1 DATA     BIT       PCA0CN0_CCF1
*SFR* 000000D8H.2 DATA     BIT       PCA0CN0_CCF2
*SFR* 000000D8H.7 DATA     BIT       PCA0CN0_CF
*SFR* 000000D8H.6 DATA     BIT       PCA0CN0_CR
*SFR* 000000FBH   DATA     WORD      PCA0CP0
*SFR* 000000E9H   DATA     WORD      PCA0CP1
*SFR* 000000EBH   DATA     WORD      PCA0CP2
*SFR* 000000FCH   DATA     BYTE      PCA0CPH0
*SFR* 000000EAH   DATA     BYTE      PCA0CPH1
*SFR* 000000ECH   DATA     BYTE      PCA0CPH2
*SFR* 000000FBH   DATA     BYTE      PCA0CPL0
*SFR* 000000E9H   DATA     BYTE      PCA0CPL1
*SFR* 000000EBH   DATA     BYTE      PCA0CPL2
*SFR* 000000DAH   DATA     BYTE      PCA0CPM0
*SFR* 000000DBH   DATA     BYTE      PCA0CPM1
*SFR* 000000DCH   DATA     BYTE      PCA0CPM2
*SFR* 000000FAH   DATA     BYTE      PCA0H
*SFR* 000000F9H   DATA     BYTE      PCA0L
*SFR* 000000D9H   DATA     BYTE      PCA0MD
LX51 LINKER/LOCATER V4.66.30.0                                                        01/16/2020  15:26:40  PAGE 10


*SFR* 00000096H   DATA     BYTE      PCA0POL
*SFR* 000000F7H   DATA     BYTE      PCA0PWM
      01000999H   CODE     ---       PCA_0_enter_DefaultMode_from_RESET
*DEL*:00000000H   CODE     ---       PCA_disable_pwm
*DEL*:00000000H   CODE     ---       PCA_enable_pwm
*DEL*:00000000H   CODE     ---       PCA_set_initial_polarity
      010009BEH   CODE     ---       PCACH_0_enter_DefaultMode_from_RESET
*SFR* 00000087H   DATA     BYTE      PCON0
      02000002H   XDATA    BYTE      pid_calc_interval
      00000022H.6 BIT      BIT       pid_done
      00000020H.4 BIT      BIT       pid_flag
      010009B4H   CODE     ---       PORTS_0_enter_DefaultMode_from_RESET
      010009DCH   CODE     ---       PORTS_1_enter_DefaultMode_from_RESET
*SFR* 000000A0H   DATA     BYTE      PPAGE_SFR
      02000003H   XDATA    BYTE      pre_p0skip
      02000004H   XDATA    BYTE      pre_p1skip
      0200000FH   XDATA    BYTE      pre_port1
      00000046H   DATA     ---       prev_zc_time
*SFR* 000000F6H   DATA     BYTE      PRTDRV
*SFR* 0000008FH   DATA     BYTE      PSCTL
*SFR* 000000D0H   DATA     BYTE      PSW
*SFR* 000000D0H.6 DATA     BIT       PSW_AC
*SFR* 000000D0H.7 DATA     BIT       PSW_CY
*SFR* 000000D0H.5 DATA     BIT       PSW_F0
*SFR* 000000D0H.1 DATA     BIT       PSW_F1
*SFR* 000000D0H.2 DATA     BIT       PSW_OV
*SFR* 000000D0H   DATA     BIT       PSW_PARITY
*SFR* 000000D0H.3 DATA     BIT       PSW_RS0
*SFR* 000000D0H.4 DATA     BIT       PSW_RS1
*SFR* 000000D1H   DATA     BYTE      REF0CN
*SFR* 000000C9H   DATA     BYTE      REG0CN
      00000065H   DATA     BYTE      repeated_timer0
*SFR* 000000B6H   DATA     BYTE      REVID
*SFR* 000000EFH   DATA     BYTE      RSTSRC
*SFR* 00000099H   DATA     BYTE      SBUF0
*SFR* 00000098H   DATA     BYTE      SCON0
*SFR* 00000098H.5 DATA     BIT       SCON0_MCE
*SFR* 00000098H.2 DATA     BIT       SCON0_RB8
*SFR* 00000098H.4 DATA     BIT       SCON0_REN
*SFR* 00000098H   DATA     BIT       SCON0_RI
*SFR* 00000098H.7 DATA     BIT       SCON0_SMODE
*SFR* 00000098H.3 DATA     BIT       SCON0_TB8
*SFR* 00000098H.1 DATA     BIT       SCON0_TI
      0100005AH   CODE     ---       SiLabs_Startup
*DEL*:00000012H   CONST    ---       skipPattern
*DEL*:00000000H   CODE     ---       SL_MTR_init
*DEL*:00000000H   CODE     ---       SL_MTR_motor
*DEL*:00000000H   CODE     ---       SL_MTR_start_motor
*DEL*:00000000H   CODE     ---       SL_MTR_stop_motor
*DEL*:00000000H   CODE     ---       SL_MTR_time
*DEL*:00000000H   CODE     ---       slab_Assert
      0000005DH   DATA     ---       SLR_minimum_duty
      00000044H   DATA     WORD      SLR_minimum_rpm
      02000022H   XDATA    WORD      SLR_motor_current
      0200000DH   XDATA    WORD      SLR_motor_current_rpm
      00000020H.6 BIT      BIT       SLR_motor_stalled
      00000069H   IDATA    BYTE      SLR_motor_state
      02000016H   XDATA    WORD      SLR_motor_voltage
      00000056H   DATA     WORD      SLR_pwm_duty
      02000018H   XDATA    BYTE      SLW_current_limit
      0200001DH   XDATA    WORD      SLW_motor_max_rpm
      02000014H   XDATA    BYTE      SLW_oc_debounce
LX51 LINKER/LOCATER V4.66.30.0                                                        01/16/2020  15:26:40  PAGE 11


      00000021H.2 BIT      BIT       SLW_pwm_updated
      00000021H.1 BIT      BIT       SLW_rpm_updated
      02000010H   XDATA    WORD      SLW_target_pwm_duty
      0000004AH   DATA     WORD      SLW_target_rpm
      00000020H.5 BIT      BIT       SLW_user_direction
*SFR* 000000D6H   DATA     BYTE      SMB0ADM
*SFR* 000000D7H   DATA     BYTE      SMB0ADR
*SFR* 000000C1H   DATA     BYTE      SMB0CF
*SFR* 000000C0H   DATA     BYTE      SMB0CN0
*SFR* 000000C0H.1 DATA     BIT       SMB0CN0_ACK
*SFR* 000000C0H.3 DATA     BIT       SMB0CN0_ACKRQ
*SFR* 000000C0H.2 DATA     BIT       SMB0CN0_ARBLOST
*SFR* 000000C0H.7 DATA     BIT       SMB0CN0_MASTER
*SFR* 000000C0H   DATA     BIT       SMB0CN0_SI
*SFR* 000000C0H.5 DATA     BIT       SMB0CN0_STA
*SFR* 000000C0H.4 DATA     BIT       SMB0CN0_STO
*SFR* 000000C0H.6 DATA     BIT       SMB0CN0_TXMODE
*SFR* 000000C2H   DATA     BYTE      SMB0DAT
*SFR* 000000ACH   DATA     BYTE      SMB0TC
*SFR* 00000081H   DATA     BYTE      SP
      00000021H.0 BIT      BIT       speed_updated
*SFR* 000000A1H   DATA     BYTE      SPI0CFG
*SFR* 000000A2H   DATA     BYTE      SPI0CKR
*SFR* 000000F8H   DATA     BYTE      SPI0CN0
*SFR* 000000F8H.5 DATA     BIT       SPI0CN0_MODF
*SFR* 000000F8H.2 DATA     BIT       SPI0CN0_NSSMD0
*SFR* 000000F8H.3 DATA     BIT       SPI0CN0_NSSMD1
*SFR* 000000F8H.4 DATA     BIT       SPI0CN0_RXOVRN
*SFR* 000000F8H   DATA     BIT       SPI0CN0_SPIEN
*SFR* 000000F8H.7 DATA     BIT       SPI0CN0_SPIF
*SFR* 000000F8H.1 DATA     BIT       SPI0CN0_TXBMT
*SFR* 000000F8H.6 DATA     BIT       SPI0CN0_WCOL
*SFR* 000000A3H   DATA     BYTE      SPI0DAT
*DEL*:00000000H   CONST    ---       start_delay
*SFR* 00000088H   DATA     BYTE      TCON
*SFR* 00000088H.1 DATA     BIT       TCON_IE0
*SFR* 00000088H.3 DATA     BIT       TCON_IE1
*SFR* 00000088H   DATA     BIT       TCON_IT0
*SFR* 00000088H.2 DATA     BIT       TCON_IT1
*SFR* 00000088H.5 DATA     BIT       TCON_TF0
*SFR* 00000088H.7 DATA     BIT       TCON_TF1
*SFR* 00000088H.4 DATA     BIT       TCON_TR0
*SFR* 00000088H.6 DATA     BIT       TCON_TR1
*SFR* 0000008CH   DATA     BYTE      TH0
*SFR* 0000008DH   DATA     BYTE      TH1
      00000052H   DATA     ---       time_per_rotate
      01000973H   CODE     ---       TIMER01_0_enter_DefaultMode_from_RESET
      00000067H   DATA     ---       timer0_next
      00000066H   DATA     BYTE      timer0_state
      01000986H   CODE     ---       TIMER16_2_enter_DefaultMode_from_RESET
      010009A7H   CODE     ---       TIMER16_3_enter_DefaultMode_from_RESET
      010009F1H   CODE     ---       TIMER3_ISR
      010009D2H   CODE     ---       TIMER_SETUP_0_enter_DefaultMode_from_RESET
*SFR* 0000008AH   DATA     BYTE      TL0
*SFR* 0000008BH   DATA     BYTE      TL1
*SFR* 00000089H   DATA     BYTE      TMOD
*SFR* 000000CCH   DATA     WORD      TMR2
*SFR* 000000C8H   DATA     BYTE      TMR2CN0
*SFR* 000000C8H.3 DATA     BIT       TMR2CN0_T2SPLIT
*SFR* 000000C8H   DATA     BIT       TMR2CN0_T2XCLK
*SFR* 000000C8H.4 DATA     BIT       TMR2CN0_TF2CEN
*SFR* 000000C8H.7 DATA     BIT       TMR2CN0_TF2H
LX51 LINKER/LOCATER V4.66.30.0                                                        01/16/2020  15:26:40  PAGE 12


*SFR* 000000C8H.6 DATA     BIT       TMR2CN0_TF2L
*SFR* 000000C8H.5 DATA     BIT       TMR2CN0_TF2LEN
*SFR* 000000C8H.2 DATA     BIT       TMR2CN0_TR2
*SFR* 000000CDH   DATA     BYTE      TMR2H
*SFR* 000000CCH   DATA     BYTE      TMR2L
*SFR* 000000CAH   DATA     WORD      TMR2RL
*SFR* 000000CBH   DATA     BYTE      TMR2RLH
*SFR* 000000CAH   DATA     BYTE      TMR2RLL
*SFR* 00000094H   DATA     WORD      TMR3
*SFR* 00000091H   DATA     BYTE      TMR3CN0
*SFR* 00000095H   DATA     BYTE      TMR3H
*SFR* 00000094H   DATA     BYTE      TMR3L
*SFR* 00000092H   DATA     WORD      TMR3RL
*SFR* 00000093H   DATA     BYTE      TMR3RLH
*SFR* 00000092H   DATA     BYTE      TMR3RLL
      0100006EH   CODE     ---       UART_0_enter_DefaultMode_from_RESET
      0000001CH   DATA     WORD      user_timer
*SFR* 000000FFH   DATA     BYTE      VDM0CN
      01000886H   CODE     ---       WDT_0_enter_DefaultMode_from_RESET
*SFR* 00000097H   DATA     BYTE      WDTCN
*SFR* 000000E1H   DATA     BYTE      XBR0
*SFR* 000000E2H   DATA     BYTE      XBR1
*SFR* 000000E3H   DATA     BYTE      XBR2
      0000004CH   DATA     ---       zc_commutate_time
      00000058H   DATA     BYTE      zc_count
      00000059H   DATA     ---       zc_time
      02000026H   XDATA    BYTE      zc_total_count
      02000019H   XDATA    DWORD     zc_total_per_mech_rotation



SYMBOL TABLE OF MODULE:  EFM8BB1_BLDC_PORT.OMF.CRBUILD (ASSERT)

      VALUE       REP       CLASS    TYPE      SYMBOL NAME
      ====================================================
      ---         MODULE    ---      ---       ASSERT

      ---         MODULE    ---      ---       PCA_0
      01000923H   PUBLIC    CODE     ---       _PCA0_writeChannel
      000000A2H   SFRSYM    DATA     BYTE      SPI0CKR
      00000080H   SFRSYM    DATA     BYTE      P0
      000000D0H.2 SFRSYM    DATA     BIT       PSW_OV
      00000090H   SFRSYM    DATA     BYTE      P1
      00000097H   SFRSYM    DATA     BYTE      WDTCN
      000000A0H   SFRSYM    DATA     BYTE      P2
      000000BCH   SFRSYM    DATA     BYTE      ADC0CF
      000000C8H   SFRSYM    DATA     BIT       TMR2CN0_T2XCLK
      000000C0H.7 SFRSYM    DATA     BIT       SMB0CN0_MASTER
      000000F9H   SFRSYM    DATA     WORD      PCA0
      000000E6H   SFRSYM    DATA     BYTE      EIE1
      000000C0H.1 SFRSYM    DATA     BIT       SMB0CN0_ACK
      0000008FH   SFRSYM    DATA     BYTE      PSCTL
      000000E4H   SFRSYM    DATA     BYTE      IT01CF
      000000C0H.6 SFRSYM    DATA     BIT       SMB0CN0_TXMODE
      000000ADH   SFRSYM    DATA     BYTE      DERIVID
      000000A4H   SFRSYM    DATA     BYTE      P0MDOUT
      000000A5H   SFRSYM    DATA     BYTE      P1MDOUT
      000000E8H.5 SFRSYM    DATA     BIT       ADC0CN0_ADINT
      000000CBH   SFRSYM    DATA     BYTE      TMR2RLH
      000000A6H   SFRSYM    DATA     BYTE      P2MDOUT
      000000A8H   SFRSYM    DATA     BYTE      IE
      00000093H   SFRSYM    DATA     BYTE      TMR3RLH
LX51 LINKER/LOCATER V4.66.30.0                                                        01/16/2020  15:26:40  PAGE 13


      000000F3H   SFRSYM    DATA     BYTE      EIP1
      00000098H.2 SFRSYM    DATA     BIT       SCON0_RB8
      000000CAH   SFRSYM    DATA     BYTE      TMR2RLL
      000000FCH   SFRSYM    DATA     BYTE      PCA0CPH0
      00000092H   SFRSYM    DATA     BYTE      TMR3RLL
      000000EAH   SFRSYM    DATA     BYTE      PCA0CPH1
      00000098H.3 SFRSYM    DATA     BIT       SCON0_TB8
      000000F0H   SFRSYM    DATA     BIT       B_B0
      00000082H   SFRSYM    DATA     WORD      DP
      000000ECH   SFRSYM    DATA     BYTE      PCA0CPH2
      000000F0H.1 SFRSYM    DATA     BIT       B_B1
      000000C3H   SFRSYM    DATA     WORD      ADC0GT
      000000F0H.2 SFRSYM    DATA     BIT       B_B2
      000000FBH   SFRSYM    DATA     BYTE      PCA0CPL0
      000000F0H.3 SFRSYM    DATA     BIT       B_B3
      000000D9H   SFRSYM    DATA     BYTE      PCA0MD
      000000DAH   SFRSYM    DATA     BYTE      PCA0CPM0
      000000E9H   SFRSYM    DATA     BYTE      PCA0CPL1
      000000F0H.4 SFRSYM    DATA     BIT       B_B4
      000000DBH   SFRSYM    DATA     BYTE      PCA0CPM1
      000000EBH   SFRSYM    DATA     BYTE      PCA0CPL2
      000000F0H.5 SFRSYM    DATA     BIT       B_B5
      000000DCH   SFRSYM    DATA     BYTE      PCA0CPM2
      000000B8H   SFRSYM    DATA     BYTE      IP
      000000B9H   SFRSYM    DATA     BYTE      ADC0TK
      000000F0H.6 SFRSYM    DATA     BIT       B_B6
      000000C5H   SFRSYM    DATA     WORD      ADC0LT
      00000098H.5 SFRSYM    DATA     BIT       SCON0_MCE
      000000F0H.7 SFRSYM    DATA     BIT       B_B7
      000000E1H   SFRSYM    DATA     BYTE      XBR0
      000000C1H   SFRSYM    DATA     BYTE      SMB0CF
      000000E2H   SFRSYM    DATA     BYTE      XBR1
      000000C0H.5 SFRSYM    DATA     BIT       SMB0CN0_STA
      000000E3H   SFRSYM    DATA     BYTE      XBR2
      000000BBH   SFRSYM    DATA     BYTE      ADC0MX
      000000E0H   SFRSYM    DATA     BIT       ACC_ACC0
      000000D1H   SFRSYM    DATA     BYTE      REF0CN
      0000008EH   SFRSYM    DATA     BYTE      CKCON0
      000000E0H.1 SFRSYM    DATA     BIT       ACC_ACC1
      000000C9H   SFRSYM    DATA     BYTE      REG0CN
      000000DDH   SFRSYM    DATA     BYTE      CRC0IN
      000000C8H.2 SFRSYM    DATA     BIT       TMR2CN0_TR2
      000000E0H.2 SFRSYM    DATA     BIT       ACC_ACC2
      000000E0H.3 SFRSYM    DATA     BIT       ACC_ACC3
      00000081H   SFRSYM    DATA     BYTE      SP
      0000009DH   SFRSYM    DATA     BYTE      CMP0MD
      000000E0H.4 SFRSYM    DATA     BIT       ACC_ACC4
      000000B1H   SFRSYM    DATA     BYTE      LFO0CN
      000000ABH   SFRSYM    DATA     BYTE      CMP1MD
      000000D8H   SFRSYM    DATA     BIT       PCA0CN0_CCF0
      000000E0H.5 SFRSYM    DATA     BIT       ACC_ACC5
      000000D8H.1 SFRSYM    DATA     BIT       PCA0CN0_CCF1
      000000E0H.6 SFRSYM    DATA     BIT       ACC_ACC6
      000000CCH   SFRSYM    DATA     WORD      TMR2
      000000D8H.2 SFRSYM    DATA     BIT       PCA0CN0_CCF2
      000000E0H.7 SFRSYM    DATA     BIT       ACC_ACC7
      00000094H   SFRSYM    DATA     WORD      TMR3
      000000C0H.3 SFRSYM    DATA     BIT       SMB0CN0_ACKRQ
      000000FFH   SFRSYM    DATA     BYTE      VDM0CN
      000000F1H   SFRSYM    DATA     BYTE      P0MDIN
      00000098H.4 SFRSYM    DATA     BIT       SCON0_REN
      000000ACH   SFRSYM    DATA     BYTE      SMB0TC
LX51 LINKER/LOCATER V4.66.30.0                                                        01/16/2020  15:26:40  PAGE 14


      000000F2H   SFRSYM    DATA     BYTE      P1MDIN
      000000C0H.4 SFRSYM    DATA     BIT       SMB0CN0_STO
      000000FEH   SFRSYM    DATA     BYTE      P0MASK
      000000EEH   SFRSYM    DATA     BYTE      P1MASK
      000000D0H.3 SFRSYM    DATA     BIT       PSW_RS0
      000000D8H.7 SFRSYM    DATA     BIT       PCA0CN0_CF
      0000009EH   SFRSYM    DATA     BYTE      PCA0CENT
      000000F8H.4 SFRSYM    DATA     BIT       SPI0CN0_RXOVRN
      000000D0H.4 SFRSYM    DATA     BIT       PSW_RS1
      000000E8H.7 SFRSYM    DATA     BIT       ADC0CN0_ADEN
      00000089H   SFRSYM    DATA     BYTE      TMOD
      00000088H   SFRSYM    DATA     BYTE      TCON
      000000CFH   SFRSYM    DATA     BYTE      CRC0FLIP
      000000D0H   SFRSYM    DATA     BIT       PSW_PARITY
      000000A8H.4 SFRSYM    DATA     BIT       IE_ES0
      0000009FH   SFRSYM    DATA     BYTE      CMP0MX
      000000A8H.1 SFRSYM    DATA     BIT       IE_ET0
      000000AAH   SFRSYM    DATA     BYTE      CMP1MX
      000000A8H.3 SFRSYM    DATA     BIT       IE_ET1
      000000D4H   SFRSYM    DATA     BYTE      P0SKIP
      000000A8H.5 SFRSYM    DATA     BIT       IE_ET2
      000000D5H   SFRSYM    DATA     BYTE      P1SKIP
      000000E8H   SFRSYM    DATA     BYTE      ADC0CN0
      000000A8H   SFRSYM    DATA     BIT       IE_EX0
      000000B2H   SFRSYM    DATA     BYTE      ADC0CN1
      000000D8H.6 SFRSYM    DATA     BIT       PCA0CN0_CR
      000000A8H.2 SFRSYM    DATA     BIT       IE_EX1
      00000098H.7 SFRSYM    DATA     BIT       SCON0_SMODE
      000000B5H   SFRSYM    DATA     BYTE      DEVICEID
      000000A9H   SFRSYM    DATA     BYTE      CLKSEL
      000000F8H   SFRSYM    DATA     BIT       SPI0CN0_SPIEN
      000000F0H   SFRSYM    DATA     BYTE      B
      000000BEH   SFRSYM    DATA     BYTE      ADC0H
      000000D2H   SFRSYM    DATA     BYTE      CRC0AUTO
      000000E8H.6 SFRSYM    DATA     BIT       ADC0CN0_ADBMEN
      000000CAH   SFRSYM    DATA     WORD      TMR2RL
      000000BDH   SFRSYM    DATA     BYTE      ADC0L
      00000092H   SFRSYM    DATA     WORD      TMR3RL
      000000D8H   SFRSYM    DATA     BYTE      PCA0CN0
      000000E0H   SFRSYM    DATA     BYTE      ACC
      000000FBH   SFRSYM    DATA     WORD      PCA0CP0
      000000E9H   SFRSYM    DATA     WORD      PCA0CP1
      000000EBH   SFRSYM    DATA     WORD      PCA0CP2
      000000CEH   SFRSYM    DATA     BYTE      CRC0CN0
      0000008CH   SFRSYM    DATA     BYTE      TH0
      000000B8H.4 SFRSYM    DATA     BIT       IP_PS0
      0000008DH   SFRSYM    DATA     BYTE      TH1
      000000FAH   SFRSYM    DATA     BYTE      PCA0H
      000000B8H.1 SFRSYM    DATA     BIT       IP_PT0
      000000B8H.3 SFRSYM    DATA     BIT       IP_PT1
      000000C0H.2 SFRSYM    DATA     BIT       SMB0CN0_ARBLOST
      000000B8H.5 SFRSYM    DATA     BIT       IP_PT2
      0000008AH   SFRSYM    DATA     BYTE      TL0
      000000F8H.1 SFRSYM    DATA     BIT       SPI0CN0_TXBMT
      000000D0H.5 SFRSYM    DATA     BIT       PSW_F0
      000000A8H.6 SFRSYM    DATA     BIT       IE_ESPI0
      0000008BH   SFRSYM    DATA     BYTE      TL1
      000000F9H   SFRSYM    DATA     BYTE      PCA0L
      000000C0H   SFRSYM    DATA     BIT       SMB0CN0_SI
      000000D0H.1 SFRSYM    DATA     BIT       PSW_F1
      00000080H   SFRSYM    DATA     BIT       P0_B0
      000000B8H   SFRSYM    DATA     BIT       IP_PX0
LX51 LINKER/LOCATER V4.66.30.0                                                        01/16/2020  15:26:40  PAGE 15


      00000090H   SFRSYM    DATA     BIT       P1_B0
      00000080H.1 SFRSYM    DATA     BIT       P0_B1
      000000B8H.2 SFRSYM    DATA     BIT       IP_PX1
      0000009BH   SFRSYM    DATA     BYTE      CMP0CN0
      00000088H.1 SFRSYM    DATA     BIT       TCON_IE0
      000000A0H   SFRSYM    DATA     BIT       P2_B0
      00000090H.1 SFRSYM    DATA     BIT       P1_B1
      00000080H.2 SFRSYM    DATA     BIT       P0_B2
      000000BFH   SFRSYM    DATA     BYTE      CMP1CN0
      00000088H.3 SFRSYM    DATA     BIT       TCON_IE1
      000000A0H.1 SFRSYM    DATA     BIT       P2_B1
      00000090H.2 SFRSYM    DATA     BIT       P1_B2
      00000080H.3 SFRSYM    DATA     BIT       P0_B3
      000000C0H   SFRSYM    DATA     BYTE      SMB0CN0
      00000090H.3 SFRSYM    DATA     BIT       P1_B3
      00000080H.4 SFRSYM    DATA     BIT       P0_B4
      00000090H.4 SFRSYM    DATA     BIT       P1_B4
      00000080H.5 SFRSYM    DATA     BIT       P0_B5
      00000090H.5 SFRSYM    DATA     BIT       P1_B5
      00000080H.6 SFRSYM    DATA     BIT       P0_B6
      00000090H.6 SFRSYM    DATA     BIT       P1_B6
      00000080H.7 SFRSYM    DATA     BIT       P0_B7
      00000090H.7 SFRSYM    DATA     BIT       P1_B7
      00000083H   SFRSYM    DATA     BYTE      DPH
      000000C4H   SFRSYM    DATA     BYTE      ADC0GTH
      000000C8H.7 SFRSYM    DATA     BIT       TMR2CN0_TF2H
      000000C8H.3 SFRSYM    DATA     BIT       TMR2CN0_T2SPLIT
      000000D0H.6 SFRSYM    DATA     BIT       PSW_AC
      000000F8H   SFRSYM    DATA     BYTE      SPI0CN0
      000000C7H   SFRSYM    DATA     BYTE      HFO0CAL
      00000088H.5 SFRSYM    DATA     BIT       TCON_TF0
      00000098H   SFRSYM    DATA     BIT       SCON0_RI
      00000082H   SFRSYM    DATA     BYTE      DPL
      00000088H.7 SFRSYM    DATA     BIT       TCON_TF1
      00000099H   SFRSYM    DATA     BYTE      SBUF0
      00000087H   SFRSYM    DATA     BYTE      PCON0
      000000C3H   SFRSYM    DATA     BYTE      ADC0GTL
      000000C8H.6 SFRSYM    DATA     BIT       TMR2CN0_TF2L
      00000098H.1 SFRSYM    DATA     BIT       SCON0_TI
      000000E8H   SFRSYM    DATA     BIT       ADC0CN0_ADCM0
      000000C6H   SFRSYM    DATA     BYTE      ADC0LTH
      00000088H   SFRSYM    DATA     BIT       TCON_IT0
      000000E8H.1 SFRSYM    DATA     BIT       ADC0CN0_ADCM1
      000000EFH   SFRSYM    DATA     BYTE      RSTSRC
      000000FDH   SFRSYM    DATA     BYTE      P0MAT
      000000DEH   SFRSYM    DATA     BYTE      CRC0DAT
      00000088H.2 SFRSYM    DATA     BIT       TCON_IT1
      000000E8H.2 SFRSYM    DATA     BIT       ADC0CN0_ADCM2
      00000098H   SFRSYM    DATA     BYTE      SCON0
      000000F6H   SFRSYM    DATA     BYTE      PRTDRV
      000000EDH   SFRSYM    DATA     BYTE      P1MAT
      000000E8H.3 SFRSYM    DATA     BIT       ADC0CN0_ADWINT
      000000E8H.4 SFRSYM    DATA     BIT       ADC0CN0_ADBUSY
      000000D6H   SFRSYM    DATA     BYTE      SMB0ADM
      000000C5H   SFRSYM    DATA     BYTE      ADC0LTL
      000000F8H.5 SFRSYM    DATA     BIT       SPI0CN0_MODF
      000000B8H.6 SFRSYM    DATA     BIT       IP_PSPI0
      0000009CH   SFRSYM    DATA     BYTE      PCA0CLR
      000000C8H   SFRSYM    DATA     BYTE      TMR2CN0
      00000091H   SFRSYM    DATA     BYTE      TMR3CN0
      000000D7H   SFRSYM    DATA     BYTE      SMB0ADR
      00000088H.4 SFRSYM    DATA     BIT       TCON_TR0
LX51 LINKER/LOCATER V4.66.30.0                                                        01/16/2020  15:26:40  PAGE 16


      000000C8H.4 SFRSYM    DATA     BIT       TMR2CN0_TF2CEN
      00000088H.6 SFRSYM    DATA     BIT       TCON_TR1
      000000C2H   SFRSYM    DATA     BYTE      SMB0DAT
      000000CDH   SFRSYM    DATA     BYTE      TMR2H
      000000A1H   SFRSYM    DATA     BYTE      SPI0CFG
      00000095H   SFRSYM    DATA     BYTE      TMR3H
      000000D3H   SFRSYM    DATA     BYTE      CRC0CNT
      00000096H   SFRSYM    DATA     BYTE      PCA0POL
      000000CCH   SFRSYM    DATA     BYTE      TMR2L
      000000F8H.7 SFRSYM    DATA     BIT       SPI0CN0_SPIF
      00000094H   SFRSYM    DATA     BYTE      TMR3L
      000000DFH   SFRSYM    DATA     BYTE      ADC0PWR
      000000A8H.7 SFRSYM    DATA     BIT       IE_EA
      000000C8H.5 SFRSYM    DATA     BIT       TMR2CN0_TF2LEN
      000000F8H.6 SFRSYM    DATA     BIT       SPI0CN0_WCOL
      000000F8H.2 SFRSYM    DATA     BIT       SPI0CN0_NSSMD0
      000000D0H.7 SFRSYM    DATA     BIT       PSW_CY
      000000A3H   SFRSYM    DATA     BYTE      SPI0DAT
      000000F8H.3 SFRSYM    DATA     BIT       SPI0CN0_NSSMD1
      000000BDH   SFRSYM    DATA     WORD      ADC0
      000000D0H   SFRSYM    DATA     BYTE      PSW
      000000F7H   SFRSYM    DATA     BYTE      PCA0PWM
      000000B6H   SFRSYM    DATA     BYTE      REVID
      000000B7H   SFRSYM    DATA     BYTE      FLKEY
      000000B3H   SFRSYM    DATA     BYTE      ADC0AC
      00000007H   SYMBOL    DATA     BYTE      val
      00000007H   SYMBOL    DATA     BYTE      flag
      00000007H   SYMBOL    DATA     BYTE      flag
      00000006H   SYMBOL    DATA     BYTE      en
      00000007H   SYMBOL    DATA     BYTE      channel

      01000923H   BLOCK     CODE     ---       LVL=0
      00000003H   SYMBOL    DATA     BYTE      channel
      00000004H   SYMBOL    DATA     WORD      value
      01000925H   BLOCK     CODE     NEAR LAB  LVL=1
      00000007H   SYMBOL    DATA     BYTE      lower
      ---         BLOCKEND  ---      ---       LVL=1
      01000923H   LINE      CODE     ---       #67
      01000925H   LINE      CODE     ---       #68
      01000925H   LINE      CODE     ---       #69
      01000927H   LINE      CODE     ---       #70
      01000932H   LINE      CODE     ---       #71
      01000932H   LINE      CODE     ---       #72
      01000932H   LINE      CODE     ---       #73
      01000934H   LINE      CODE     ---       #74
      01000936H   LINE      CODE     ---       #75
      01000937H   LINE      CODE     ---       #76
      01000937H   LINE      CODE     ---       #77
      01000939H   LINE      CODE     ---       #78
      0100093BH   LINE      CODE     ---       #79
      0100093CH   LINE      CODE     ---       #80
      0100093CH   LINE      CODE     ---       #81
      0100093EH   LINE      CODE     ---       #82
      01000940H   LINE      CODE     ---       #83
      01000940H   LINE      CODE     ---       #84
      01000940H   LINE      CODE     ---       #85
      ---         BLOCKEND  ---      ---       LVL=0
      00000006H   SYMBOL    DATA     WORD      value
      00000007H   SYMBOL    DATA     BYTE      timebase
      00000005H   SYMBOL    DATA     BYTE      idleState
      00000007H   SYMBOL    DATA     BYTE      channel
      00000005H   SYMBOL    DATA     BYTE      mode
LX51 LINKER/LOCATER V4.66.30.0                                                        01/16/2020  15:26:40  PAGE 17


      00000003H   SYMBOL    DATA     BYTE      pol
      00000006H   SYMBOL    DATA     BYTE      pwmValue
      00000007H   SYMBOL    DATA     BYTE      channel

      ---         MODULE    ---      ---       EFM8BB1_BLDC_PORT
      01000003H   PUBLIC    CODE     ---       main
      0100005AH   PUBLIC    CODE     ---       SiLabs_Startup
      000000A2H   SFRSYM    DATA     BYTE      SPI0CKR
      00000080H   SFRSYM    DATA     BYTE      P0
      000000D0H.2 SFRSYM    DATA     BIT       PSW_OV
      00000090H   SFRSYM    DATA     BYTE      P1
      00000097H   SFRSYM    DATA     BYTE      WDTCN
      000000A0H   SFRSYM    DATA     BYTE      P2
      000000BCH   SFRSYM    DATA     BYTE      ADC0CF
      000000C8H   SFRSYM    DATA     BIT       TMR2CN0_T2XCLK
      000000C0H.7 SFRSYM    DATA     BIT       SMB0CN0_MASTER
      000000F9H   SFRSYM    DATA     WORD      PCA0
      000000E6H   SFRSYM    DATA     BYTE      EIE1
      000000C0H.1 SFRSYM    DATA     BIT       SMB0CN0_ACK
      0000008FH   SFRSYM    DATA     BYTE      PSCTL
      000000E4H   SFRSYM    DATA     BYTE      IT01CF
      000000C0H.6 SFRSYM    DATA     BIT       SMB0CN0_TXMODE
      000000ADH   SFRSYM    DATA     BYTE      DERIVID
      000000A4H   SFRSYM    DATA     BYTE      P0MDOUT
      000000A5H   SFRSYM    DATA     BYTE      P1MDOUT
      000000E8H.5 SFRSYM    DATA     BIT       ADC0CN0_ADINT
      000000CBH   SFRSYM    DATA     BYTE      TMR2RLH
      000000A6H   SFRSYM    DATA     BYTE      P2MDOUT
      000000A8H   SFRSYM    DATA     BYTE      IE
      00000093H   SFRSYM    DATA     BYTE      TMR3RLH
      000000F3H   SFRSYM    DATA     BYTE      EIP1
      00000098H.2 SFRSYM    DATA     BIT       SCON0_RB8
      000000CAH   SFRSYM    DATA     BYTE      TMR2RLL
      000000FCH   SFRSYM    DATA     BYTE      PCA0CPH0
      00000092H   SFRSYM    DATA     BYTE      TMR3RLL
      000000EAH   SFRSYM    DATA     BYTE      PCA0CPH1
      00000098H.3 SFRSYM    DATA     BIT       SCON0_TB8
      000000F0H   SFRSYM    DATA     BIT       B_B0
      00000082H   SFRSYM    DATA     WORD      DP
      000000ECH   SFRSYM    DATA     BYTE      PCA0CPH2
      000000F0H.1 SFRSYM    DATA     BIT       B_B1
      000000C3H   SFRSYM    DATA     WORD      ADC0GT
      000000F0H.2 SFRSYM    DATA     BIT       B_B2
      000000FBH   SFRSYM    DATA     BYTE      PCA0CPL0
      000000F0H.3 SFRSYM    DATA     BIT       B_B3
      000000D9H   SFRSYM    DATA     BYTE      PCA0MD
      000000DAH   SFRSYM    DATA     BYTE      PCA0CPM0
      000000E9H   SFRSYM    DATA     BYTE      PCA0CPL1
      000000F0H.4 SFRSYM    DATA     BIT       B_B4
      000000DBH   SFRSYM    DATA     BYTE      PCA0CPM1
      000000EBH   SFRSYM    DATA     BYTE      PCA0CPL2
      000000F0H.5 SFRSYM    DATA     BIT       B_B5
      000000DCH   SFRSYM    DATA     BYTE      PCA0CPM2
      000000B8H   SFRSYM    DATA     BYTE      IP
      000000B9H   SFRSYM    DATA     BYTE      ADC0TK
      000000F0H.6 SFRSYM    DATA     BIT       B_B6
      000000C5H   SFRSYM    DATA     WORD      ADC0LT
      00000098H.5 SFRSYM    DATA     BIT       SCON0_MCE
      000000F0H.7 SFRSYM    DATA     BIT       B_B7
      000000E1H   SFRSYM    DATA     BYTE      XBR0
      000000C1H   SFRSYM    DATA     BYTE      SMB0CF
      000000E2H   SFRSYM    DATA     BYTE      XBR1
LX51 LINKER/LOCATER V4.66.30.0                                                        01/16/2020  15:26:40  PAGE 18


      000000C0H.5 SFRSYM    DATA     BIT       SMB0CN0_STA
      000000E3H   SFRSYM    DATA     BYTE      XBR2
      000000BBH   SFRSYM    DATA     BYTE      ADC0MX
      000000E0H   SFRSYM    DATA     BIT       ACC_ACC0
      000000D1H   SFRSYM    DATA     BYTE      REF0CN
      0000008EH   SFRSYM    DATA     BYTE      CKCON0
      000000E0H.1 SFRSYM    DATA     BIT       ACC_ACC1
      000000C9H   SFRSYM    DATA     BYTE      REG0CN
      000000DDH   SFRSYM    DATA     BYTE      CRC0IN
      000000C8H.2 SFRSYM    DATA     BIT       TMR2CN0_TR2
      000000E0H.2 SFRSYM    DATA     BIT       ACC_ACC2
      000000E0H.3 SFRSYM    DATA     BIT       ACC_ACC3
      00000081H   SFRSYM    DATA     BYTE      SP
      0000009DH   SFRSYM    DATA     BYTE      CMP0MD
      000000E0H.4 SFRSYM    DATA     BIT       ACC_ACC4
      000000B1H   SFRSYM    DATA     BYTE      LFO0CN
      000000ABH   SFRSYM    DATA     BYTE      CMP1MD
      000000D8H   SFRSYM    DATA     BIT       PCA0CN0_CCF0
      000000E0H.5 SFRSYM    DATA     BIT       ACC_ACC5
      000000D8H.1 SFRSYM    DATA     BIT       PCA0CN0_CCF1
      000000E0H.6 SFRSYM    DATA     BIT       ACC_ACC6
      000000CCH   SFRSYM    DATA     WORD      TMR2
      000000D8H.2 SFRSYM    DATA     BIT       PCA0CN0_CCF2
      000000E0H.7 SFRSYM    DATA     BIT       ACC_ACC7
      00000094H   SFRSYM    DATA     WORD      TMR3
      000000C0H.3 SFRSYM    DATA     BIT       SMB0CN0_ACKRQ
      000000FFH   SFRSYM    DATA     BYTE      VDM0CN
      000000F1H   SFRSYM    DATA     BYTE      P0MDIN
      00000098H.4 SFRSYM    DATA     BIT       SCON0_REN
      000000ACH   SFRSYM    DATA     BYTE      SMB0TC
      000000F2H   SFRSYM    DATA     BYTE      P1MDIN
      000000C0H.4 SFRSYM    DATA     BIT       SMB0CN0_STO
      000000FEH   SFRSYM    DATA     BYTE      P0MASK
      000000EEH   SFRSYM    DATA     BYTE      P1MASK
      000000D0H.3 SFRSYM    DATA     BIT       PSW_RS0
      000000D8H.7 SFRSYM    DATA     BIT       PCA0CN0_CF
      0000009EH   SFRSYM    DATA     BYTE      PCA0CENT
      000000F8H.4 SFRSYM    DATA     BIT       SPI0CN0_RXOVRN
      000000D0H.4 SFRSYM    DATA     BIT       PSW_RS1
      000000E8H.7 SFRSYM    DATA     BIT       ADC0CN0_ADEN
      00000089H   SFRSYM    DATA     BYTE      TMOD
      00000088H   SFRSYM    DATA     BYTE      TCON
      000000CFH   SFRSYM    DATA     BYTE      CRC0FLIP
      000000D0H   SFRSYM    DATA     BIT       PSW_PARITY
      000000A8H.4 SFRSYM    DATA     BIT       IE_ES0
      0000009FH   SFRSYM    DATA     BYTE      CMP0MX
      000000A8H.1 SFRSYM    DATA     BIT       IE_ET0
      000000AAH   SFRSYM    DATA     BYTE      CMP1MX
      000000A8H.3 SFRSYM    DATA     BIT       IE_ET1
      000000D4H   SFRSYM    DATA     BYTE      P0SKIP
      000000A8H.5 SFRSYM    DATA     BIT       IE_ET2
      000000D5H   SFRSYM    DATA     BYTE      P1SKIP
      000000E8H   SFRSYM    DATA     BYTE      ADC0CN0
      000000A8H   SFRSYM    DATA     BIT       IE_EX0
      000000B2H   SFRSYM    DATA     BYTE      ADC0CN1
      000000D8H.6 SFRSYM    DATA     BIT       PCA0CN0_CR
      000000A8H.2 SFRSYM    DATA     BIT       IE_EX1
      00000098H.7 SFRSYM    DATA     BIT       SCON0_SMODE
      000000B5H   SFRSYM    DATA     BYTE      DEVICEID
      000000A9H   SFRSYM    DATA     BYTE      CLKSEL
      000000F8H   SFRSYM    DATA     BIT       SPI0CN0_SPIEN
      000000F0H   SFRSYM    DATA     BYTE      B
LX51 LINKER/LOCATER V4.66.30.0                                                        01/16/2020  15:26:40  PAGE 19


      000000BEH   SFRSYM    DATA     BYTE      ADC0H
      000000D2H   SFRSYM    DATA     BYTE      CRC0AUTO
      000000E8H.6 SFRSYM    DATA     BIT       ADC0CN0_ADBMEN
      000000CAH   SFRSYM    DATA     WORD      TMR2RL
      000000BDH   SFRSYM    DATA     BYTE      ADC0L
      00000092H   SFRSYM    DATA     WORD      TMR3RL
      000000D8H   SFRSYM    DATA     BYTE      PCA0CN0
      000000E0H   SFRSYM    DATA     BYTE      ACC
      000000FBH   SFRSYM    DATA     WORD      PCA0CP0
      000000E9H   SFRSYM    DATA     WORD      PCA0CP1
      000000EBH   SFRSYM    DATA     WORD      PCA0CP2
      000000CEH   SFRSYM    DATA     BYTE      CRC0CN0
      00000090H.4 SFRSYM    DATA     BIT       BSP_LED0
      0000008CH   SFRSYM    DATA     BYTE      TH0
      000000B8H.4 SFRSYM    DATA     BIT       IP_PS0
      0000008DH   SFRSYM    DATA     BYTE      TH1
      000000FAH   SFRSYM    DATA     BYTE      PCA0H
      000000B8H.1 SFRSYM    DATA     BIT       IP_PT0
      000000B8H.3 SFRSYM    DATA     BIT       IP_PT1
      000000C0H.2 SFRSYM    DATA     BIT       SMB0CN0_ARBLOST
      000000B8H.5 SFRSYM    DATA     BIT       IP_PT2
      0000008AH   SFRSYM    DATA     BYTE      TL0
      000000F8H.1 SFRSYM    DATA     BIT       SPI0CN0_TXBMT
      000000D0H.5 SFRSYM    DATA     BIT       PSW_F0
      000000A8H.6 SFRSYM    DATA     BIT       IE_ESPI0
      0000008BH   SFRSYM    DATA     BYTE      TL1
      000000F9H   SFRSYM    DATA     BYTE      PCA0L
      000000C0H   SFRSYM    DATA     BIT       SMB0CN0_SI
      000000D0H.1 SFRSYM    DATA     BIT       PSW_F1
      00000080H   SFRSYM    DATA     BIT       P0_B0
      000000B8H   SFRSYM    DATA     BIT       IP_PX0
      00000090H   SFRSYM    DATA     BIT       P1_B0
      00000080H.1 SFRSYM    DATA     BIT       P0_B1
      000000B8H.2 SFRSYM    DATA     BIT       IP_PX1
      0000009BH   SFRSYM    DATA     BYTE      CMP0CN0
      00000088H.1 SFRSYM    DATA     BIT       TCON_IE0
      000000A0H   SFRSYM    DATA     BIT       P2_B0
      00000090H.1 SFRSYM    DATA     BIT       P1_B1
      00000080H.2 SFRSYM    DATA     BIT       P0_B2
      000000BFH   SFRSYM    DATA     BYTE      CMP1CN0
      00000088H.3 SFRSYM    DATA     BIT       TCON_IE1
      000000A0H.1 SFRSYM    DATA     BIT       P2_B1
      00000090H.2 SFRSYM    DATA     BIT       P1_B2
      00000080H.3 SFRSYM    DATA     BIT       P0_B3
      000000C0H   SFRSYM    DATA     BYTE      SMB0CN0
      00000090H.3 SFRSYM    DATA     BIT       P1_B3
      00000080H.4 SFRSYM    DATA     BIT       P0_B4
      00000090H.4 SFRSYM    DATA     BIT       P1_B4
      00000080H.5 SFRSYM    DATA     BIT       P0_B5
      00000090H.5 SFRSYM    DATA     BIT       P1_B5
      00000080H.6 SFRSYM    DATA     BIT       P0_B6
      00000090H.6 SFRSYM    DATA     BIT       P1_B6
      00000080H.7 SFRSYM    DATA     BIT       P0_B7
      00000090H.7 SFRSYM    DATA     BIT       P1_B7
      00000080H.2 SFRSYM    DATA     BIT       BSP_BTN0
      00000083H   SFRSYM    DATA     BYTE      DPH
      000000C4H   SFRSYM    DATA     BYTE      ADC0GTH
      000000C8H.7 SFRSYM    DATA     BIT       TMR2CN0_TF2H
      000000C8H.3 SFRSYM    DATA     BIT       TMR2CN0_T2SPLIT
      000000D0H.6 SFRSYM    DATA     BIT       PSW_AC
      000000F8H   SFRSYM    DATA     BYTE      SPI0CN0
      000000C7H   SFRSYM    DATA     BYTE      HFO0CAL
LX51 LINKER/LOCATER V4.66.30.0                                                        01/16/2020  15:26:40  PAGE 20


      00000088H.5 SFRSYM    DATA     BIT       TCON_TF0
      00000098H   SFRSYM    DATA     BIT       SCON0_RI
      00000082H   SFRSYM    DATA     BYTE      DPL
      00000088H.7 SFRSYM    DATA     BIT       TCON_TF1
      00000099H   SFRSYM    DATA     BYTE      SBUF0
      00000087H   SFRSYM    DATA     BYTE      PCON0
      000000C3H   SFRSYM    DATA     BYTE      ADC0GTL
      000000C8H.6 SFRSYM    DATA     BIT       TMR2CN0_TF2L
      00000098H.1 SFRSYM    DATA     BIT       SCON0_TI
      000000E8H   SFRSYM    DATA     BIT       ADC0CN0_ADCM0
      000000C6H   SFRSYM    DATA     BYTE      ADC0LTH
      00000088H   SFRSYM    DATA     BIT       TCON_IT0
      000000E8H.1 SFRSYM    DATA     BIT       ADC0CN0_ADCM1
      000000EFH   SFRSYM    DATA     BYTE      RSTSRC
      000000FDH   SFRSYM    DATA     BYTE      P0MAT
      000000DEH   SFRSYM    DATA     BYTE      CRC0DAT
      00000088H.2 SFRSYM    DATA     BIT       TCON_IT1
      000000E8H.2 SFRSYM    DATA     BIT       ADC0CN0_ADCM2
      00000098H   SFRSYM    DATA     BYTE      SCON0
      000000F6H   SFRSYM    DATA     BYTE      PRTDRV
      000000EDH   SFRSYM    DATA     BYTE      P1MAT
      000000E8H.3 SFRSYM    DATA     BIT       ADC0CN0_ADWINT
      000000E8H.4 SFRSYM    DATA     BIT       ADC0CN0_ADBUSY
      000000D6H   SFRSYM    DATA     BYTE      SMB0ADM
      000000C5H   SFRSYM    DATA     BYTE      ADC0LTL
      000000F8H.5 SFRSYM    DATA     BIT       SPI0CN0_MODF
      000000B8H.6 SFRSYM    DATA     BIT       IP_PSPI0
      0000009CH   SFRSYM    DATA     BYTE      PCA0CLR
      000000C8H   SFRSYM    DATA     BYTE      TMR2CN0
      00000091H   SFRSYM    DATA     BYTE      TMR3CN0
      000000D7H   SFRSYM    DATA     BYTE      SMB0ADR
      00000088H.4 SFRSYM    DATA     BIT       TCON_TR0
      000000C8H.4 SFRSYM    DATA     BIT       TMR2CN0_TF2CEN
      00000088H.6 SFRSYM    DATA     BIT       TCON_TR1
      000000C2H   SFRSYM    DATA     BYTE      SMB0DAT
      000000CDH   SFRSYM    DATA     BYTE      TMR2H
      000000A1H   SFRSYM    DATA     BYTE      SPI0CFG
      00000095H   SFRSYM    DATA     BYTE      TMR3H
      000000D3H   SFRSYM    DATA     BYTE      CRC0CNT
      00000096H   SFRSYM    DATA     BYTE      PCA0POL
      000000CCH   SFRSYM    DATA     BYTE      TMR2L
      000000F8H.7 SFRSYM    DATA     BIT       SPI0CN0_SPIF
      00000094H   SFRSYM    DATA     BYTE      TMR3L
      000000DFH   SFRSYM    DATA     BYTE      ADC0PWR
      000000A8H.7 SFRSYM    DATA     BIT       IE_EA
      000000C8H.5 SFRSYM    DATA     BIT       TMR2CN0_TF2LEN
      000000F8H.6 SFRSYM    DATA     BIT       SPI0CN0_WCOL
      000000F8H.2 SFRSYM    DATA     BIT       SPI0CN0_NSSMD0
      000000D0H.7 SFRSYM    DATA     BIT       PSW_CY
      000000A3H   SFRSYM    DATA     BYTE      SPI0DAT
      000000F8H.3 SFRSYM    DATA     BIT       SPI0CN0_NSSMD1
      000000BDH   SFRSYM    DATA     WORD      ADC0
      000000D0H   SFRSYM    DATA     BYTE      PSW
      000000F7H   SFRSYM    DATA     BYTE      PCA0PWM
      000000B6H   SFRSYM    DATA     BYTE      REVID
      000000B7H   SFRSYM    DATA     BYTE      FLKEY
      000000B3H   SFRSYM    DATA     BYTE      ADC0AC

      0100005AH   BLOCK     CODE     ---       LVL=0
      0100005AH   LINE      CODE     ---       #24
      0100005AH   LINE      CODE     ---       #25
      0100005AH   LINE      CODE     ---       #27
LX51 LINKER/LOCATER V4.66.30.0                                                        01/16/2020  15:26:40  PAGE 21


      ---         BLOCKEND  ---      ---       LVL=0

      01000003H   BLOCK     CODE     ---       LVL=0
      01000003H   BLOCK     CODE     NEAR LAB  LVL=1
      00000006H   SYMBOL    DATA     WORD      delay_count
      00000022H.4 SYMBOL    BIT      BIT       duty_direction
      0000003DH   SYMBOL    DATA     BYTE      duty_cycle
      ---         BLOCKEND  ---      ---       LVL=1
      01000003H   LINE      CODE     ---       #33
      01000003H   LINE      CODE     ---       #34
      01000003H   LINE      CODE     ---       #36
      01000005H   LINE      CODE     ---       #37
      01000008H   LINE      CODE     ---       #39
      0100000BH   LINE      CODE     ---       #41
      0100000BH   LINE      CODE     ---       #42
      0100000BH   LINE      CODE     ---       #44
      01000018H   LINE      CODE     ---       #46
      0100001BH   LINE      CODE     ---       #47
      0100001BH   LINE      CODE     ---       #49
      01000020H   LINE      CODE     ---       #50
      01000020H   LINE      CODE     ---       #51
      01000023H   LINE      CODE     ---       #52
      01000025H   LINE      CODE     ---       #54
      01000025H   LINE      CODE     ---       #55
      01000027H   LINE      CODE     ---       #57
      01000031H   LINE      CODE     ---       #60
      01000035H   LINE      CODE     ---       #61
      01000035H   LINE      CODE     ---       #62
      01000037H   LINE      CODE     ---       #63
      01000037H   LINE      CODE     ---       #64
      01000037H   LINE      CODE     ---       #65
      01000039H   LINE      CODE     ---       #67
      01000039H   LINE      CODE     ---       #68
      0100003EH   LINE      CODE     ---       #69
      0100003EH   LINE      CODE     ---       #70
      01000041H   LINE      CODE     ---       #71
      01000043H   LINE      CODE     ---       #72
      01000045H   LINE      CODE     ---       #74
      01000045H   LINE      CODE     ---       #75
      01000047H   LINE      CODE     ---       #77
      01000051H   LINE      CODE     ---       #78
      01000051H   LINE      CODE     ---       #79
      01000051H   LINE      CODE     ---       #81
      ---         BLOCKEND  ---      ---       LVL=0

      ---         MODULE    ---      ---       INITDEVICE
      010009A7H   PUBLIC    CODE     ---       TIMER16_3_enter_DefaultMode_from_RESET
      010009EAH   PUBLIC    CODE     ---       INTERRUPT_0_enter_DefaultMode_from_RESET
      0100006EH   PUBLIC    CODE     ---       UART_0_enter_DefaultMode_from_RESET
      010009D2H   PUBLIC    CODE     ---       TIMER_SETUP_0_enter_DefaultMode_from_RESET
      01000986H   PUBLIC    CODE     ---       TIMER16_2_enter_DefaultMode_from_RESET
      01000973H   PUBLIC    CODE     ---       TIMER01_0_enter_DefaultMode_from_RESET
      010009C8H   PUBLIC    CODE     ---       CMP_1_enter_DefaultMode_from_RESET
      0100005EH   PUBLIC    CODE     ---       ADC_0_enter_DefaultMode_from_RESET
      010009BEH   PUBLIC    CODE     ---       PCACH_0_enter_DefaultMode_from_RESET
      01000999H   PUBLIC    CODE     ---       PCA_0_enter_DefaultMode_from_RESET
      01000056H   PUBLIC    CODE     ---       CLOCK_0_enter_DefaultMode_from_RESET
      010009E3H   PUBLIC    CODE     ---       PBCFG_0_enter_DefaultMode_from_RESET
      010009DCH   PUBLIC    CODE     ---       PORTS_1_enter_DefaultMode_from_RESET
      010009B4H   PUBLIC    CODE     ---       PORTS_0_enter_DefaultMode_from_RESET
      01000886H   PUBLIC    CODE     ---       WDT_0_enter_DefaultMode_from_RESET
      010008CFH   PUBLIC    CODE     ---       enter_DefaultMode_from_RESET
LX51 LINKER/LOCATER V4.66.30.0                                                        01/16/2020  15:26:40  PAGE 22


      000000A2H   SFRSYM    DATA     BYTE      SPI0CKR
      00000080H   SFRSYM    DATA     BYTE      P0
      000000D0H.2 SFRSYM    DATA     BIT       PSW_OV
      00000090H   SFRSYM    DATA     BYTE      P1
      00000097H   SFRSYM    DATA     BYTE      WDTCN
      000000A0H   SFRSYM    DATA     BYTE      P2
      000000BCH   SFRSYM    DATA     BYTE      ADC0CF
      000000C8H   SFRSYM    DATA     BIT       TMR2CN0_T2XCLK
      000000C0H.7 SFRSYM    DATA     BIT       SMB0CN0_MASTER
      000000F9H   SFRSYM    DATA     WORD      PCA0
      000000E6H   SFRSYM    DATA     BYTE      EIE1
      000000C0H.1 SFRSYM    DATA     BIT       SMB0CN0_ACK
      0000008FH   SFRSYM    DATA     BYTE      PSCTL
      000000E4H   SFRSYM    DATA     BYTE      IT01CF
      000000C0H.6 SFRSYM    DATA     BIT       SMB0CN0_TXMODE
      000000ADH   SFRSYM    DATA     BYTE      DERIVID
      000000A4H   SFRSYM    DATA     BYTE      P0MDOUT
      000000A5H   SFRSYM    DATA     BYTE      P1MDOUT
      000000E8H.5 SFRSYM    DATA     BIT       ADC0CN0_ADINT
      000000CBH   SFRSYM    DATA     BYTE      TMR2RLH
      000000A6H   SFRSYM    DATA     BYTE      P2MDOUT
      000000A8H   SFRSYM    DATA     BYTE      IE
      00000093H   SFRSYM    DATA     BYTE      TMR3RLH
      000000F3H   SFRSYM    DATA     BYTE      EIP1
      00000098H.2 SFRSYM    DATA     BIT       SCON0_RB8
      000000CAH   SFRSYM    DATA     BYTE      TMR2RLL
      000000FCH   SFRSYM    DATA     BYTE      PCA0CPH0
      00000092H   SFRSYM    DATA     BYTE      TMR3RLL
      000000EAH   SFRSYM    DATA     BYTE      PCA0CPH1
      00000098H.3 SFRSYM    DATA     BIT       SCON0_TB8
      000000F0H   SFRSYM    DATA     BIT       B_B0
      00000082H   SFRSYM    DATA     WORD      DP
      000000ECH   SFRSYM    DATA     BYTE      PCA0CPH2
      000000F0H.1 SFRSYM    DATA     BIT       B_B1
      000000C3H   SFRSYM    DATA     WORD      ADC0GT
      000000F0H.2 SFRSYM    DATA     BIT       B_B2
      000000FBH   SFRSYM    DATA     BYTE      PCA0CPL0
      000000F0H.3 SFRSYM    DATA     BIT       B_B3
      000000D9H   SFRSYM    DATA     BYTE      PCA0MD
      000000DAH   SFRSYM    DATA     BYTE      PCA0CPM0
      000000E9H   SFRSYM    DATA     BYTE      PCA0CPL1
      000000F0H.4 SFRSYM    DATA     BIT       B_B4
      000000DBH   SFRSYM    DATA     BYTE      PCA0CPM1
      000000EBH   SFRSYM    DATA     BYTE      PCA0CPL2
      000000F0H.5 SFRSYM    DATA     BIT       B_B5
      000000DCH   SFRSYM    DATA     BYTE      PCA0CPM2
      000000B8H   SFRSYM    DATA     BYTE      IP
      000000B9H   SFRSYM    DATA     BYTE      ADC0TK
      000000F0H.6 SFRSYM    DATA     BIT       B_B6
      000000C5H   SFRSYM    DATA     WORD      ADC0LT
      00000098H.5 SFRSYM    DATA     BIT       SCON0_MCE
      000000F0H.7 SFRSYM    DATA     BIT       B_B7
      000000E1H   SFRSYM    DATA     BYTE      XBR0
      000000C1H   SFRSYM    DATA     BYTE      SMB0CF
      000000E2H   SFRSYM    DATA     BYTE      XBR1
      000000C0H.5 SFRSYM    DATA     BIT       SMB0CN0_STA
      000000E3H   SFRSYM    DATA     BYTE      XBR2
      000000BBH   SFRSYM    DATA     BYTE      ADC0MX
      000000E0H   SFRSYM    DATA     BIT       ACC_ACC0
      000000D1H   SFRSYM    DATA     BYTE      REF0CN
      0000008EH   SFRSYM    DATA     BYTE      CKCON0
      000000E0H.1 SFRSYM    DATA     BIT       ACC_ACC1
LX51 LINKER/LOCATER V4.66.30.0                                                        01/16/2020  15:26:40  PAGE 23


      000000C9H   SFRSYM    DATA     BYTE      REG0CN
      000000DDH   SFRSYM    DATA     BYTE      CRC0IN
      000000C8H.2 SFRSYM    DATA     BIT       TMR2CN0_TR2
      000000E0H.2 SFRSYM    DATA     BIT       ACC_ACC2
      000000E0H.3 SFRSYM    DATA     BIT       ACC_ACC3
      00000081H   SFRSYM    DATA     BYTE      SP
      0000009DH   SFRSYM    DATA     BYTE      CMP0MD
      000000E0H.4 SFRSYM    DATA     BIT       ACC_ACC4
      000000B1H   SFRSYM    DATA     BYTE      LFO0CN
      000000ABH   SFRSYM    DATA     BYTE      CMP1MD
      000000D8H   SFRSYM    DATA     BIT       PCA0CN0_CCF0
      000000E0H.5 SFRSYM    DATA     BIT       ACC_ACC5
      000000D8H.1 SFRSYM    DATA     BIT       PCA0CN0_CCF1
      000000E0H.6 SFRSYM    DATA     BIT       ACC_ACC6
      000000CCH   SFRSYM    DATA     WORD      TMR2
      000000D8H.2 SFRSYM    DATA     BIT       PCA0CN0_CCF2
      000000E0H.7 SFRSYM    DATA     BIT       ACC_ACC7
      00000094H   SFRSYM    DATA     WORD      TMR3
      000000C0H.3 SFRSYM    DATA     BIT       SMB0CN0_ACKRQ
      000000FFH   SFRSYM    DATA     BYTE      VDM0CN
      000000F1H   SFRSYM    DATA     BYTE      P0MDIN
      00000098H.4 SFRSYM    DATA     BIT       SCON0_REN
      000000ACH   SFRSYM    DATA     BYTE      SMB0TC
      000000F2H   SFRSYM    DATA     BYTE      P1MDIN
      000000C0H.4 SFRSYM    DATA     BIT       SMB0CN0_STO
      000000FEH   SFRSYM    DATA     BYTE      P0MASK
      000000EEH   SFRSYM    DATA     BYTE      P1MASK
      000000D0H.3 SFRSYM    DATA     BIT       PSW_RS0
      000000D8H.7 SFRSYM    DATA     BIT       PCA0CN0_CF
      0000009EH   SFRSYM    DATA     BYTE      PCA0CENT
      000000F8H.4 SFRSYM    DATA     BIT       SPI0CN0_RXOVRN
      000000D0H.4 SFRSYM    DATA     BIT       PSW_RS1
      000000E8H.7 SFRSYM    DATA     BIT       ADC0CN0_ADEN
      00000089H   SFRSYM    DATA     BYTE      TMOD
      00000088H   SFRSYM    DATA     BYTE      TCON
      000000CFH   SFRSYM    DATA     BYTE      CRC0FLIP
      000000D0H   SFRSYM    DATA     BIT       PSW_PARITY
      000000A8H.4 SFRSYM    DATA     BIT       IE_ES0
      0000009FH   SFRSYM    DATA     BYTE      CMP0MX
      000000A8H.1 SFRSYM    DATA     BIT       IE_ET0
      000000AAH   SFRSYM    DATA     BYTE      CMP1MX
      000000A8H.3 SFRSYM    DATA     BIT       IE_ET1
      000000D4H   SFRSYM    DATA     BYTE      P0SKIP
      000000A8H.5 SFRSYM    DATA     BIT       IE_ET2
      000000D5H   SFRSYM    DATA     BYTE      P1SKIP
      000000E8H   SFRSYM    DATA     BYTE      ADC0CN0
      000000A8H   SFRSYM    DATA     BIT       IE_EX0
      000000B2H   SFRSYM    DATA     BYTE      ADC0CN1
      000000D8H.6 SFRSYM    DATA     BIT       PCA0CN0_CR
      000000A8H.2 SFRSYM    DATA     BIT       IE_EX1
      00000098H.7 SFRSYM    DATA     BIT       SCON0_SMODE
      000000B5H   SFRSYM    DATA     BYTE      DEVICEID
      000000A9H   SFRSYM    DATA     BYTE      CLKSEL
      000000F8H   SFRSYM    DATA     BIT       SPI0CN0_SPIEN
      000000F0H   SFRSYM    DATA     BYTE      B
      000000BEH   SFRSYM    DATA     BYTE      ADC0H
      000000D2H   SFRSYM    DATA     BYTE      CRC0AUTO
      000000E8H.6 SFRSYM    DATA     BIT       ADC0CN0_ADBMEN
      000000CAH   SFRSYM    DATA     WORD      TMR2RL
      000000BDH   SFRSYM    DATA     BYTE      ADC0L
      00000092H   SFRSYM    DATA     WORD      TMR3RL
      000000D8H   SFRSYM    DATA     BYTE      PCA0CN0
LX51 LINKER/LOCATER V4.66.30.0                                                        01/16/2020  15:26:40  PAGE 24


      000000E0H   SFRSYM    DATA     BYTE      ACC
      000000FBH   SFRSYM    DATA     WORD      PCA0CP0
      000000E9H   SFRSYM    DATA     WORD      PCA0CP1
      000000EBH   SFRSYM    DATA     WORD      PCA0CP2
      000000CEH   SFRSYM    DATA     BYTE      CRC0CN0
      0000008CH   SFRSYM    DATA     BYTE      TH0
      000000B8H.4 SFRSYM    DATA     BIT       IP_PS0
      0000008DH   SFRSYM    DATA     BYTE      TH1
      000000FAH   SFRSYM    DATA     BYTE      PCA0H
      000000B8H.1 SFRSYM    DATA     BIT       IP_PT0
      000000B8H.3 SFRSYM    DATA     BIT       IP_PT1
      000000C0H.2 SFRSYM    DATA     BIT       SMB0CN0_ARBLOST
      000000B8H.5 SFRSYM    DATA     BIT       IP_PT2
      0000008AH   SFRSYM    DATA     BYTE      TL0
      000000F8H.1 SFRSYM    DATA     BIT       SPI0CN0_TXBMT
      000000D0H.5 SFRSYM    DATA     BIT       PSW_F0
      000000A8H.6 SFRSYM    DATA     BIT       IE_ESPI0
      0000008BH   SFRSYM    DATA     BYTE      TL1
      000000F9H   SFRSYM    DATA     BYTE      PCA0L
      000000C0H   SFRSYM    DATA     BIT       SMB0CN0_SI
      000000D0H.1 SFRSYM    DATA     BIT       PSW_F1
      00000080H   SFRSYM    DATA     BIT       P0_B0
      000000B8H   SFRSYM    DATA     BIT       IP_PX0
      00000090H   SFRSYM    DATA     BIT       P1_B0
      00000080H.1 SFRSYM    DATA     BIT       P0_B1
      000000B8H.2 SFRSYM    DATA     BIT       IP_PX1
      0000009BH   SFRSYM    DATA     BYTE      CMP0CN0
      00000088H.1 SFRSYM    DATA     BIT       TCON_IE0
      000000A0H   SFRSYM    DATA     BIT       P2_B0
      00000090H.1 SFRSYM    DATA     BIT       P1_B1
      00000080H.2 SFRSYM    DATA     BIT       P0_B2
      000000BFH   SFRSYM    DATA     BYTE      CMP1CN0
      00000088H.3 SFRSYM    DATA     BIT       TCON_IE1
      000000A0H.1 SFRSYM    DATA     BIT       P2_B1
      00000090H.2 SFRSYM    DATA     BIT       P1_B2
      00000080H.3 SFRSYM    DATA     BIT       P0_B3
      000000C0H   SFRSYM    DATA     BYTE      SMB0CN0
      00000090H.3 SFRSYM    DATA     BIT       P1_B3
      00000080H.4 SFRSYM    DATA     BIT       P0_B4
      00000090H.4 SFRSYM    DATA     BIT       P1_B4
      00000080H.5 SFRSYM    DATA     BIT       P0_B5
      00000090H.5 SFRSYM    DATA     BIT       P1_B5
      00000080H.6 SFRSYM    DATA     BIT       P0_B6
      00000090H.6 SFRSYM    DATA     BIT       P1_B6
      00000080H.7 SFRSYM    DATA     BIT       P0_B7
      00000090H.7 SFRSYM    DATA     BIT       P1_B7
      00000083H   SFRSYM    DATA     BYTE      DPH
      000000C4H   SFRSYM    DATA     BYTE      ADC0GTH
      000000C8H.7 SFRSYM    DATA     BIT       TMR2CN0_TF2H
      000000C8H.3 SFRSYM    DATA     BIT       TMR2CN0_T2SPLIT
      000000D0H.6 SFRSYM    DATA     BIT       PSW_AC
      000000F8H   SFRSYM    DATA     BYTE      SPI0CN0
      000000C7H   SFRSYM    DATA     BYTE      HFO0CAL
      00000088H.5 SFRSYM    DATA     BIT       TCON_TF0
      00000098H   SFRSYM    DATA     BIT       SCON0_RI
      00000082H   SFRSYM    DATA     BYTE      DPL
      00000088H.7 SFRSYM    DATA     BIT       TCON_TF1
      00000099H   SFRSYM    DATA     BYTE      SBUF0
      00000087H   SFRSYM    DATA     BYTE      PCON0
      000000C3H   SFRSYM    DATA     BYTE      ADC0GTL
      000000C8H.6 SFRSYM    DATA     BIT       TMR2CN0_TF2L
      00000098H.1 SFRSYM    DATA     BIT       SCON0_TI
LX51 LINKER/LOCATER V4.66.30.0                                                        01/16/2020  15:26:40  PAGE 25


      000000E8H   SFRSYM    DATA     BIT       ADC0CN0_ADCM0
      000000C6H   SFRSYM    DATA     BYTE      ADC0LTH
      00000088H   SFRSYM    DATA     BIT       TCON_IT0
      000000E8H.1 SFRSYM    DATA     BIT       ADC0CN0_ADCM1
      000000EFH   SFRSYM    DATA     BYTE      RSTSRC
      000000FDH   SFRSYM    DATA     BYTE      P0MAT
      000000DEH   SFRSYM    DATA     BYTE      CRC0DAT
      00000088H.2 SFRSYM    DATA     BIT       TCON_IT1
      000000E8H.2 SFRSYM    DATA     BIT       ADC0CN0_ADCM2
      00000098H   SFRSYM    DATA     BYTE      SCON0
      000000F6H   SFRSYM    DATA     BYTE      PRTDRV
      000000EDH   SFRSYM    DATA     BYTE      P1MAT
      000000E8H.3 SFRSYM    DATA     BIT       ADC0CN0_ADWINT
      000000E8H.4 SFRSYM    DATA     BIT       ADC0CN0_ADBUSY
      000000D6H   SFRSYM    DATA     BYTE      SMB0ADM
      000000C5H   SFRSYM    DATA     BYTE      ADC0LTL
      000000F8H.5 SFRSYM    DATA     BIT       SPI0CN0_MODF
      000000B8H.6 SFRSYM    DATA     BIT       IP_PSPI0
      0000009CH   SFRSYM    DATA     BYTE      PCA0CLR
      000000C8H   SFRSYM    DATA     BYTE      TMR2CN0
      00000091H   SFRSYM    DATA     BYTE      TMR3CN0
      000000D7H   SFRSYM    DATA     BYTE      SMB0ADR
      00000088H.4 SFRSYM    DATA     BIT       TCON_TR0
      000000C8H.4 SFRSYM    DATA     BIT       TMR2CN0_TF2CEN
      00000088H.6 SFRSYM    DATA     BIT       TCON_TR1
      000000C2H   SFRSYM    DATA     BYTE      SMB0DAT
      000000CDH   SFRSYM    DATA     BYTE      TMR2H
      000000A1H   SFRSYM    DATA     BYTE      SPI0CFG
      00000095H   SFRSYM    DATA     BYTE      TMR3H
      000000D3H   SFRSYM    DATA     BYTE      CRC0CNT
      00000096H   SFRSYM    DATA     BYTE      PCA0POL
      000000CCH   SFRSYM    DATA     BYTE      TMR2L
      000000F8H.7 SFRSYM    DATA     BIT       SPI0CN0_SPIF
      00000094H   SFRSYM    DATA     BYTE      TMR3L
      000000DFH   SFRSYM    DATA     BYTE      ADC0PWR
      000000A8H.7 SFRSYM    DATA     BIT       IE_EA
      000000C8H.5 SFRSYM    DATA     BIT       TMR2CN0_TF2LEN
      000000F8H.6 SFRSYM    DATA     BIT       SPI0CN0_WCOL
      000000F8H.2 SFRSYM    DATA     BIT       SPI0CN0_NSSMD0
      000000D0H.7 SFRSYM    DATA     BIT       PSW_CY
      000000A3H   SFRSYM    DATA     BYTE      SPI0DAT
      000000F8H.3 SFRSYM    DATA     BIT       SPI0CN0_NSSMD1
      000000BDH   SFRSYM    DATA     WORD      ADC0
      000000D0H   SFRSYM    DATA     BYTE      PSW
      000000F7H   SFRSYM    DATA     BYTE      PCA0PWM
      000000B6H   SFRSYM    DATA     BYTE      REVID
      000000B7H   SFRSYM    DATA     BYTE      FLKEY
      000000B3H   SFRSYM    DATA     BYTE      ADC0AC

      010008CFH   BLOCK     CODE     ---       LVL=0
      010008CFH   LINE      CODE     ---       #22
      010008CFH   LINE      CODE     ---       #24
      010008D2H   LINE      CODE     ---       #25
      010008D5H   LINE      CODE     ---       #26
      010008D8H   LINE      CODE     ---       #27
      010008DBH   LINE      CODE     ---       #28
      010008DEH   LINE      CODE     ---       #29
      010008E1H   LINE      CODE     ---       #30
      010008E4H   LINE      CODE     ---       #31
      010008E7H   LINE      CODE     ---       #32
      010008EAH   LINE      CODE     ---       #33
      010008EDH   LINE      CODE     ---       #34
LX51 LINKER/LOCATER V4.66.30.0                                                        01/16/2020  15:26:40  PAGE 26


      010008F0H   LINE      CODE     ---       #35
      010008F3H   LINE      CODE     ---       #36
      010008F6H   LINE      CODE     ---       #37
      010008F9H   LINE      CODE     ---       #38
      ---         BLOCKEND  ---      ---       LVL=0

      01000886H   BLOCK     CODE     ---       LVL=0
      01000886H   BLOCK     CODE     NEAR LAB  LVL=1
      0000003EH   SYMBOL    DATA     DWORD     i
      00000022H.5 SYMBOL    BIT      BIT       ea
      ---         BLOCKEND  ---      ---       LVL=1
      01000886H   LINE      CODE     ---       #46
      01000886H   LINE      CODE     ---       #59
      01000889H   LINE      CODE     ---       #62
      010008A6H   LINE      CODE     ---       #63
      010008A7H   LINE      CODE     ---       #64
      010008BEH   LINE      CODE     ---       #67
      010008C2H   LINE      CODE     ---       #68
      010008C4H   LINE      CODE     ---       #69
      010008C7H   LINE      CODE     ---       #70
      010008CAH   LINE      CODE     ---       #71
      010008CEH   LINE      CODE     ---       #75
      ---         BLOCKEND  ---      ---       LVL=0

      010009B4H   BLOCK     CODE     ---       LVL=0
      010009B4H   LINE      CODE     ---       #80
      010009B4H   LINE      CODE     ---       #95
      010009B7H   LINE      CODE     ---       #112
      010009BAH   LINE      CODE     ---       #128
      010009BDH   LINE      CODE     ---       #139
      ---         BLOCKEND  ---      ---       LVL=0

      010009DCH   BLOCK     CODE     ---       LVL=0
      010009DCH   LINE      CODE     ---       #144
      010009DCH   LINE      CODE     ---       #159
      010009DFH   LINE      CODE     ---       #179
      010009E2H   LINE      CODE     ---       #190
      ---         BLOCKEND  ---      ---       LVL=0

      010009E3H   BLOCK     CODE     ---       LVL=0
      010009E3H   LINE      CODE     ---       #195
      010009E3H   LINE      CODE     ---       #201
      010009E6H   LINE      CODE     ---       #218
      010009E9H   LINE      CODE     ---       #226
      ---         BLOCKEND  ---      ---       LVL=0

      01000056H   BLOCK     CODE     ---       LVL=0
      01000056H   LINE      CODE     ---       #231
      01000056H   LINE      CODE     ---       #237
      01000059H   LINE      CODE     ---       #240
      ---         BLOCKEND  ---      ---       LVL=0

      01000999H   BLOCK     CODE     ---       LVL=0
      01000999H   LINE      CODE     ---       #245
      01000999H   LINE      CODE     ---       #247
      0100099BH   LINE      CODE     ---       #257
      0100099EH   LINE      CODE     ---       #267
      010009A1H   LINE      CODE     ---       #281
      010009A4H   LINE      CODE     ---       #291
      010009A6H   LINE      CODE     ---       #294
      ---         BLOCKEND  ---      ---       LVL=0

LX51 LINKER/LOCATER V4.66.30.0                                                        01/16/2020  15:26:40  PAGE 27


      010009BEH   BLOCK     CODE     ---       LVL=0
      010009BEH   LINE      CODE     ---       #299
      010009BEH   LINE      CODE     ---       #302
      010009C1H   LINE      CODE     ---       #316
      010009C4H   LINE      CODE     ---       #326
      010009C7H   LINE      CODE     ---       #335
      ---         BLOCKEND  ---      ---       LVL=0

      0100005EH   BLOCK     CODE     ---       LVL=0
      0100005EH   LINE      CODE     ---       #337
      0100005EH   LINE      CODE     ---       #345
      01000061H   LINE      CODE     ---       #355
      01000064H   LINE      CODE     ---       #386
      01000067H   LINE      CODE     ---       #387
      0100006AH   LINE      CODE     ---       #391
      ---         BLOCKEND  ---      ---       LVL=0

      010009C8H   BLOCK     CODE     ---       LVL=0
      010009C8H   LINE      CODE     ---       #393
      010009C8H   LINE      CODE     ---       #403
      010009CBH   LINE      CODE     ---       #404
      010009CEH   LINE      CODE     ---       #411
      010009D1H   LINE      CODE     ---       #414
      ---         BLOCKEND  ---      ---       LVL=0

      01000973H   BLOCK     CODE     ---       LVL=0
      01000973H   BLOCK     CODE     NEAR LAB  LVL=1
      00000007H   SYMBOL    DATA     BYTE      TCON_save
      ---         BLOCKEND  ---      ---       LVL=1
      01000973H   LINE      CODE     ---       #416
      01000973H   LINE      CODE     ---       #420
      01000975H   LINE      CODE     ---       #422
      01000978H   LINE      CODE     ---       #436
      0100097BH   LINE      CODE     ---       #444
      01000985H   LINE      CODE     ---       #448
      ---         BLOCKEND  ---      ---       LVL=0

      01000986H   BLOCK     CODE     ---       LVL=0
      01000986H   BLOCK     CODE     NEAR LAB  LVL=1
      00000007H   SYMBOL    DATA     BYTE      TMR2CN0_TR2_save
      ---         BLOCKEND  ---      ---       LVL=1
      01000986H   LINE      CODE     ---       #450
      01000986H   LINE      CODE     ---       #454
      0100098AH   LINE      CODE     ---       #456
      0100098DH   LINE      CODE     ---       #472
      01000990H   LINE      CODE     ---       #479
      01000993H   LINE      CODE     ---       #486
      01000996H   LINE      CODE     ---       #491
      01000998H   LINE      CODE     ---       #494
      ---         BLOCKEND  ---      ---       LVL=0

      010009D2H   BLOCK     CODE     ---       LVL=0
      010009D2H   LINE      CODE     ---       #496
      010009D2H   LINE      CODE     ---       #507
      010009D5H   LINE      CODE     ---       #522
      010009D8H   LINE      CODE     ---       #530
      010009DBH   LINE      CODE     ---       #533
      ---         BLOCKEND  ---      ---       LVL=0

      0100006EH   BLOCK     CODE     ---       LVL=0
      0100006EH   LINE      CODE     ---       #535
      0100006EH   LINE      CODE     ---       #540
LX51 LINKER/LOCATER V4.66.30.0                                                        01/16/2020  15:26:40  PAGE 28


      01000071H   LINE      CODE     ---       #543
      ---         BLOCKEND  ---      ---       LVL=0

      010009EAH   BLOCK     CODE     ---       LVL=0
      010009EAH   LINE      CODE     ---       #545
      010009EAH   LINE      CODE     ---       #558
      010009EDH   LINE      CODE     ---       #577
      010009F0H   LINE      CODE     ---       #585
      ---         BLOCKEND  ---      ---       LVL=0

      010009A7H   BLOCK     CODE     ---       LVL=0
      010009A7H   BLOCK     CODE     NEAR LAB  LVL=1
      00000007H   SYMBOL    DATA     BYTE      TMR3CN0_TR3_save
      ---         BLOCKEND  ---      ---       LVL=1
      010009A7H   LINE      CODE     ---       #587
      010009A7H   LINE      CODE     ---       #591
      010009ABH   LINE      CODE     ---       #593
      010009AEH   LINE      CODE     ---       #615
      010009B1H   LINE      CODE     ---       #620
      010009B3H   LINE      CODE     ---       #623
      ---         BLOCKEND  ---      ---       LVL=0

      ---         MODULE    ---      ---       INTERRUPTS
      010009F1H   PUBLIC    CODE     ---       TIMER3_ISR
      01000072H   PUBLIC    CODE     ---       CMP1_ISR
      010007F8H   PUBLIC    CODE     ---       PCA0_ISR
      010006A4H   PUBLIC    CODE     ---       ADC0EOC_ISR
      000000A2H   SFRSYM    DATA     BYTE      SPI0CKR
      00000080H   SFRSYM    DATA     BYTE      P0
      000000D0H.2 SFRSYM    DATA     BIT       PSW_OV
      00000090H   SFRSYM    DATA     BYTE      P1
      00000097H   SFRSYM    DATA     BYTE      WDTCN
      000000A0H   SFRSYM    DATA     BYTE      P2
      000000BCH   SFRSYM    DATA     BYTE      ADC0CF
      000000C8H   SFRSYM    DATA     BIT       TMR2CN0_T2XCLK
      000000C0H.7 SFRSYM    DATA     BIT       SMB0CN0_MASTER
      000000F9H   SFRSYM    DATA     WORD      PCA0
      000000E6H   SFRSYM    DATA     BYTE      EIE1
      000000C0H.1 SFRSYM    DATA     BIT       SMB0CN0_ACK
      0000008FH   SFRSYM    DATA     BYTE      PSCTL
      000000E4H   SFRSYM    DATA     BYTE      IT01CF
      000000C0H.6 SFRSYM    DATA     BIT       SMB0CN0_TXMODE
      000000ADH   SFRSYM    DATA     BYTE      DERIVID
      000000A4H   SFRSYM    DATA     BYTE      P0MDOUT
      000000A5H   SFRSYM    DATA     BYTE      P1MDOUT
      000000E8H.5 SFRSYM    DATA     BIT       ADC0CN0_ADINT
      000000CBH   SFRSYM    DATA     BYTE      TMR2RLH
      000000A6H   SFRSYM    DATA     BYTE      P2MDOUT
      000000A8H   SFRSYM    DATA     BYTE      IE
      00000093H   SFRSYM    DATA     BYTE      TMR3RLH
      000000F3H   SFRSYM    DATA     BYTE      EIP1
      00000098H.2 SFRSYM    DATA     BIT       SCON0_RB8
      000000CAH   SFRSYM    DATA     BYTE      TMR2RLL
      000000FCH   SFRSYM    DATA     BYTE      PCA0CPH0
      00000092H   SFRSYM    DATA     BYTE      TMR3RLL
      000000EAH   SFRSYM    DATA     BYTE      PCA0CPH1
      00000098H.3 SFRSYM    DATA     BIT       SCON0_TB8
      000000F0H   SFRSYM    DATA     BIT       B_B0
      00000082H   SFRSYM    DATA     WORD      DP
      000000ECH   SFRSYM    DATA     BYTE      PCA0CPH2
      000000F0H.1 SFRSYM    DATA     BIT       B_B1
      000000C3H   SFRSYM    DATA     WORD      ADC0GT
LX51 LINKER/LOCATER V4.66.30.0                                                        01/16/2020  15:26:40  PAGE 29


      000000F0H.2 SFRSYM    DATA     BIT       B_B2
      000000FBH   SFRSYM    DATA     BYTE      PCA0CPL0
      000000F0H.3 SFRSYM    DATA     BIT       B_B3
      000000D9H   SFRSYM    DATA     BYTE      PCA0MD
      000000DAH   SFRSYM    DATA     BYTE      PCA0CPM0
      000000E9H   SFRSYM    DATA     BYTE      PCA0CPL1
      000000F0H.4 SFRSYM    DATA     BIT       B_B4
      000000DBH   SFRSYM    DATA     BYTE      PCA0CPM1
      000000EBH   SFRSYM    DATA     BYTE      PCA0CPL2
      000000F0H.5 SFRSYM    DATA     BIT       B_B5
      000000DCH   SFRSYM    DATA     BYTE      PCA0CPM2
      000000B8H   SFRSYM    DATA     BYTE      IP
      000000B9H   SFRSYM    DATA     BYTE      ADC0TK
      000000F0H.6 SFRSYM    DATA     BIT       B_B6
      000000C5H   SFRSYM    DATA     WORD      ADC0LT
      00000098H.5 SFRSYM    DATA     BIT       SCON0_MCE
      000000F0H.7 SFRSYM    DATA     BIT       B_B7
      000000E1H   SFRSYM    DATA     BYTE      XBR0
      000000C1H   SFRSYM    DATA     BYTE      SMB0CF
      000000E2H   SFRSYM    DATA     BYTE      XBR1
      000000C0H.5 SFRSYM    DATA     BIT       SMB0CN0_STA
      000000E3H   SFRSYM    DATA     BYTE      XBR2
      000000BBH   SFRSYM    DATA     BYTE      ADC0MX
      000000E0H   SFRSYM    DATA     BIT       ACC_ACC0
      000000D1H   SFRSYM    DATA     BYTE      REF0CN
      0000008EH   SFRSYM    DATA     BYTE      CKCON0
      000000E0H.1 SFRSYM    DATA     BIT       ACC_ACC1
      000000C9H   SFRSYM    DATA     BYTE      REG0CN
      000000DDH   SFRSYM    DATA     BYTE      CRC0IN
      000000C8H.2 SFRSYM    DATA     BIT       TMR2CN0_TR2
      000000E0H.2 SFRSYM    DATA     BIT       ACC_ACC2
      000000E0H.3 SFRSYM    DATA     BIT       ACC_ACC3
      00000081H   SFRSYM    DATA     BYTE      SP
      0000009DH   SFRSYM    DATA     BYTE      CMP0MD
      000000E0H.4 SFRSYM    DATA     BIT       ACC_ACC4
      000000B1H   SFRSYM    DATA     BYTE      LFO0CN
      000000ABH   SFRSYM    DATA     BYTE      CMP1MD
      000000D8H   SFRSYM    DATA     BIT       PCA0CN0_CCF0
      000000E0H.5 SFRSYM    DATA     BIT       ACC_ACC5
      000000D8H.1 SFRSYM    DATA     BIT       PCA0CN0_CCF1
      000000E0H.6 SFRSYM    DATA     BIT       ACC_ACC6
      000000CCH   SFRSYM    DATA     WORD      TMR2
      000000D8H.2 SFRSYM    DATA     BIT       PCA0CN0_CCF2
      000000E0H.7 SFRSYM    DATA     BIT       ACC_ACC7
      00000094H   SFRSYM    DATA     WORD      TMR3
      000000C0H.3 SFRSYM    DATA     BIT       SMB0CN0_ACKRQ
      000000FFH   SFRSYM    DATA     BYTE      VDM0CN
      000000F1H   SFRSYM    DATA     BYTE      P0MDIN
      00000098H.4 SFRSYM    DATA     BIT       SCON0_REN
      000000ACH   SFRSYM    DATA     BYTE      SMB0TC
      000000F2H   SFRSYM    DATA     BYTE      P1MDIN
      000000C0H.4 SFRSYM    DATA     BIT       SMB0CN0_STO
      000000FEH   SFRSYM    DATA     BYTE      P0MASK
      000000EEH   SFRSYM    DATA     BYTE      P1MASK
      000000D0H.3 SFRSYM    DATA     BIT       PSW_RS0
      000000D8H.7 SFRSYM    DATA     BIT       PCA0CN0_CF
      0000009EH   SFRSYM    DATA     BYTE      PCA0CENT
      000000F8H.4 SFRSYM    DATA     BIT       SPI0CN0_RXOVRN
      000000D0H.4 SFRSYM    DATA     BIT       PSW_RS1
      000000E8H.7 SFRSYM    DATA     BIT       ADC0CN0_ADEN
      00000089H   SFRSYM    DATA     BYTE      TMOD
      00000088H   SFRSYM    DATA     BYTE      TCON
LX51 LINKER/LOCATER V4.66.30.0                                                        01/16/2020  15:26:40  PAGE 30


      000000CFH   SFRSYM    DATA     BYTE      CRC0FLIP
      000000D0H   SFRSYM    DATA     BIT       PSW_PARITY
      000000A8H.4 SFRSYM    DATA     BIT       IE_ES0
      0000009FH   SFRSYM    DATA     BYTE      CMP0MX
      000000A8H.1 SFRSYM    DATA     BIT       IE_ET0
      000000AAH   SFRSYM    DATA     BYTE      CMP1MX
      000000A8H.3 SFRSYM    DATA     BIT       IE_ET1
      000000D4H   SFRSYM    DATA     BYTE      P0SKIP
      000000A8H.5 SFRSYM    DATA     BIT       IE_ET2
      000000D5H   SFRSYM    DATA     BYTE      P1SKIP
      000000E8H   SFRSYM    DATA     BYTE      ADC0CN0
      000000A8H   SFRSYM    DATA     BIT       IE_EX0
      000000B2H   SFRSYM    DATA     BYTE      ADC0CN1
      000000D8H.6 SFRSYM    DATA     BIT       PCA0CN0_CR
      000000A8H.2 SFRSYM    DATA     BIT       IE_EX1
      00000098H.7 SFRSYM    DATA     BIT       SCON0_SMODE
      000000B5H   SFRSYM    DATA     BYTE      DEVICEID
      000000A9H   SFRSYM    DATA     BYTE      CLKSEL
      000000F8H   SFRSYM    DATA     BIT       SPI0CN0_SPIEN
      000000F0H   SFRSYM    DATA     BYTE      B
      000000BEH   SFRSYM    DATA     BYTE      ADC0H
      000000D2H   SFRSYM    DATA     BYTE      CRC0AUTO
      000000E8H.6 SFRSYM    DATA     BIT       ADC0CN0_ADBMEN
      000000CAH   SFRSYM    DATA     WORD      TMR2RL
      000000BDH   SFRSYM    DATA     BYTE      ADC0L
      00000092H   SFRSYM    DATA     WORD      TMR3RL
      000000D8H   SFRSYM    DATA     BYTE      PCA0CN0
      000000E0H   SFRSYM    DATA     BYTE      ACC
      000000FBH   SFRSYM    DATA     WORD      PCA0CP0
      000000E9H   SFRSYM    DATA     WORD      PCA0CP1
      000000EBH   SFRSYM    DATA     WORD      PCA0CP2
      000000CEH   SFRSYM    DATA     BYTE      CRC0CN0
      00000090H.4 SFRSYM    DATA     BIT       BSP_LED0
      0000008CH   SFRSYM    DATA     BYTE      TH0
      000000B8H.4 SFRSYM    DATA     BIT       IP_PS0
      0000008DH   SFRSYM    DATA     BYTE      TH1
      000000FAH   SFRSYM    DATA     BYTE      PCA0H
      000000B8H.1 SFRSYM    DATA     BIT       IP_PT0
      000000B8H.3 SFRSYM    DATA     BIT       IP_PT1
      000000C0H.2 SFRSYM    DATA     BIT       SMB0CN0_ARBLOST
      000000B8H.5 SFRSYM    DATA     BIT       IP_PT2
      0000008AH   SFRSYM    DATA     BYTE      TL0
      000000F8H.1 SFRSYM    DATA     BIT       SPI0CN0_TXBMT
      000000D0H.5 SFRSYM    DATA     BIT       PSW_F0
      000000A8H.6 SFRSYM    DATA     BIT       IE_ESPI0
      0000008BH   SFRSYM    DATA     BYTE      TL1
      000000F9H   SFRSYM    DATA     BYTE      PCA0L
      000000C0H   SFRSYM    DATA     BIT       SMB0CN0_SI
      000000D0H.1 SFRSYM    DATA     BIT       PSW_F1
      00000080H   SFRSYM    DATA     BIT       P0_B0
      000000B8H   SFRSYM    DATA     BIT       IP_PX0
      00000090H   SFRSYM    DATA     BIT       P1_B0
      00000080H.1 SFRSYM    DATA     BIT       P0_B1
      000000B8H.2 SFRSYM    DATA     BIT       IP_PX1
      0000009BH   SFRSYM    DATA     BYTE      CMP0CN0
      00000088H.1 SFRSYM    DATA     BIT       TCON_IE0
      000000A0H   SFRSYM    DATA     BIT       P2_B0
      00000090H.1 SFRSYM    DATA     BIT       P1_B1
      00000080H.2 SFRSYM    DATA     BIT       P0_B2
      000000BFH   SFRSYM    DATA     BYTE      CMP1CN0
      00000088H.3 SFRSYM    DATA     BIT       TCON_IE1
      000000A0H.1 SFRSYM    DATA     BIT       P2_B1
LX51 LINKER/LOCATER V4.66.30.0                                                        01/16/2020  15:26:40  PAGE 31


      00000090H.2 SFRSYM    DATA     BIT       P1_B2
      00000080H.3 SFRSYM    DATA     BIT       P0_B3
      000000C0H   SFRSYM    DATA     BYTE      SMB0CN0
      00000090H.3 SFRSYM    DATA     BIT       P1_B3
      00000080H.4 SFRSYM    DATA     BIT       P0_B4
      00000090H.4 SFRSYM    DATA     BIT       P1_B4
      00000080H.5 SFRSYM    DATA     BIT       P0_B5
      00000090H.5 SFRSYM    DATA     BIT       P1_B5
      00000080H.6 SFRSYM    DATA     BIT       P0_B6
      00000090H.6 SFRSYM    DATA     BIT       P1_B6
      00000080H.7 SFRSYM    DATA     BIT       P0_B7
      00000090H.7 SFRSYM    DATA     BIT       P1_B7
      00000080H.2 SFRSYM    DATA     BIT       BSP_BTN0
      00000083H   SFRSYM    DATA     BYTE      DPH
      000000C4H   SFRSYM    DATA     BYTE      ADC0GTH
      000000C8H.7 SFRSYM    DATA     BIT       TMR2CN0_TF2H
      000000C8H.3 SFRSYM    DATA     BIT       TMR2CN0_T2SPLIT
      000000D0H.6 SFRSYM    DATA     BIT       PSW_AC
      000000F8H   SFRSYM    DATA     BYTE      SPI0CN0
      000000C7H   SFRSYM    DATA     BYTE      HFO0CAL
      00000088H.5 SFRSYM    DATA     BIT       TCON_TF0
      00000098H   SFRSYM    DATA     BIT       SCON0_RI
      00000082H   SFRSYM    DATA     BYTE      DPL
      00000088H.7 SFRSYM    DATA     BIT       TCON_TF1
      00000099H   SFRSYM    DATA     BYTE      SBUF0
      00000087H   SFRSYM    DATA     BYTE      PCON0
      000000C3H   SFRSYM    DATA     BYTE      ADC0GTL
      000000C8H.6 SFRSYM    DATA     BIT       TMR2CN0_TF2L
      00000098H.1 SFRSYM    DATA     BIT       SCON0_TI
      000000E8H   SFRSYM    DATA     BIT       ADC0CN0_ADCM0
      000000C6H   SFRSYM    DATA     BYTE      ADC0LTH
      00000088H   SFRSYM    DATA     BIT       TCON_IT0
      000000E8H.1 SFRSYM    DATA     BIT       ADC0CN0_ADCM1
      000000EFH   SFRSYM    DATA     BYTE      RSTSRC
      000000FDH   SFRSYM    DATA     BYTE      P0MAT
      000000DEH   SFRSYM    DATA     BYTE      CRC0DAT
      00000088H.2 SFRSYM    DATA     BIT       TCON_IT1
      000000E8H.2 SFRSYM    DATA     BIT       ADC0CN0_ADCM2
      00000098H   SFRSYM    DATA     BYTE      SCON0
      000000F6H   SFRSYM    DATA     BYTE      PRTDRV
      000000EDH   SFRSYM    DATA     BYTE      P1MAT
      000000E8H.3 SFRSYM    DATA     BIT       ADC0CN0_ADWINT
      000000E8H.4 SFRSYM    DATA     BIT       ADC0CN0_ADBUSY
      000000D6H   SFRSYM    DATA     BYTE      SMB0ADM
      000000C5H   SFRSYM    DATA     BYTE      ADC0LTL
      000000F8H.5 SFRSYM    DATA     BIT       SPI0CN0_MODF
      000000B8H.6 SFRSYM    DATA     BIT       IP_PSPI0
      0000009CH   SFRSYM    DATA     BYTE      PCA0CLR
      000000C8H   SFRSYM    DATA     BYTE      TMR2CN0
      00000091H   SFRSYM    DATA     BYTE      TMR3CN0
      000000D7H   SFRSYM    DATA     BYTE      SMB0ADR
      00000088H.4 SFRSYM    DATA     BIT       TCON_TR0
      000000C8H.4 SFRSYM    DATA     BIT       TMR2CN0_TF2CEN
      00000088H.6 SFRSYM    DATA     BIT       TCON_TR1
      000000C2H   SFRSYM    DATA     BYTE      SMB0DAT
      000000CDH   SFRSYM    DATA     BYTE      TMR2H
      000000A1H   SFRSYM    DATA     BYTE      SPI0CFG
      00000095H   SFRSYM    DATA     BYTE      TMR3H
      000000D3H   SFRSYM    DATA     BYTE      CRC0CNT
      00000096H   SFRSYM    DATA     BYTE      PCA0POL
      000000CCH   SFRSYM    DATA     BYTE      TMR2L
      000000F8H.7 SFRSYM    DATA     BIT       SPI0CN0_SPIF
LX51 LINKER/LOCATER V4.66.30.0                                                        01/16/2020  15:26:40  PAGE 32


      00000094H   SFRSYM    DATA     BYTE      TMR3L
      000000DFH   SFRSYM    DATA     BYTE      ADC0PWR
      000000A8H.7 SFRSYM    DATA     BIT       IE_EA
      000000C8H.5 SFRSYM    DATA     BIT       TMR2CN0_TF2LEN
      000000F8H.6 SFRSYM    DATA     BIT       SPI0CN0_WCOL
      000000F8H.2 SFRSYM    DATA     BIT       SPI0CN0_NSSMD0
      000000D0H.7 SFRSYM    DATA     BIT       PSW_CY
      000000A3H   SFRSYM    DATA     BYTE      SPI0DAT
      000000F8H.3 SFRSYM    DATA     BIT       SPI0CN0_NSSMD1
      000000BDH   SFRSYM    DATA     WORD      ADC0
      000000D0H   SFRSYM    DATA     BYTE      PSW
      000000F7H   SFRSYM    DATA     BYTE      PCA0PWM
      000000B6H   SFRSYM    DATA     BYTE      REVID
      000000B7H   SFRSYM    DATA     BYTE      FLKEY
      000000B3H   SFRSYM    DATA     BYTE      ADC0AC

      010006A4H   BLOCK     CODE     ---       LVL=0
      010006C1H   BLOCK     CODE     NEAR LAB  LVL=1
      00000008H   SYMBOL    DATA     DWORD     accumulator
      0000000CH   SYMBOL    DATA     WORD      measurements
      00000023H   SYMBOL    DATA     DWORD     result
      00000004H   SYMBOL    DATA     DWORD     mV
      ---         BLOCKEND  ---      ---       LVL=1
      010006A4H   LINE      CODE     ---       #21
      010006C1H   LINE      CODE     ---       #25
      010006CDH   LINE      CODE     ---       #28
      010006CFH   LINE      CODE     ---       #30
      010006EAH   LINE      CODE     ---       #31
      010006F2H   LINE      CODE     ---       #33
      010006F8H   LINE      CODE     ---       #34
      010006F8H   LINE      CODE     ---       #35
      010006FDH   LINE      CODE     ---       #36
      01000715H   LINE      CODE     ---       #37
      01000721H   LINE      CODE     ---       #46
      0100073DH   LINE      CODE     ---       #48
      0100074EH   LINE      CODE     ---       #49
      0100074EH   LINE      CODE     ---       #50
      ---         BLOCKEND  ---      ---       LVL=0

      010007F8H   BLOCK     CODE     ---       LVL=0
      01000805H   BLOCK     CODE     NEAR LAB  LVL=1
      0000000EH   SYMBOL    DATA     ---       xpca_count
      0000003BH   SYMBOL    DATA     WORD      user_timer
      00000010H   SYMBOL    DATA     ---       new_duty
      00000012H   SYMBOL    DATA     ---       new_cpblank_duty
      00000014H   SYMBOL    DATA     BYTE      new_polarity
      ---         BLOCKEND  ---      ---       LVL=1
      010007F8H   LINE      CODE     ---       #64
      01000805H   LINE      CODE     ---       #72
      0100080DH   LINE      CODE     ---       #73
      0100080DH   LINE      CODE     ---       #78
      01000810H   LINE      CODE     ---       #80
      01000812H   LINE      CODE     ---       #81
      01000815H   LINE      CODE     ---       #82
      01000817H   LINE      CODE     ---       #83
      01000819H   LINE      CODE     ---       #85
      0100081CH   LINE      CODE     ---       #87
      0100081FH   LINE      CODE     ---       #89
      01000822H   LINE      CODE     ---       #90
      01000825H   LINE      CODE     ---       #91
      01000828H   LINE      CODE     ---       #93
      0100082BH   LINE      CODE     ---       #94
LX51 LINKER/LOCATER V4.66.30.0                                                        01/16/2020  15:26:40  PAGE 33


      0100082BH   LINE      CODE     ---       #95
      0100082EH   LINE      CODE     ---       #96
      01000831H   LINE      CODE     ---       #103
      0100083CH   LINE      CODE     ---       #104
      0100083FH   LINE      CODE     ---       #105
      01000842H   LINE      CODE     ---       #106
      01000842H   LINE      CODE     ---       #108
      01000845H   LINE      CODE     ---       #109
      01000845H   LINE      CODE     ---       #110
      01000848H   LINE      CODE     ---       #111
      0100084BH   LINE      CODE     ---       #118
      01000856H   LINE      CODE     ---       #119
      01000859H   LINE      CODE     ---       #120
      0100085CH   LINE      CODE     ---       #121
      0100085CH   LINE      CODE     ---       #122
      0100085EH   LINE      CODE     ---       #124
      01000860H   LINE      CODE     ---       #125
      01000860H   LINE      CODE     ---       #127
      01000863H   LINE      CODE     ---       #128
      01000863H   LINE      CODE     ---       #131
      01000865H   LINE      CODE     ---       #132
      01000867H   LINE      CODE     ---       #133
      0100086FH   LINE      CODE     ---       #134
      01000871H   LINE      CODE     ---       #136
      01000879H   LINE      CODE     ---       #137
      01000879H   LINE      CODE     ---       #138
      0100087BH   LINE      CODE     ---       #139
      0100087BH   LINE      CODE     ---       #140
      0100087BH   LINE      CODE     ---       #141
      ---         BLOCKEND  ---      ---       LVL=0

      01000072H   BLOCK     CODE     ---       LVL=0
      01000072H   LINE      CODE     ---       #152
      01000072H   LINE      CODE     ---       #155
      ---         BLOCKEND  ---      ---       LVL=0

      010009F1H   BLOCK     CODE     ---       LVL=0
      010009F1H   LINE      CODE     ---       #166
      010009F1H   LINE      CODE     ---       #169
      ---         BLOCKEND  ---      ---       LVL=0

      ---         MODULE    ---      ---       ?C_STARTUP
      01000000H   PUBLIC    CODE     NEAR LAB  ?C_STARTUP
      000000E0H   SFRSYM    DATA     BYTE      ACC
      000000F0H   SFRSYM    DATA     BYTE      B
      00000083H   SFRSYM    DATA     BYTE      DPH
      00000082H   SFRSYM    DATA     BYTE      DPL
      000000A0H   SFRSYM    DATA     BYTE      PPAGE_SFR
      00000081H   SFRSYM    DATA     BYTE      SP
      00000000H   SYMBOL    NUMBER   ---       IBPSTACK
      00000100H   SYMBOL    NUMBER   ---       IBPSTACKTOP
      00000080H   SYMBOL    NUMBER   ---       IDATALEN
      0100076FH   SYMBOL    CODE     NEAR LAB  IDATALOOP
      00000000H   SYMBOL    NUMBER   ---       PBPSTACK
      00000100H   SYMBOL    NUMBER   ---       PBPSTACKTOP
      00000000H   SYMBOL    NUMBER   ---       PDATALEN
      00000000H   SYMBOL    NUMBER   ---       PDATASTART
      00000000H   SYMBOL    NUMBER   ---       PPAGE
      00000000H   SYMBOL    NUMBER   ---       PPAGEENABLE
      01000769H   SYMBOL    CODE     NEAR LAB  STARTUP1
      00000000H   SYMBOL    NUMBER   ---       XBPSTACK
      00010000H   SYMBOL    NUMBER   ---       XBPSTACKTOP
LX51 LINKER/LOCATER V4.66.30.0                                                        01/16/2020  15:26:40  PAGE 34


      00000000H   SYMBOL    NUMBER   ---       XDATALEN
      00000000H   SYMBOL    NUMBER   ---       XDATASTART

      01000000H   BLOCK     CODE     NEAR LAB  LVL=0
      01000000H   LINE      CODE     ---       #126
      ---         BLOCKEND  ---      ---       LVL=0

      01000769H   BLOCK     CODE     NEAR LAB  LVL=0
      01000769H   LINE      CODE     ---       #134
      0100076CH   LINE      CODE     ---       #138
      0100076EH   LINE      CODE     ---       #139
      0100076FH   LINE      CODE     ---       #140
      01000770H   LINE      CODE     ---       #141
      01000772H   LINE      CODE     ---       #190
      01000775H   LINE      CODE     ---       #201
      ---         BLOCKEND  ---      ---       LVL=0

      ---         MODULE    ---      ---       ADC
      02000031H   PUBLIC    XDATA    ---       adc_result
      0000001EH   PUBLIC    DATA     BYTE      adc_flags
      000000A2H   SFRSYM    DATA     BYTE      SPI0CKR
      00000080H   SFRSYM    DATA     BYTE      P0
      000000D0H.2 SFRSYM    DATA     BIT       PSW_OV
      00000090H   SFRSYM    DATA     BYTE      P1
      00000097H   SFRSYM    DATA     BYTE      WDTCN
      000000A0H   SFRSYM    DATA     BYTE      P2
      000000BCH   SFRSYM    DATA     BYTE      ADC0CF
      000000C8H   SFRSYM    DATA     BIT       TMR2CN0_T2XCLK
      000000C0H.7 SFRSYM    DATA     BIT       SMB0CN0_MASTER
      000000F9H   SFRSYM    DATA     WORD      PCA0
      000000E6H   SFRSYM    DATA     BYTE      EIE1
      000000C0H.1 SFRSYM    DATA     BIT       SMB0CN0_ACK
      0000008FH   SFRSYM    DATA     BYTE      PSCTL
      000000E4H   SFRSYM    DATA     BYTE      IT01CF
      000000C0H.6 SFRSYM    DATA     BIT       SMB0CN0_TXMODE
      000000ADH   SFRSYM    DATA     BYTE      DERIVID
      000000A4H   SFRSYM    DATA     BYTE      P0MDOUT
      000000A5H   SFRSYM    DATA     BYTE      P1MDOUT
      000000E8H.5 SFRSYM    DATA     BIT       ADC0CN0_ADINT
      000000CBH   SFRSYM    DATA     BYTE      TMR2RLH
      000000A6H   SFRSYM    DATA     BYTE      P2MDOUT
      000000A8H   SFRSYM    DATA     BYTE      IE
      00000093H   SFRSYM    DATA     BYTE      TMR3RLH
      000000F3H   SFRSYM    DATA     BYTE      EIP1
      00000098H.2 SFRSYM    DATA     BIT       SCON0_RB8
      000000CAH   SFRSYM    DATA     BYTE      TMR2RLL
      000000FCH   SFRSYM    DATA     BYTE      PCA0CPH0
      00000092H   SFRSYM    DATA     BYTE      TMR3RLL
      000000EAH   SFRSYM    DATA     BYTE      PCA0CPH1
      00000098H.3 SFRSYM    DATA     BIT       SCON0_TB8
      000000F0H   SFRSYM    DATA     BIT       B_B0
      00000082H   SFRSYM    DATA     WORD      DP
      000000ECH   SFRSYM    DATA     BYTE      PCA0CPH2
      000000F0H.1 SFRSYM    DATA     BIT       B_B1
      000000C3H   SFRSYM    DATA     WORD      ADC0GT
      000000F0H.2 SFRSYM    DATA     BIT       B_B2
      000000FBH   SFRSYM    DATA     BYTE      PCA0CPL0
      000000F0H.3 SFRSYM    DATA     BIT       B_B3
      000000D9H   SFRSYM    DATA     BYTE      PCA0MD
      000000DAH   SFRSYM    DATA     BYTE      PCA0CPM0
      000000E9H   SFRSYM    DATA     BYTE      PCA0CPL1
      000000F0H.4 SFRSYM    DATA     BIT       B_B4
LX51 LINKER/LOCATER V4.66.30.0                                                        01/16/2020  15:26:40  PAGE 35


      000000DBH   SFRSYM    DATA     BYTE      PCA0CPM1
      000000EBH   SFRSYM    DATA     BYTE      PCA0CPL2
      000000F0H.5 SFRSYM    DATA     BIT       B_B5
      000000DCH   SFRSYM    DATA     BYTE      PCA0CPM2
      000000B8H   SFRSYM    DATA     BYTE      IP
      000000B9H   SFRSYM    DATA     BYTE      ADC0TK
      000000F0H.6 SFRSYM    DATA     BIT       B_B6
      000000C5H   SFRSYM    DATA     WORD      ADC0LT
      00000098H.5 SFRSYM    DATA     BIT       SCON0_MCE
      000000F0H.7 SFRSYM    DATA     BIT       B_B7
      000000E1H   SFRSYM    DATA     BYTE      XBR0
      000000C1H   SFRSYM    DATA     BYTE      SMB0CF
      000000E2H   SFRSYM    DATA     BYTE      XBR1
      000000C0H.5 SFRSYM    DATA     BIT       SMB0CN0_STA
      000000E3H   SFRSYM    DATA     BYTE      XBR2
      000000BBH   SFRSYM    DATA     BYTE      ADC0MX
      000000E0H   SFRSYM    DATA     BIT       ACC_ACC0
      000000D1H   SFRSYM    DATA     BYTE      REF0CN
      0000008EH   SFRSYM    DATA     BYTE      CKCON0
      000000E0H.1 SFRSYM    DATA     BIT       ACC_ACC1
      000000C9H   SFRSYM    DATA     BYTE      REG0CN
      000000DDH   SFRSYM    DATA     BYTE      CRC0IN
      000000C8H.2 SFRSYM    DATA     BIT       TMR2CN0_TR2
      000000E0H.2 SFRSYM    DATA     BIT       ACC_ACC2
      000000E0H.3 SFRSYM    DATA     BIT       ACC_ACC3
      00000081H   SFRSYM    DATA     BYTE      SP
      0000009DH   SFRSYM    DATA     BYTE      CMP0MD
      000000E0H.4 SFRSYM    DATA     BIT       ACC_ACC4
      000000B1H   SFRSYM    DATA     BYTE      LFO0CN
      000000ABH   SFRSYM    DATA     BYTE      CMP1MD
      000000D8H   SFRSYM    DATA     BIT       PCA0CN0_CCF0
      000000E0H.5 SFRSYM    DATA     BIT       ACC_ACC5
      000000D8H.1 SFRSYM    DATA     BIT       PCA0CN0_CCF1
      000000E0H.6 SFRSYM    DATA     BIT       ACC_ACC6
      000000CCH   SFRSYM    DATA     WORD      TMR2
      000000D8H.2 SFRSYM    DATA     BIT       PCA0CN0_CCF2
      000000E0H.7 SFRSYM    DATA     BIT       ACC_ACC7
      00000094H   SFRSYM    DATA     WORD      TMR3
      000000C0H.3 SFRSYM    DATA     BIT       SMB0CN0_ACKRQ
      000000FFH   SFRSYM    DATA     BYTE      VDM0CN
      000000F1H   SFRSYM    DATA     BYTE      P0MDIN
      00000098H.4 SFRSYM    DATA     BIT       SCON0_REN
      000000ACH   SFRSYM    DATA     BYTE      SMB0TC
      000000F2H   SFRSYM    DATA     BYTE      P1MDIN
      000000C0H.4 SFRSYM    DATA     BIT       SMB0CN0_STO
      000000FEH   SFRSYM    DATA     BYTE      P0MASK
      000000EEH   SFRSYM    DATA     BYTE      P1MASK
      000000D0H.3 SFRSYM    DATA     BIT       PSW_RS0
      000000D8H.7 SFRSYM    DATA     BIT       PCA0CN0_CF
      0000009EH   SFRSYM    DATA     BYTE      PCA0CENT
      000000F8H.4 SFRSYM    DATA     BIT       SPI0CN0_RXOVRN
      000000D0H.4 SFRSYM    DATA     BIT       PSW_RS1
      000000E8H.7 SFRSYM    DATA     BIT       ADC0CN0_ADEN
      00000089H   SFRSYM    DATA     BYTE      TMOD
      00000088H   SFRSYM    DATA     BYTE      TCON
      000000CFH   SFRSYM    DATA     BYTE      CRC0FLIP
      000000D0H   SFRSYM    DATA     BIT       PSW_PARITY
      000000A8H.4 SFRSYM    DATA     BIT       IE_ES0
      0000009FH   SFRSYM    DATA     BYTE      CMP0MX
      000000A8H.1 SFRSYM    DATA     BIT       IE_ET0
      000000AAH   SFRSYM    DATA     BYTE      CMP1MX
      000000A8H.3 SFRSYM    DATA     BIT       IE_ET1
LX51 LINKER/LOCATER V4.66.30.0                                                        01/16/2020  15:26:40  PAGE 36


      000000D4H   SFRSYM    DATA     BYTE      P0SKIP
      000000A8H.5 SFRSYM    DATA     BIT       IE_ET2
      000000D5H   SFRSYM    DATA     BYTE      P1SKIP
      000000E8H   SFRSYM    DATA     BYTE      ADC0CN0
      000000A8H   SFRSYM    DATA     BIT       IE_EX0
      000000B2H   SFRSYM    DATA     BYTE      ADC0CN1
      000000D8H.6 SFRSYM    DATA     BIT       PCA0CN0_CR
      000000A8H.2 SFRSYM    DATA     BIT       IE_EX1
      00000098H.7 SFRSYM    DATA     BIT       SCON0_SMODE
      000000B5H   SFRSYM    DATA     BYTE      DEVICEID
      000000A9H   SFRSYM    DATA     BYTE      CLKSEL
      000000F8H   SFRSYM    DATA     BIT       SPI0CN0_SPIEN
      000000F0H   SFRSYM    DATA     BYTE      B
      000000BEH   SFRSYM    DATA     BYTE      ADC0H
      000000D2H   SFRSYM    DATA     BYTE      CRC0AUTO
      000000E8H.6 SFRSYM    DATA     BIT       ADC0CN0_ADBMEN
      000000CAH   SFRSYM    DATA     WORD      TMR2RL
      000000BDH   SFRSYM    DATA     BYTE      ADC0L
      00000092H   SFRSYM    DATA     WORD      TMR3RL
      000000D8H   SFRSYM    DATA     BYTE      PCA0CN0
      000000E0H   SFRSYM    DATA     BYTE      ACC
      000000FBH   SFRSYM    DATA     WORD      PCA0CP0
      000000E9H   SFRSYM    DATA     WORD      PCA0CP1
      000000EBH   SFRSYM    DATA     WORD      PCA0CP2
      000000CEH   SFRSYM    DATA     BYTE      CRC0CN0
      00000090H.4 SFRSYM    DATA     BIT       BSP_LED0
      0000008CH   SFRSYM    DATA     BYTE      TH0
      000000B8H.4 SFRSYM    DATA     BIT       IP_PS0
      0000008DH   SFRSYM    DATA     BYTE      TH1
      000000FAH   SFRSYM    DATA     BYTE      PCA0H
      000000B8H.1 SFRSYM    DATA     BIT       IP_PT0
      000000B8H.3 SFRSYM    DATA     BIT       IP_PT1
      000000C0H.2 SFRSYM    DATA     BIT       SMB0CN0_ARBLOST
      000000B8H.5 SFRSYM    DATA     BIT       IP_PT2
      0000008AH   SFRSYM    DATA     BYTE      TL0
      000000F8H.1 SFRSYM    DATA     BIT       SPI0CN0_TXBMT
      000000D0H.5 SFRSYM    DATA     BIT       PSW_F0
      000000A8H.6 SFRSYM    DATA     BIT       IE_ESPI0
      0000008BH   SFRSYM    DATA     BYTE      TL1
      000000F9H   SFRSYM    DATA     BYTE      PCA0L
      000000C0H   SFRSYM    DATA     BIT       SMB0CN0_SI
      000000D0H.1 SFRSYM    DATA     BIT       PSW_F1
      00000080H   SFRSYM    DATA     BIT       P0_B0
      000000B8H   SFRSYM    DATA     BIT       IP_PX0
      00000090H   SFRSYM    DATA     BIT       P1_B0
      00000080H.1 SFRSYM    DATA     BIT       P0_B1
      000000B8H.2 SFRSYM    DATA     BIT       IP_PX1
      0000009BH   SFRSYM    DATA     BYTE      CMP0CN0
      00000088H.1 SFRSYM    DATA     BIT       TCON_IE0
      000000A0H   SFRSYM    DATA     BIT       P2_B0
      00000090H.1 SFRSYM    DATA     BIT       P1_B1
      00000080H.2 SFRSYM    DATA     BIT       P0_B2
      000000BFH   SFRSYM    DATA     BYTE      CMP1CN0
      00000088H.3 SFRSYM    DATA     BIT       TCON_IE1
      000000A0H.1 SFRSYM    DATA     BIT       P2_B1
      00000090H.2 SFRSYM    DATA     BIT       P1_B2
      00000080H.3 SFRSYM    DATA     BIT       P0_B3
      000000C0H   SFRSYM    DATA     BYTE      SMB0CN0
      00000090H.3 SFRSYM    DATA     BIT       P1_B3
      00000080H.4 SFRSYM    DATA     BIT       P0_B4
      00000090H.4 SFRSYM    DATA     BIT       P1_B4
      00000080H.5 SFRSYM    DATA     BIT       P0_B5
LX51 LINKER/LOCATER V4.66.30.0                                                        01/16/2020  15:26:40  PAGE 37


      00000090H.5 SFRSYM    DATA     BIT       P1_B5
      00000080H.6 SFRSYM    DATA     BIT       P0_B6
      00000090H.6 SFRSYM    DATA     BIT       P1_B6
      00000080H.7 SFRSYM    DATA     BIT       P0_B7
      00000090H.7 SFRSYM    DATA     BIT       P1_B7
      00000080H.2 SFRSYM    DATA     BIT       BSP_BTN0
      00000083H   SFRSYM    DATA     BYTE      DPH
      000000C4H   SFRSYM    DATA     BYTE      ADC0GTH
      000000C8H.7 SFRSYM    DATA     BIT       TMR2CN0_TF2H
      000000C8H.3 SFRSYM    DATA     BIT       TMR2CN0_T2SPLIT
      000000D0H.6 SFRSYM    DATA     BIT       PSW_AC
      000000F8H   SFRSYM    DATA     BYTE      SPI0CN0
      000000C7H   SFRSYM    DATA     BYTE      HFO0CAL
      00000088H.5 SFRSYM    DATA     BIT       TCON_TF0
      00000098H   SFRSYM    DATA     BIT       SCON0_RI
      00000082H   SFRSYM    DATA     BYTE      DPL
      00000088H.7 SFRSYM    DATA     BIT       TCON_TF1
      00000099H   SFRSYM    DATA     BYTE      SBUF0
      00000087H   SFRSYM    DATA     BYTE      PCON0
      000000C3H   SFRSYM    DATA     BYTE      ADC0GTL
      000000C8H.6 SFRSYM    DATA     BIT       TMR2CN0_TF2L
      00000098H.1 SFRSYM    DATA     BIT       SCON0_TI
      000000E8H   SFRSYM    DATA     BIT       ADC0CN0_ADCM0
      000000C6H   SFRSYM    DATA     BYTE      ADC0LTH
      00000088H   SFRSYM    DATA     BIT       TCON_IT0
      000000E8H.1 SFRSYM    DATA     BIT       ADC0CN0_ADCM1
      000000EFH   SFRSYM    DATA     BYTE      RSTSRC
      000000FDH   SFRSYM    DATA     BYTE      P0MAT
      000000DEH   SFRSYM    DATA     BYTE      CRC0DAT
      00000088H.2 SFRSYM    DATA     BIT       TCON_IT1
      000000E8H.2 SFRSYM    DATA     BIT       ADC0CN0_ADCM2
      00000098H   SFRSYM    DATA     BYTE      SCON0
      000000F6H   SFRSYM    DATA     BYTE      PRTDRV
      000000EDH   SFRSYM    DATA     BYTE      P1MAT
      000000E8H.3 SFRSYM    DATA     BIT       ADC0CN0_ADWINT
      000000E8H.4 SFRSYM    DATA     BIT       ADC0CN0_ADBUSY
      000000D6H   SFRSYM    DATA     BYTE      SMB0ADM
      000000C5H   SFRSYM    DATA     BYTE      ADC0LTL
      000000F8H.5 SFRSYM    DATA     BIT       SPI0CN0_MODF
      000000B8H.6 SFRSYM    DATA     BIT       IP_PSPI0
      0000009CH   SFRSYM    DATA     BYTE      PCA0CLR
      000000C8H   SFRSYM    DATA     BYTE      TMR2CN0
      00000091H   SFRSYM    DATA     BYTE      TMR3CN0
      000000D7H   SFRSYM    DATA     BYTE      SMB0ADR
      00000088H.4 SFRSYM    DATA     BIT       TCON_TR0
      000000C8H.4 SFRSYM    DATA     BIT       TMR2CN0_TF2CEN
      00000088H.6 SFRSYM    DATA     BIT       TCON_TR1
      000000C2H   SFRSYM    DATA     BYTE      SMB0DAT
      000000CDH   SFRSYM    DATA     BYTE      TMR2H
      000000A1H   SFRSYM    DATA     BYTE      SPI0CFG
      00000095H   SFRSYM    DATA     BYTE      TMR3H
      000000D3H   SFRSYM    DATA     BYTE      CRC0CNT
      00000096H   SFRSYM    DATA     BYTE      PCA0POL
      000000CCH   SFRSYM    DATA     BYTE      TMR2L
      000000F8H.7 SFRSYM    DATA     BIT       SPI0CN0_SPIF
      00000094H   SFRSYM    DATA     BYTE      TMR3L
      000000DFH   SFRSYM    DATA     BYTE      ADC0PWR
      000000A8H.7 SFRSYM    DATA     BIT       IE_EA
      000000C8H.5 SFRSYM    DATA     BIT       TMR2CN0_TF2LEN
      000000F8H.6 SFRSYM    DATA     BIT       SPI0CN0_WCOL
      000000F8H.2 SFRSYM    DATA     BIT       SPI0CN0_NSSMD0
      000000D0H.7 SFRSYM    DATA     BIT       PSW_CY
LX51 LINKER/LOCATER V4.66.30.0                                                        01/16/2020  15:26:40  PAGE 38


      000000A3H   SFRSYM    DATA     BYTE      SPI0DAT
      000000F8H.3 SFRSYM    DATA     BIT       SPI0CN0_NSSMD1
      000000BDH   SFRSYM    DATA     WORD      ADC0
      000000D0H   SFRSYM    DATA     BYTE      PSW
      000000F7H   SFRSYM    DATA     BYTE      PCA0PWM
      000000B6H   SFRSYM    DATA     BYTE      REVID
      000000B7H   SFRSYM    DATA     BYTE      FLKEY
      000000B3H   SFRSYM    DATA     BYTE      ADC0AC
      0000001FH   SYMBOL    IDATA    BYTE      adc_index

      ---         MODULE    ---      ---       MOTOR
      0000005DH   PUBLIC    DATA     ---       SLR_minimum_duty
      00000021H.2 PUBLIC    BIT      BIT       SLW_pwm_updated
      00000021H.1 PUBLIC    BIT      BIT       SLW_rpm_updated
      02000026H   PUBLIC    XDATA    BYTE      zc_total_count
      00000059H   PUBLIC    DATA     ---       zc_time
      02000022H   PUBLIC    XDATA    WORD      SLR_motor_current
      00000058H   PUBLIC    DATA     BYTE      zc_count
      0200001DH   PUBLIC    XDATA    WORD      SLW_motor_max_rpm
      02000019H   PUBLIC    XDATA    DWORD     zc_total_per_mech_rotation
      02000018H   PUBLIC    XDATA    BYTE      SLW_current_limit
      00000021H.0 PUBLIC    BIT      BIT       speed_updated
      02000016H   PUBLIC    XDATA    WORD      SLR_motor_voltage
      02000015H   PUBLIC    XDATA    BYTE      num_poles
      00000020H.6 PUBLIC    BIT      BIT       SLR_motor_stalled
      02000014H   PUBLIC    XDATA    BYTE      SLW_oc_debounce
      00000056H   PUBLIC    DATA     WORD      SLR_pwm_duty
      00000052H   PUBLIC    DATA     ---       time_per_rotate
      02000012H   PUBLIC    XDATA    WORD      error_event_time
      02000010H   PUBLIC    XDATA    WORD      SLW_target_pwm_duty
      00000020H.5 PUBLIC    BIT      BIT       SLW_user_direction
      00000020H.4 PUBLIC    BIT      BIT       pid_flag
      00000051H   PUBLIC    DATA     BYTE      commutation_index
      00000050H   PUBLIC    DATA     BYTE      open_phase
      0000004CH   PUBLIC    DATA     ---       zc_commutate_time
      0200000FH   PUBLIC    XDATA    BYTE      pre_port1
      0200000DH   PUBLIC    XDATA    WORD      SLR_motor_current_rpm
      00000020H.3 PUBLIC    BIT      BIT       last_motor_stalled
      0000004AH   PUBLIC    DATA     WORD      SLW_target_rpm
      00000020H.2 PUBLIC    BIT      BIT       handle_motor_error
      00000046H   PUBLIC    DATA     ---       prev_zc_time
      00000069H   PUBLIC    IDATA    BYTE      SLR_motor_state
      00000044H   PUBLIC    DATA     WORD      SLR_minimum_rpm
      02000004H   PUBLIC    XDATA    BYTE      pre_p1skip
      02000003H   PUBLIC    XDATA    BYTE      pre_p0skip
      02000002H   PUBLIC    XDATA    BYTE      pid_calc_interval
      000000A2H   SFRSYM    DATA     BYTE      SPI0CKR
      00000080H   SFRSYM    DATA     BYTE      P0
      000000D0H.2 SFRSYM    DATA     BIT       PSW_OV
      00000090H   SFRSYM    DATA     BYTE      P1
      00000097H   SFRSYM    DATA     BYTE      WDTCN
      000000A0H   SFRSYM    DATA     BYTE      P2
      000000BCH   SFRSYM    DATA     BYTE      ADC0CF
      000000C8H   SFRSYM    DATA     BIT       TMR2CN0_T2XCLK
      000000C0H.7 SFRSYM    DATA     BIT       SMB0CN0_MASTER
      000000F9H   SFRSYM    DATA     WORD      PCA0
      000000E6H   SFRSYM    DATA     BYTE      EIE1
      000000C0H.1 SFRSYM    DATA     BIT       SMB0CN0_ACK
      0000008FH   SFRSYM    DATA     BYTE      PSCTL
      000000E4H   SFRSYM    DATA     BYTE      IT01CF
      000000C0H.6 SFRSYM    DATA     BIT       SMB0CN0_TXMODE
      000000ADH   SFRSYM    DATA     BYTE      DERIVID
LX51 LINKER/LOCATER V4.66.30.0                                                        01/16/2020  15:26:40  PAGE 39


      000000A4H   SFRSYM    DATA     BYTE      P0MDOUT
      000000A5H   SFRSYM    DATA     BYTE      P1MDOUT
      000000E8H.5 SFRSYM    DATA     BIT       ADC0CN0_ADINT
      000000CBH   SFRSYM    DATA     BYTE      TMR2RLH
      000000A6H   SFRSYM    DATA     BYTE      P2MDOUT
      000000A8H   SFRSYM    DATA     BYTE      IE
      00000093H   SFRSYM    DATA     BYTE      TMR3RLH
      000000F3H   SFRSYM    DATA     BYTE      EIP1
      00000098H.2 SFRSYM    DATA     BIT       SCON0_RB8
      000000CAH   SFRSYM    DATA     BYTE      TMR2RLL
      000000FCH   SFRSYM    DATA     BYTE      PCA0CPH0
      00000092H   SFRSYM    DATA     BYTE      TMR3RLL
      000000EAH   SFRSYM    DATA     BYTE      PCA0CPH1
      00000098H.3 SFRSYM    DATA     BIT       SCON0_TB8
      000000F0H   SFRSYM    DATA     BIT       B_B0
      00000082H   SFRSYM    DATA     WORD      DP
      000000ECH   SFRSYM    DATA     BYTE      PCA0CPH2
      000000F0H.1 SFRSYM    DATA     BIT       B_B1
      000000C3H   SFRSYM    DATA     WORD      ADC0GT
      000000F0H.2 SFRSYM    DATA     BIT       B_B2
      000000FBH   SFRSYM    DATA     BYTE      PCA0CPL0
      000000F0H.3 SFRSYM    DATA     BIT       B_B3
      000000D9H   SFRSYM    DATA     BYTE      PCA0MD
      000000DAH   SFRSYM    DATA     BYTE      PCA0CPM0
      000000E9H   SFRSYM    DATA     BYTE      PCA0CPL1
      000000F0H.4 SFRSYM    DATA     BIT       B_B4
      000000DBH   SFRSYM    DATA     BYTE      PCA0CPM1
      000000EBH   SFRSYM    DATA     BYTE      PCA0CPL2
      000000F0H.5 SFRSYM    DATA     BIT       B_B5
      000000DCH   SFRSYM    DATA     BYTE      PCA0CPM2
      000000B8H   SFRSYM    DATA     BYTE      IP
      000000B9H   SFRSYM    DATA     BYTE      ADC0TK
      000000F0H.6 SFRSYM    DATA     BIT       B_B6
      000000C5H   SFRSYM    DATA     WORD      ADC0LT
      00000098H.5 SFRSYM    DATA     BIT       SCON0_MCE
      000000F0H.7 SFRSYM    DATA     BIT       B_B7
      000000E1H   SFRSYM    DATA     BYTE      XBR0
      000000C1H   SFRSYM    DATA     BYTE      SMB0CF
      000000E2H   SFRSYM    DATA     BYTE      XBR1
      000000C0H.5 SFRSYM    DATA     BIT       SMB0CN0_STA
      000000E3H   SFRSYM    DATA     BYTE      XBR2
      000000BBH   SFRSYM    DATA     BYTE      ADC0MX
      000000E0H   SFRSYM    DATA     BIT       ACC_ACC0
      000000D1H   SFRSYM    DATA     BYTE      REF0CN
      0000008EH   SFRSYM    DATA     BYTE      CKCON0
      000000E0H.1 SFRSYM    DATA     BIT       ACC_ACC1
      000000C9H   SFRSYM    DATA     BYTE      REG0CN
      000000DDH   SFRSYM    DATA     BYTE      CRC0IN
      000000C8H.2 SFRSYM    DATA     BIT       TMR2CN0_TR2
      000000E0H.2 SFRSYM    DATA     BIT       ACC_ACC2
      000000E0H.3 SFRSYM    DATA     BIT       ACC_ACC3
      00000081H   SFRSYM    DATA     BYTE      SP
      0000009DH   SFRSYM    DATA     BYTE      CMP0MD
      000000E0H.4 SFRSYM    DATA     BIT       ACC_ACC4
      000000B1H   SFRSYM    DATA     BYTE      LFO0CN
      000000ABH   SFRSYM    DATA     BYTE      CMP1MD
      000000D8H   SFRSYM    DATA     BIT       PCA0CN0_CCF0
      000000E0H.5 SFRSYM    DATA     BIT       ACC_ACC5
      000000D8H.1 SFRSYM    DATA     BIT       PCA0CN0_CCF1
      000000E0H.6 SFRSYM    DATA     BIT       ACC_ACC6
      000000CCH   SFRSYM    DATA     WORD      TMR2
      000000D8H.2 SFRSYM    DATA     BIT       PCA0CN0_CCF2
LX51 LINKER/LOCATER V4.66.30.0                                                        01/16/2020  15:26:40  PAGE 40


      000000E0H.7 SFRSYM    DATA     BIT       ACC_ACC7
      00000094H   SFRSYM    DATA     WORD      TMR3
      000000C0H.3 SFRSYM    DATA     BIT       SMB0CN0_ACKRQ
      000000FFH   SFRSYM    DATA     BYTE      VDM0CN
      000000F1H   SFRSYM    DATA     BYTE      P0MDIN
      00000098H.4 SFRSYM    DATA     BIT       SCON0_REN
      000000ACH   SFRSYM    DATA     BYTE      SMB0TC
      000000F2H   SFRSYM    DATA     BYTE      P1MDIN
      000000C0H.4 SFRSYM    DATA     BIT       SMB0CN0_STO
      000000FEH   SFRSYM    DATA     BYTE      P0MASK
      000000EEH   SFRSYM    DATA     BYTE      P1MASK
      000000D0H.3 SFRSYM    DATA     BIT       PSW_RS0
      000000D8H.7 SFRSYM    DATA     BIT       PCA0CN0_CF
      0000009EH   SFRSYM    DATA     BYTE      PCA0CENT
      000000F8H.4 SFRSYM    DATA     BIT       SPI0CN0_RXOVRN
      000000D0H.4 SFRSYM    DATA     BIT       PSW_RS1
      000000E8H.7 SFRSYM    DATA     BIT       ADC0CN0_ADEN
      00000089H   SFRSYM    DATA     BYTE      TMOD
      00000088H   SFRSYM    DATA     BYTE      TCON
      000000CFH   SFRSYM    DATA     BYTE      CRC0FLIP
      000000D0H   SFRSYM    DATA     BIT       PSW_PARITY
      000000A8H.4 SFRSYM    DATA     BIT       IE_ES0
      0000009FH   SFRSYM    DATA     BYTE      CMP0MX
      000000A8H.1 SFRSYM    DATA     BIT       IE_ET0
      000000AAH   SFRSYM    DATA     BYTE      CMP1MX
      000000A8H.3 SFRSYM    DATA     BIT       IE_ET1
      000000D4H   SFRSYM    DATA     BYTE      P0SKIP
      000000A8H.5 SFRSYM    DATA     BIT       IE_ET2
      000000D5H   SFRSYM    DATA     BYTE      P1SKIP
      000000E8H   SFRSYM    DATA     BYTE      ADC0CN0
      000000A8H   SFRSYM    DATA     BIT       IE_EX0
      000000B2H   SFRSYM    DATA     BYTE      ADC0CN1
      000000D8H.6 SFRSYM    DATA     BIT       PCA0CN0_CR
      000000A8H.2 SFRSYM    DATA     BIT       IE_EX1
      00000098H.7 SFRSYM    DATA     BIT       SCON0_SMODE
      000000B5H   SFRSYM    DATA     BYTE      DEVICEID
      000000A9H   SFRSYM    DATA     BYTE      CLKSEL
      000000F8H   SFRSYM    DATA     BIT       SPI0CN0_SPIEN
      000000F0H   SFRSYM    DATA     BYTE      B
      000000BEH   SFRSYM    DATA     BYTE      ADC0H
      000000D2H   SFRSYM    DATA     BYTE      CRC0AUTO
      000000E8H.6 SFRSYM    DATA     BIT       ADC0CN0_ADBMEN
      000000CAH   SFRSYM    DATA     WORD      TMR2RL
      000000BDH   SFRSYM    DATA     BYTE      ADC0L
      00000092H   SFRSYM    DATA     WORD      TMR3RL
      000000D8H   SFRSYM    DATA     BYTE      PCA0CN0
      000000E0H   SFRSYM    DATA     BYTE      ACC
      000000FBH   SFRSYM    DATA     WORD      PCA0CP0
      000000E9H   SFRSYM    DATA     WORD      PCA0CP1
      000000EBH   SFRSYM    DATA     WORD      PCA0CP2
      000000CEH   SFRSYM    DATA     BYTE      CRC0CN0
      00000090H.4 SFRSYM    DATA     BIT       BSP_LED0
      0000008CH   SFRSYM    DATA     BYTE      TH0
      000000B8H.4 SFRSYM    DATA     BIT       IP_PS0
      0000008DH   SFRSYM    DATA     BYTE      TH1
      000000FAH   SFRSYM    DATA     BYTE      PCA0H
      000000B8H.1 SFRSYM    DATA     BIT       IP_PT0
      000000B8H.3 SFRSYM    DATA     BIT       IP_PT1
      000000C0H.2 SFRSYM    DATA     BIT       SMB0CN0_ARBLOST
      000000B8H.5 SFRSYM    DATA     BIT       IP_PT2
      0000008AH   SFRSYM    DATA     BYTE      TL0
      000000F8H.1 SFRSYM    DATA     BIT       SPI0CN0_TXBMT
LX51 LINKER/LOCATER V4.66.30.0                                                        01/16/2020  15:26:40  PAGE 41


      000000D0H.5 SFRSYM    DATA     BIT       PSW_F0
      000000A8H.6 SFRSYM    DATA     BIT       IE_ESPI0
      0000008BH   SFRSYM    DATA     BYTE      TL1
      000000F9H   SFRSYM    DATA     BYTE      PCA0L
      000000C0H   SFRSYM    DATA     BIT       SMB0CN0_SI
      000000D0H.1 SFRSYM    DATA     BIT       PSW_F1
      00000080H   SFRSYM    DATA     BIT       P0_B0
      000000B8H   SFRSYM    DATA     BIT       IP_PX0
      00000090H   SFRSYM    DATA     BIT       P1_B0
      00000080H.1 SFRSYM    DATA     BIT       P0_B1
      000000B8H.2 SFRSYM    DATA     BIT       IP_PX1
      0000009BH   SFRSYM    DATA     BYTE      CMP0CN0
      00000088H.1 SFRSYM    DATA     BIT       TCON_IE0
      000000A0H   SFRSYM    DATA     BIT       P2_B0
      00000090H.1 SFRSYM    DATA     BIT       P1_B1
      00000080H.2 SFRSYM    DATA     BIT       P0_B2
      000000BFH   SFRSYM    DATA     BYTE      CMP1CN0
      00000088H.3 SFRSYM    DATA     BIT       TCON_IE1
      000000A0H.1 SFRSYM    DATA     BIT       P2_B1
      00000090H.2 SFRSYM    DATA     BIT       P1_B2
      00000080H.3 SFRSYM    DATA     BIT       P0_B3
      000000C0H   SFRSYM    DATA     BYTE      SMB0CN0
      00000090H.3 SFRSYM    DATA     BIT       P1_B3
      00000080H.4 SFRSYM    DATA     BIT       P0_B4
      00000090H.4 SFRSYM    DATA     BIT       P1_B4
      00000080H.5 SFRSYM    DATA     BIT       P0_B5
      00000090H.5 SFRSYM    DATA     BIT       P1_B5
      00000080H.6 SFRSYM    DATA     BIT       P0_B6
      00000090H.6 SFRSYM    DATA     BIT       P1_B6
      00000080H.7 SFRSYM    DATA     BIT       P0_B7
      00000090H.7 SFRSYM    DATA     BIT       P1_B7
      00000080H.2 SFRSYM    DATA     BIT       BSP_BTN0
      00000083H   SFRSYM    DATA     BYTE      DPH
      000000C4H   SFRSYM    DATA     BYTE      ADC0GTH
      000000C8H.7 SFRSYM    DATA     BIT       TMR2CN0_TF2H
      000000C8H.3 SFRSYM    DATA     BIT       TMR2CN0_T2SPLIT
      000000D0H.6 SFRSYM    DATA     BIT       PSW_AC
      000000F8H   SFRSYM    DATA     BYTE      SPI0CN0
      000000C7H   SFRSYM    DATA     BYTE      HFO0CAL
      00000088H.5 SFRSYM    DATA     BIT       TCON_TF0
      00000098H   SFRSYM    DATA     BIT       SCON0_RI
      00000082H   SFRSYM    DATA     BYTE      DPL
      00000088H.7 SFRSYM    DATA     BIT       TCON_TF1
      00000099H   SFRSYM    DATA     BYTE      SBUF0
      00000087H   SFRSYM    DATA     BYTE      PCON0
      000000C3H   SFRSYM    DATA     BYTE      ADC0GTL
      000000C8H.6 SFRSYM    DATA     BIT       TMR2CN0_TF2L
      00000098H.1 SFRSYM    DATA     BIT       SCON0_TI
      000000E8H   SFRSYM    DATA     BIT       ADC0CN0_ADCM0
      000000C6H   SFRSYM    DATA     BYTE      ADC0LTH
      00000088H   SFRSYM    DATA     BIT       TCON_IT0
      000000E8H.1 SFRSYM    DATA     BIT       ADC0CN0_ADCM1
      000000EFH   SFRSYM    DATA     BYTE      RSTSRC
      000000FDH   SFRSYM    DATA     BYTE      P0MAT
      000000DEH   SFRSYM    DATA     BYTE      CRC0DAT
      00000088H.2 SFRSYM    DATA     BIT       TCON_IT1
      000000E8H.2 SFRSYM    DATA     BIT       ADC0CN0_ADCM2
      00000098H   SFRSYM    DATA     BYTE      SCON0
      000000F6H   SFRSYM    DATA     BYTE      PRTDRV
      000000EDH   SFRSYM    DATA     BYTE      P1MAT
      000000E8H.3 SFRSYM    DATA     BIT       ADC0CN0_ADWINT
      000000E8H.4 SFRSYM    DATA     BIT       ADC0CN0_ADBUSY
LX51 LINKER/LOCATER V4.66.30.0                                                        01/16/2020  15:26:40  PAGE 42


      000000D6H   SFRSYM    DATA     BYTE      SMB0ADM
      000000C5H   SFRSYM    DATA     BYTE      ADC0LTL
      000000F8H.5 SFRSYM    DATA     BIT       SPI0CN0_MODF
      000000B8H.6 SFRSYM    DATA     BIT       IP_PSPI0
      0000009CH   SFRSYM    DATA     BYTE      PCA0CLR
      000000C8H   SFRSYM    DATA     BYTE      TMR2CN0
      00000091H   SFRSYM    DATA     BYTE      TMR3CN0
      000000D7H   SFRSYM    DATA     BYTE      SMB0ADR
      00000088H.4 SFRSYM    DATA     BIT       TCON_TR0
      000000C8H.4 SFRSYM    DATA     BIT       TMR2CN0_TF2CEN
      00000088H.6 SFRSYM    DATA     BIT       TCON_TR1
      000000C2H   SFRSYM    DATA     BYTE      SMB0DAT
      000000CDH   SFRSYM    DATA     BYTE      TMR2H
      000000A1H   SFRSYM    DATA     BYTE      SPI0CFG
      00000095H   SFRSYM    DATA     BYTE      TMR3H
      000000D3H   SFRSYM    DATA     BYTE      CRC0CNT
      00000096H   SFRSYM    DATA     BYTE      PCA0POL
      000000CCH   SFRSYM    DATA     BYTE      TMR2L
      000000F8H.7 SFRSYM    DATA     BIT       SPI0CN0_SPIF
      00000094H   SFRSYM    DATA     BYTE      TMR3L
      000000DFH   SFRSYM    DATA     BYTE      ADC0PWR
      000000A8H.7 SFRSYM    DATA     BIT       IE_EA
      000000C8H.5 SFRSYM    DATA     BIT       TMR2CN0_TF2LEN
      000000F8H.6 SFRSYM    DATA     BIT       SPI0CN0_WCOL
      000000F8H.2 SFRSYM    DATA     BIT       SPI0CN0_NSSMD0
      000000D0H.7 SFRSYM    DATA     BIT       PSW_CY
      000000A3H   SFRSYM    DATA     BYTE      SPI0DAT
      000000F8H.3 SFRSYM    DATA     BIT       SPI0CN0_NSSMD1
      000000BDH   SFRSYM    DATA     WORD      ADC0
      000000D0H   SFRSYM    DATA     BYTE      PSW
      000000F7H   SFRSYM    DATA     BYTE      PCA0PWM
      000000B6H   SFRSYM    DATA     BYTE      REVID
      000000B7H   SFRSYM    DATA     BYTE      FLKEY
      000000B3H   SFRSYM    DATA     BYTE      ADC0AC
      00000020H.0 SYMBOL    BIT      BIT       motor_spinning
      02000005H   SYMBOL    XDATA    DWORD     accum_motor_current
      02000009H   SYMBOL    XDATA    WORD      opamp_offset
      00000020H.1 SYMBOL    BIT      BIT       rising_bemf
      0200000BH   SYMBOL    XDATA    BYTE      stall_check_count
      0200000CH   SYMBOL    XDATA    BYTE      accum_motor_current_count
      00000020H.7 SYMBOL    BIT      BIT       motor_direction
      0200001FH   SYMBOL    XDATA    BYTE      average_motor_current_adc
      02000020H   SYMBOL    XDATA    WORD      prev_I
      02000024H   SYMBOL    XDATA    WORD      prev_rpm
      00000007H   SYMBOL    DATA     BYTE      t2
      00000006H   SYMBOL    DATA     BYTE      gap
      00000042H   SYMBOL    DATA     BYTE      ovf
      00000006H   SYMBOL    DATA     WORD      xtime
      00000007H   SYMBOL    DATA     BYTE      poles
      02000000H   SYMBOL    XDATA    WORD      prev_opamp_offset
      00000043H   SYMBOL    DATA     BYTE      oc_count
      00000006H   SYMBOL    DATA     WORD      gap
      00000006H   SYMBOL    DATA     WORD      i_changes

      ---         MODULE    ---      ---       MTRPID
      00000022H.6 PUBLIC    BIT      BIT       pid_done
      000000A2H   SFRSYM    DATA     BYTE      SPI0CKR
      00000080H   SFRSYM    DATA     BYTE      P0
      000000D0H.2 SFRSYM    DATA     BIT       PSW_OV
      00000090H   SFRSYM    DATA     BYTE      P1
      00000097H   SFRSYM    DATA     BYTE      WDTCN
      000000A0H   SFRSYM    DATA     BYTE      P2
LX51 LINKER/LOCATER V4.66.30.0                                                        01/16/2020  15:26:40  PAGE 43


      000000BCH   SFRSYM    DATA     BYTE      ADC0CF
      000000C8H   SFRSYM    DATA     BIT       TMR2CN0_T2XCLK
      000000C0H.7 SFRSYM    DATA     BIT       SMB0CN0_MASTER
      000000F9H   SFRSYM    DATA     WORD      PCA0
      000000E6H   SFRSYM    DATA     BYTE      EIE1
      000000C0H.1 SFRSYM    DATA     BIT       SMB0CN0_ACK
      0000008FH   SFRSYM    DATA     BYTE      PSCTL
      000000E4H   SFRSYM    DATA     BYTE      IT01CF
      000000C0H.6 SFRSYM    DATA     BIT       SMB0CN0_TXMODE
      000000ADH   SFRSYM    DATA     BYTE      DERIVID
      000000A4H   SFRSYM    DATA     BYTE      P0MDOUT
      000000A5H   SFRSYM    DATA     BYTE      P1MDOUT
      000000E8H.5 SFRSYM    DATA     BIT       ADC0CN0_ADINT
      000000CBH   SFRSYM    DATA     BYTE      TMR2RLH
      000000A6H   SFRSYM    DATA     BYTE      P2MDOUT
      000000A8H   SFRSYM    DATA     BYTE      IE
      00000093H   SFRSYM    DATA     BYTE      TMR3RLH
      000000F3H   SFRSYM    DATA     BYTE      EIP1
      00000098H.2 SFRSYM    DATA     BIT       SCON0_RB8
      000000CAH   SFRSYM    DATA     BYTE      TMR2RLL
      000000FCH   SFRSYM    DATA     BYTE      PCA0CPH0
      00000092H   SFRSYM    DATA     BYTE      TMR3RLL
      000000EAH   SFRSYM    DATA     BYTE      PCA0CPH1
      00000098H.3 SFRSYM    DATA     BIT       SCON0_TB8
      000000F0H   SFRSYM    DATA     BIT       B_B0
      00000082H   SFRSYM    DATA     WORD      DP
      000000ECH   SFRSYM    DATA     BYTE      PCA0CPH2
      000000F0H.1 SFRSYM    DATA     BIT       B_B1
      000000C3H   SFRSYM    DATA     WORD      ADC0GT
      000000F0H.2 SFRSYM    DATA     BIT       B_B2
      000000FBH   SFRSYM    DATA     BYTE      PCA0CPL0
      000000F0H.3 SFRSYM    DATA     BIT       B_B3
      000000D9H   SFRSYM    DATA     BYTE      PCA0MD
      000000DAH   SFRSYM    DATA     BYTE      PCA0CPM0
      000000E9H   SFRSYM    DATA     BYTE      PCA0CPL1
      000000F0H.4 SFRSYM    DATA     BIT       B_B4
      000000DBH   SFRSYM    DATA     BYTE      PCA0CPM1
      000000EBH   SFRSYM    DATA     BYTE      PCA0CPL2
      000000F0H.5 SFRSYM    DATA     BIT       B_B5
      000000DCH   SFRSYM    DATA     BYTE      PCA0CPM2
      000000B8H   SFRSYM    DATA     BYTE      IP
      000000B9H   SFRSYM    DATA     BYTE      ADC0TK
      000000F0H.6 SFRSYM    DATA     BIT       B_B6
      000000C5H   SFRSYM    DATA     WORD      ADC0LT
      00000098H.5 SFRSYM    DATA     BIT       SCON0_MCE
      000000F0H.7 SFRSYM    DATA     BIT       B_B7
      000000E1H   SFRSYM    DATA     BYTE      XBR0
      000000C1H   SFRSYM    DATA     BYTE      SMB0CF
      000000E2H   SFRSYM    DATA     BYTE      XBR1
      000000C0H.5 SFRSYM    DATA     BIT       SMB0CN0_STA
      000000E3H   SFRSYM    DATA     BYTE      XBR2
      000000BBH   SFRSYM    DATA     BYTE      ADC0MX
      000000E0H   SFRSYM    DATA     BIT       ACC_ACC0
      000000D1H   SFRSYM    DATA     BYTE      REF0CN
      0000008EH   SFRSYM    DATA     BYTE      CKCON0
      000000E0H.1 SFRSYM    DATA     BIT       ACC_ACC1
      000000C9H   SFRSYM    DATA     BYTE      REG0CN
      000000DDH   SFRSYM    DATA     BYTE      CRC0IN
      000000C8H.2 SFRSYM    DATA     BIT       TMR2CN0_TR2
      000000E0H.2 SFRSYM    DATA     BIT       ACC_ACC2
      000000E0H.3 SFRSYM    DATA     BIT       ACC_ACC3
      00000081H   SFRSYM    DATA     BYTE      SP
LX51 LINKER/LOCATER V4.66.30.0                                                        01/16/2020  15:26:40  PAGE 44


      0000009DH   SFRSYM    DATA     BYTE      CMP0MD
      000000E0H.4 SFRSYM    DATA     BIT       ACC_ACC4
      000000B1H   SFRSYM    DATA     BYTE      LFO0CN
      000000ABH   SFRSYM    DATA     BYTE      CMP1MD
      000000D8H   SFRSYM    DATA     BIT       PCA0CN0_CCF0
      000000E0H.5 SFRSYM    DATA     BIT       ACC_ACC5
      000000D8H.1 SFRSYM    DATA     BIT       PCA0CN0_CCF1
      000000E0H.6 SFRSYM    DATA     BIT       ACC_ACC6
      000000CCH   SFRSYM    DATA     WORD      TMR2
      000000D8H.2 SFRSYM    DATA     BIT       PCA0CN0_CCF2
      000000E0H.7 SFRSYM    DATA     BIT       ACC_ACC7
      00000094H   SFRSYM    DATA     WORD      TMR3
      000000C0H.3 SFRSYM    DATA     BIT       SMB0CN0_ACKRQ
      000000FFH   SFRSYM    DATA     BYTE      VDM0CN
      000000F1H   SFRSYM    DATA     BYTE      P0MDIN
      00000098H.4 SFRSYM    DATA     BIT       SCON0_REN
      000000ACH   SFRSYM    DATA     BYTE      SMB0TC
      000000F2H   SFRSYM    DATA     BYTE      P1MDIN
      000000C0H.4 SFRSYM    DATA     BIT       SMB0CN0_STO
      000000FEH   SFRSYM    DATA     BYTE      P0MASK
      000000EEH   SFRSYM    DATA     BYTE      P1MASK
      000000D0H.3 SFRSYM    DATA     BIT       PSW_RS0
      000000D8H.7 SFRSYM    DATA     BIT       PCA0CN0_CF
      0000009EH   SFRSYM    DATA     BYTE      PCA0CENT
      000000F8H.4 SFRSYM    DATA     BIT       SPI0CN0_RXOVRN
      000000D0H.4 SFRSYM    DATA     BIT       PSW_RS1
      000000E8H.7 SFRSYM    DATA     BIT       ADC0CN0_ADEN
      00000089H   SFRSYM    DATA     BYTE      TMOD
      00000088H   SFRSYM    DATA     BYTE      TCON
      000000CFH   SFRSYM    DATA     BYTE      CRC0FLIP
      000000D0H   SFRSYM    DATA     BIT       PSW_PARITY
      000000A8H.4 SFRSYM    DATA     BIT       IE_ES0
      0000009FH   SFRSYM    DATA     BYTE      CMP0MX
      000000A8H.1 SFRSYM    DATA     BIT       IE_ET0
      000000AAH   SFRSYM    DATA     BYTE      CMP1MX
      000000A8H.3 SFRSYM    DATA     BIT       IE_ET1
      000000D4H   SFRSYM    DATA     BYTE      P0SKIP
      000000A8H.5 SFRSYM    DATA     BIT       IE_ET2
      000000D5H   SFRSYM    DATA     BYTE      P1SKIP
      000000E8H   SFRSYM    DATA     BYTE      ADC0CN0
      000000A8H   SFRSYM    DATA     BIT       IE_EX0
      000000B2H   SFRSYM    DATA     BYTE      ADC0CN1
      000000D8H.6 SFRSYM    DATA     BIT       PCA0CN0_CR
      000000A8H.2 SFRSYM    DATA     BIT       IE_EX1
      00000098H.7 SFRSYM    DATA     BIT       SCON0_SMODE
      000000B5H   SFRSYM    DATA     BYTE      DEVICEID
      000000A9H   SFRSYM    DATA     BYTE      CLKSEL
      000000F8H   SFRSYM    DATA     BIT       SPI0CN0_SPIEN
      000000F0H   SFRSYM    DATA     BYTE      B
      000000BEH   SFRSYM    DATA     BYTE      ADC0H
      000000D2H   SFRSYM    DATA     BYTE      CRC0AUTO
      000000E8H.6 SFRSYM    DATA     BIT       ADC0CN0_ADBMEN
      000000CAH   SFRSYM    DATA     WORD      TMR2RL
      000000BDH   SFRSYM    DATA     BYTE      ADC0L
      00000092H   SFRSYM    DATA     WORD      TMR3RL
      000000D8H   SFRSYM    DATA     BYTE      PCA0CN0
      000000E0H   SFRSYM    DATA     BYTE      ACC
      000000FBH   SFRSYM    DATA     WORD      PCA0CP0
      000000E9H   SFRSYM    DATA     WORD      PCA0CP1
      000000EBH   SFRSYM    DATA     WORD      PCA0CP2
      000000CEH   SFRSYM    DATA     BYTE      CRC0CN0
      00000090H.4 SFRSYM    DATA     BIT       BSP_LED0
LX51 LINKER/LOCATER V4.66.30.0                                                        01/16/2020  15:26:40  PAGE 45


      0000008CH   SFRSYM    DATA     BYTE      TH0
      000000B8H.4 SFRSYM    DATA     BIT       IP_PS0
      0000008DH   SFRSYM    DATA     BYTE      TH1
      000000FAH   SFRSYM    DATA     BYTE      PCA0H
      000000B8H.1 SFRSYM    DATA     BIT       IP_PT0
      000000B8H.3 SFRSYM    DATA     BIT       IP_PT1
      000000C0H.2 SFRSYM    DATA     BIT       SMB0CN0_ARBLOST
      000000B8H.5 SFRSYM    DATA     BIT       IP_PT2
      0000008AH   SFRSYM    DATA     BYTE      TL0
      000000F8H.1 SFRSYM    DATA     BIT       SPI0CN0_TXBMT
      000000D0H.5 SFRSYM    DATA     BIT       PSW_F0
      000000A8H.6 SFRSYM    DATA     BIT       IE_ESPI0
      0000008BH   SFRSYM    DATA     BYTE      TL1
      000000F9H   SFRSYM    DATA     BYTE      PCA0L
      000000C0H   SFRSYM    DATA     BIT       SMB0CN0_SI
      000000D0H.1 SFRSYM    DATA     BIT       PSW_F1
      00000080H   SFRSYM    DATA     BIT       P0_B0
      000000B8H   SFRSYM    DATA     BIT       IP_PX0
      00000090H   SFRSYM    DATA     BIT       P1_B0
      00000080H.1 SFRSYM    DATA     BIT       P0_B1
      000000B8H.2 SFRSYM    DATA     BIT       IP_PX1
      0000009BH   SFRSYM    DATA     BYTE      CMP0CN0
      00000088H.1 SFRSYM    DATA     BIT       TCON_IE0
      000000A0H   SFRSYM    DATA     BIT       P2_B0
      00000090H.1 SFRSYM    DATA     BIT       P1_B1
      00000080H.2 SFRSYM    DATA     BIT       P0_B2
      000000BFH   SFRSYM    DATA     BYTE      CMP1CN0
      00000088H.3 SFRSYM    DATA     BIT       TCON_IE1
      000000A0H.1 SFRSYM    DATA     BIT       P2_B1
      00000090H.2 SFRSYM    DATA     BIT       P1_B2
      00000080H.3 SFRSYM    DATA     BIT       P0_B3
      000000C0H   SFRSYM    DATA     BYTE      SMB0CN0
      00000090H.3 SFRSYM    DATA     BIT       P1_B3
      00000080H.4 SFRSYM    DATA     BIT       P0_B4
      00000090H.4 SFRSYM    DATA     BIT       P1_B4
      00000080H.5 SFRSYM    DATA     BIT       P0_B5
      00000090H.5 SFRSYM    DATA     BIT       P1_B5
      00000080H.6 SFRSYM    DATA     BIT       P0_B6
      00000090H.6 SFRSYM    DATA     BIT       P1_B6
      00000080H.7 SFRSYM    DATA     BIT       P0_B7
      00000090H.7 SFRSYM    DATA     BIT       P1_B7
      00000080H.2 SFRSYM    DATA     BIT       BSP_BTN0
      00000083H   SFRSYM    DATA     BYTE      DPH
      000000C4H   SFRSYM    DATA     BYTE      ADC0GTH
      000000C8H.7 SFRSYM    DATA     BIT       TMR2CN0_TF2H
      000000C8H.3 SFRSYM    DATA     BIT       TMR2CN0_T2SPLIT
      000000D0H.6 SFRSYM    DATA     BIT       PSW_AC
      000000F8H   SFRSYM    DATA     BYTE      SPI0CN0
      000000C7H   SFRSYM    DATA     BYTE      HFO0CAL
      00000088H.5 SFRSYM    DATA     BIT       TCON_TF0
      00000098H   SFRSYM    DATA     BIT       SCON0_RI
      00000082H   SFRSYM    DATA     BYTE      DPL
      00000088H.7 SFRSYM    DATA     BIT       TCON_TF1
      00000099H   SFRSYM    DATA     BYTE      SBUF0
      00000087H   SFRSYM    DATA     BYTE      PCON0
      000000C3H   SFRSYM    DATA     BYTE      ADC0GTL
      000000C8H.6 SFRSYM    DATA     BIT       TMR2CN0_TF2L
      00000098H.1 SFRSYM    DATA     BIT       SCON0_TI
      000000E8H   SFRSYM    DATA     BIT       ADC0CN0_ADCM0
      000000C6H   SFRSYM    DATA     BYTE      ADC0LTH
      00000088H   SFRSYM    DATA     BIT       TCON_IT0
      000000E8H.1 SFRSYM    DATA     BIT       ADC0CN0_ADCM1
LX51 LINKER/LOCATER V4.66.30.0                                                        01/16/2020  15:26:40  PAGE 46


      000000EFH   SFRSYM    DATA     BYTE      RSTSRC
      000000FDH   SFRSYM    DATA     BYTE      P0MAT
      000000DEH   SFRSYM    DATA     BYTE      CRC0DAT
      00000088H.2 SFRSYM    DATA     BIT       TCON_IT1
      000000E8H.2 SFRSYM    DATA     BIT       ADC0CN0_ADCM2
      00000098H   SFRSYM    DATA     BYTE      SCON0
      000000F6H   SFRSYM    DATA     BYTE      PRTDRV
      000000EDH   SFRSYM    DATA     BYTE      P1MAT
      000000E8H.3 SFRSYM    DATA     BIT       ADC0CN0_ADWINT
      000000E8H.4 SFRSYM    DATA     BIT       ADC0CN0_ADBUSY
      000000D6H   SFRSYM    DATA     BYTE      SMB0ADM
      000000C5H   SFRSYM    DATA     BYTE      ADC0LTL
      000000F8H.5 SFRSYM    DATA     BIT       SPI0CN0_MODF
      000000B8H.6 SFRSYM    DATA     BIT       IP_PSPI0
      0000009CH   SFRSYM    DATA     BYTE      PCA0CLR
      000000C8H   SFRSYM    DATA     BYTE      TMR2CN0
      00000091H   SFRSYM    DATA     BYTE      TMR3CN0
      000000D7H   SFRSYM    DATA     BYTE      SMB0ADR
      00000088H.4 SFRSYM    DATA     BIT       TCON_TR0
      000000C8H.4 SFRSYM    DATA     BIT       TMR2CN0_TF2CEN
      00000088H.6 SFRSYM    DATA     BIT       TCON_TR1
      000000C2H   SFRSYM    DATA     BYTE      SMB0DAT
      000000CDH   SFRSYM    DATA     BYTE      TMR2H
      000000A1H   SFRSYM    DATA     BYTE      SPI0CFG
      00000095H   SFRSYM    DATA     BYTE      TMR3H
      000000D3H   SFRSYM    DATA     BYTE      CRC0CNT
      00000096H   SFRSYM    DATA     BYTE      PCA0POL
      000000CCH   SFRSYM    DATA     BYTE      TMR2L
      000000F8H.7 SFRSYM    DATA     BIT       SPI0CN0_SPIF
      00000094H   SFRSYM    DATA     BYTE      TMR3L
      000000DFH   SFRSYM    DATA     BYTE      ADC0PWR
      000000A8H.7 SFRSYM    DATA     BIT       IE_EA
      000000C8H.5 SFRSYM    DATA     BIT       TMR2CN0_TF2LEN
      000000F8H.6 SFRSYM    DATA     BIT       SPI0CN0_WCOL
      000000F8H.2 SFRSYM    DATA     BIT       SPI0CN0_NSSMD0
      000000D0H.7 SFRSYM    DATA     BIT       PSW_CY
      000000A3H   SFRSYM    DATA     BYTE      SPI0DAT
      000000F8H.3 SFRSYM    DATA     BIT       SPI0CN0_NSSMD1
      000000BDH   SFRSYM    DATA     WORD      ADC0
      000000D0H   SFRSYM    DATA     BYTE      PSW
      000000F7H   SFRSYM    DATA     BYTE      PCA0PWM
      000000B6H   SFRSYM    DATA     BYTE      REVID
      000000B7H   SFRSYM    DATA     BYTE      FLKEY
      000000B3H   SFRSYM    DATA     BYTE      ADC0AC
      02000027H   SYMBOL    XDATA    ---       tmpval
      0200002BH   SYMBOL    XDATA    ---       pidth
      0000005FH   SYMBOL    DATA     WORD      newpwm
      0200002DH   SYMBOL    XDATA    WORD      Ki
      0200002FH   SYMBOL    XDATA    WORD      Kp
      00000061H   SYMBOL    DATA     WORD      lastspeed
      00000063H   SYMBOL    DATA     WORD      curspeed
      00000006H   SYMBOL    DATA     WORD      proportion
      00000004H   SYMBOL    DATA     WORD      integral

      ---         MODULE    ---      ---       PCA
      0000001CH   PUBLIC    DATA     WORD      user_timer
      000000A2H   SFRSYM    DATA     BYTE      SPI0CKR
      00000080H   SFRSYM    DATA     BYTE      P0
      000000D0H.2 SFRSYM    DATA     BIT       PSW_OV
      00000090H   SFRSYM    DATA     BYTE      P1
      00000097H   SFRSYM    DATA     BYTE      WDTCN
      000000A0H   SFRSYM    DATA     BYTE      P2
LX51 LINKER/LOCATER V4.66.30.0                                                        01/16/2020  15:26:40  PAGE 47


      000000BCH   SFRSYM    DATA     BYTE      ADC0CF
      000000C8H   SFRSYM    DATA     BIT       TMR2CN0_T2XCLK
      000000C0H.7 SFRSYM    DATA     BIT       SMB0CN0_MASTER
      000000F9H   SFRSYM    DATA     WORD      PCA0
      000000E6H   SFRSYM    DATA     BYTE      EIE1
      000000C0H.1 SFRSYM    DATA     BIT       SMB0CN0_ACK
      0000008FH   SFRSYM    DATA     BYTE      PSCTL
      000000E4H   SFRSYM    DATA     BYTE      IT01CF
      000000C0H.6 SFRSYM    DATA     BIT       SMB0CN0_TXMODE
      000000ADH   SFRSYM    DATA     BYTE      DERIVID
      000000A4H   SFRSYM    DATA     BYTE      P0MDOUT
      000000A5H   SFRSYM    DATA     BYTE      P1MDOUT
      000000E8H.5 SFRSYM    DATA     BIT       ADC0CN0_ADINT
      000000CBH   SFRSYM    DATA     BYTE      TMR2RLH
      000000A6H   SFRSYM    DATA     BYTE      P2MDOUT
      000000A8H   SFRSYM    DATA     BYTE      IE
      00000093H   SFRSYM    DATA     BYTE      TMR3RLH
      000000F3H   SFRSYM    DATA     BYTE      EIP1
      00000098H.2 SFRSYM    DATA     BIT       SCON0_RB8
      000000CAH   SFRSYM    DATA     BYTE      TMR2RLL
      000000FCH   SFRSYM    DATA     BYTE      PCA0CPH0
      00000092H   SFRSYM    DATA     BYTE      TMR3RLL
      000000EAH   SFRSYM    DATA     BYTE      PCA0CPH1
      00000098H.3 SFRSYM    DATA     BIT       SCON0_TB8
      000000F0H   SFRSYM    DATA     BIT       B_B0
      00000082H   SFRSYM    DATA     WORD      DP
      000000ECH   SFRSYM    DATA     BYTE      PCA0CPH2
      000000F0H.1 SFRSYM    DATA     BIT       B_B1
      000000C3H   SFRSYM    DATA     WORD      ADC0GT
      000000F0H.2 SFRSYM    DATA     BIT       B_B2
      000000FBH   SFRSYM    DATA     BYTE      PCA0CPL0
      000000F0H.3 SFRSYM    DATA     BIT       B_B3
      000000D9H   SFRSYM    DATA     BYTE      PCA0MD
      000000DAH   SFRSYM    DATA     BYTE      PCA0CPM0
      000000E9H   SFRSYM    DATA     BYTE      PCA0CPL1
      000000F0H.4 SFRSYM    DATA     BIT       B_B4
      000000DBH   SFRSYM    DATA     BYTE      PCA0CPM1
      000000EBH   SFRSYM    DATA     BYTE      PCA0CPL2
      000000F0H.5 SFRSYM    DATA     BIT       B_B5
      000000DCH   SFRSYM    DATA     BYTE      PCA0CPM2
      000000B8H   SFRSYM    DATA     BYTE      IP
      000000B9H   SFRSYM    DATA     BYTE      ADC0TK
      000000F0H.6 SFRSYM    DATA     BIT       B_B6
      000000C5H   SFRSYM    DATA     WORD      ADC0LT
      00000098H.5 SFRSYM    DATA     BIT       SCON0_MCE
      000000F0H.7 SFRSYM    DATA     BIT       B_B7
      000000E1H   SFRSYM    DATA     BYTE      XBR0
      000000C1H   SFRSYM    DATA     BYTE      SMB0CF
      000000E2H   SFRSYM    DATA     BYTE      XBR1
      000000C0H.5 SFRSYM    DATA     BIT       SMB0CN0_STA
      000000E3H   SFRSYM    DATA     BYTE      XBR2
      000000BBH   SFRSYM    DATA     BYTE      ADC0MX
      000000E0H   SFRSYM    DATA     BIT       ACC_ACC0
      000000D1H   SFRSYM    DATA     BYTE      REF0CN
      0000008EH   SFRSYM    DATA     BYTE      CKCON0
      000000E0H.1 SFRSYM    DATA     BIT       ACC_ACC1
      000000C9H   SFRSYM    DATA     BYTE      REG0CN
      000000DDH   SFRSYM    DATA     BYTE      CRC0IN
      000000C8H.2 SFRSYM    DATA     BIT       TMR2CN0_TR2
      000000E0H.2 SFRSYM    DATA     BIT       ACC_ACC2
      000000E0H.3 SFRSYM    DATA     BIT       ACC_ACC3
      00000081H   SFRSYM    DATA     BYTE      SP
LX51 LINKER/LOCATER V4.66.30.0                                                        01/16/2020  15:26:40  PAGE 48


      0000009DH   SFRSYM    DATA     BYTE      CMP0MD
      000000E0H.4 SFRSYM    DATA     BIT       ACC_ACC4
      000000B1H   SFRSYM    DATA     BYTE      LFO0CN
      000000ABH   SFRSYM    DATA     BYTE      CMP1MD
      000000D8H   SFRSYM    DATA     BIT       PCA0CN0_CCF0
      000000E0H.5 SFRSYM    DATA     BIT       ACC_ACC5
      000000D8H.1 SFRSYM    DATA     BIT       PCA0CN0_CCF1
      000000E0H.6 SFRSYM    DATA     BIT       ACC_ACC6
      000000CCH   SFRSYM    DATA     WORD      TMR2
      000000D8H.2 SFRSYM    DATA     BIT       PCA0CN0_CCF2
      000000E0H.7 SFRSYM    DATA     BIT       ACC_ACC7
      00000094H   SFRSYM    DATA     WORD      TMR3
      000000C0H.3 SFRSYM    DATA     BIT       SMB0CN0_ACKRQ
      000000FFH   SFRSYM    DATA     BYTE      VDM0CN
      000000F1H   SFRSYM    DATA     BYTE      P0MDIN
      00000098H.4 SFRSYM    DATA     BIT       SCON0_REN
      000000ACH   SFRSYM    DATA     BYTE      SMB0TC
      000000F2H   SFRSYM    DATA     BYTE      P1MDIN
      000000C0H.4 SFRSYM    DATA     BIT       SMB0CN0_STO
      000000FEH   SFRSYM    DATA     BYTE      P0MASK
      000000EEH   SFRSYM    DATA     BYTE      P1MASK
      000000D0H.3 SFRSYM    DATA     BIT       PSW_RS0
      000000D8H.7 SFRSYM    DATA     BIT       PCA0CN0_CF
      0000009EH   SFRSYM    DATA     BYTE      PCA0CENT
      000000F8H.4 SFRSYM    DATA     BIT       SPI0CN0_RXOVRN
      000000D0H.4 SFRSYM    DATA     BIT       PSW_RS1
      000000E8H.7 SFRSYM    DATA     BIT       ADC0CN0_ADEN
      00000089H   SFRSYM    DATA     BYTE      TMOD
      00000088H   SFRSYM    DATA     BYTE      TCON
      000000CFH   SFRSYM    DATA     BYTE      CRC0FLIP
      000000D0H   SFRSYM    DATA     BIT       PSW_PARITY
      000000A8H.4 SFRSYM    DATA     BIT       IE_ES0
      0000009FH   SFRSYM    DATA     BYTE      CMP0MX
      000000A8H.1 SFRSYM    DATA     BIT       IE_ET0
      000000AAH   SFRSYM    DATA     BYTE      CMP1MX
      000000A8H.3 SFRSYM    DATA     BIT       IE_ET1
      000000D4H   SFRSYM    DATA     BYTE      P0SKIP
      000000A8H.5 SFRSYM    DATA     BIT       IE_ET2
      000000D5H   SFRSYM    DATA     BYTE      P1SKIP
      000000E8H   SFRSYM    DATA     BYTE      ADC0CN0
      000000A8H   SFRSYM    DATA     BIT       IE_EX0
      000000B2H   SFRSYM    DATA     BYTE      ADC0CN1
      000000D8H.6 SFRSYM    DATA     BIT       PCA0CN0_CR
      000000A8H.2 SFRSYM    DATA     BIT       IE_EX1
      00000098H.7 SFRSYM    DATA     BIT       SCON0_SMODE
      000000B5H   SFRSYM    DATA     BYTE      DEVICEID
      000000A9H   SFRSYM    DATA     BYTE      CLKSEL
      000000F8H   SFRSYM    DATA     BIT       SPI0CN0_SPIEN
      000000F0H   SFRSYM    DATA     BYTE      B
      000000BEH   SFRSYM    DATA     BYTE      ADC0H
      000000D2H   SFRSYM    DATA     BYTE      CRC0AUTO
      000000E8H.6 SFRSYM    DATA     BIT       ADC0CN0_ADBMEN
      000000CAH   SFRSYM    DATA     WORD      TMR2RL
      000000BDH   SFRSYM    DATA     BYTE      ADC0L
      00000092H   SFRSYM    DATA     WORD      TMR3RL
      000000D8H   SFRSYM    DATA     BYTE      PCA0CN0
      000000E0H   SFRSYM    DATA     BYTE      ACC
      000000FBH   SFRSYM    DATA     WORD      PCA0CP0
      000000E9H   SFRSYM    DATA     WORD      PCA0CP1
      000000EBH   SFRSYM    DATA     WORD      PCA0CP2
      000000CEH   SFRSYM    DATA     BYTE      CRC0CN0
      00000090H.4 SFRSYM    DATA     BIT       BSP_LED0
LX51 LINKER/LOCATER V4.66.30.0                                                        01/16/2020  15:26:40  PAGE 49


      0000008CH   SFRSYM    DATA     BYTE      TH0
      000000B8H.4 SFRSYM    DATA     BIT       IP_PS0
      0000008DH   SFRSYM    DATA     BYTE      TH1
      000000FAH   SFRSYM    DATA     BYTE      PCA0H
      000000B8H.1 SFRSYM    DATA     BIT       IP_PT0
      000000B8H.3 SFRSYM    DATA     BIT       IP_PT1
      000000C0H.2 SFRSYM    DATA     BIT       SMB0CN0_ARBLOST
      000000B8H.5 SFRSYM    DATA     BIT       IP_PT2
      0000008AH   SFRSYM    DATA     BYTE      TL0
      000000F8H.1 SFRSYM    DATA     BIT       SPI0CN0_TXBMT
      000000D0H.5 SFRSYM    DATA     BIT       PSW_F0
      000000A8H.6 SFRSYM    DATA     BIT       IE_ESPI0
      0000008BH   SFRSYM    DATA     BYTE      TL1
      000000F9H   SFRSYM    DATA     BYTE      PCA0L
      000000C0H   SFRSYM    DATA     BIT       SMB0CN0_SI
      000000D0H.1 SFRSYM    DATA     BIT       PSW_F1
      00000080H   SFRSYM    DATA     BIT       P0_B0
      000000B8H   SFRSYM    DATA     BIT       IP_PX0
      00000090H   SFRSYM    DATA     BIT       P1_B0
      00000080H.1 SFRSYM    DATA     BIT       P0_B1
      000000B8H.2 SFRSYM    DATA     BIT       IP_PX1
      0000009BH   SFRSYM    DATA     BYTE      CMP0CN0
      00000088H.1 SFRSYM    DATA     BIT       TCON_IE0
      000000A0H   SFRSYM    DATA     BIT       P2_B0
      00000090H.1 SFRSYM    DATA     BIT       P1_B1
      00000080H.2 SFRSYM    DATA     BIT       P0_B2
      000000BFH   SFRSYM    DATA     BYTE      CMP1CN0
      00000088H.3 SFRSYM    DATA     BIT       TCON_IE1
      000000A0H.1 SFRSYM    DATA     BIT       P2_B1
      00000090H.2 SFRSYM    DATA     BIT       P1_B2
      00000080H.3 SFRSYM    DATA     BIT       P0_B3
      000000C0H   SFRSYM    DATA     BYTE      SMB0CN0
      00000090H.3 SFRSYM    DATA     BIT       P1_B3
      00000080H.4 SFRSYM    DATA     BIT       P0_B4
      00000090H.4 SFRSYM    DATA     BIT       P1_B4
      00000080H.5 SFRSYM    DATA     BIT       P0_B5
      00000090H.5 SFRSYM    DATA     BIT       P1_B5
      00000080H.6 SFRSYM    DATA     BIT       P0_B6
      00000090H.6 SFRSYM    DATA     BIT       P1_B6
      00000080H.7 SFRSYM    DATA     BIT       P0_B7
      00000090H.7 SFRSYM    DATA     BIT       P1_B7
      00000080H.2 SFRSYM    DATA     BIT       BSP_BTN0
      00000083H   SFRSYM    DATA     BYTE      DPH
      000000C4H   SFRSYM    DATA     BYTE      ADC0GTH
      000000C8H.7 SFRSYM    DATA     BIT       TMR2CN0_TF2H
      000000C8H.3 SFRSYM    DATA     BIT       TMR2CN0_T2SPLIT
      000000D0H.6 SFRSYM    DATA     BIT       PSW_AC
      000000F8H   SFRSYM    DATA     BYTE      SPI0CN0
      000000C7H   SFRSYM    DATA     BYTE      HFO0CAL
      00000088H.5 SFRSYM    DATA     BIT       TCON_TF0
      00000098H   SFRSYM    DATA     BIT       SCON0_RI
      00000082H   SFRSYM    DATA     BYTE      DPL
      00000088H.7 SFRSYM    DATA     BIT       TCON_TF1
      00000099H   SFRSYM    DATA     BYTE      SBUF0
      00000087H   SFRSYM    DATA     BYTE      PCON0
      000000C3H   SFRSYM    DATA     BYTE      ADC0GTL
      000000C8H.6 SFRSYM    DATA     BIT       TMR2CN0_TF2L
      00000098H.1 SFRSYM    DATA     BIT       SCON0_TI
      000000E8H   SFRSYM    DATA     BIT       ADC0CN0_ADCM0
      000000C6H   SFRSYM    DATA     BYTE      ADC0LTH
      00000088H   SFRSYM    DATA     BIT       TCON_IT0
      000000E8H.1 SFRSYM    DATA     BIT       ADC0CN0_ADCM1
LX51 LINKER/LOCATER V4.66.30.0                                                        01/16/2020  15:26:40  PAGE 50


      000000EFH   SFRSYM    DATA     BYTE      RSTSRC
      000000FDH   SFRSYM    DATA     BYTE      P0MAT
      000000DEH   SFRSYM    DATA     BYTE      CRC0DAT
      00000088H.2 SFRSYM    DATA     BIT       TCON_IT1
      000000E8H.2 SFRSYM    DATA     BIT       ADC0CN0_ADCM2
      00000098H   SFRSYM    DATA     BYTE      SCON0
      000000F6H   SFRSYM    DATA     BYTE      PRTDRV
      000000EDH   SFRSYM    DATA     BYTE      P1MAT
      000000E8H.3 SFRSYM    DATA     BIT       ADC0CN0_ADWINT
      000000E8H.4 SFRSYM    DATA     BIT       ADC0CN0_ADBUSY
      000000D6H   SFRSYM    DATA     BYTE      SMB0ADM
      000000C5H   SFRSYM    DATA     BYTE      ADC0LTL
      000000F8H.5 SFRSYM    DATA     BIT       SPI0CN0_MODF
      000000B8H.6 SFRSYM    DATA     BIT       IP_PSPI0
      0000009CH   SFRSYM    DATA     BYTE      PCA0CLR
      000000C8H   SFRSYM    DATA     BYTE      TMR2CN0
      00000091H   SFRSYM    DATA     BYTE      TMR3CN0
      000000D7H   SFRSYM    DATA     BYTE      SMB0ADR
      00000088H.4 SFRSYM    DATA     BIT       TCON_TR0
      000000C8H.4 SFRSYM    DATA     BIT       TMR2CN0_TF2CEN
      00000088H.6 SFRSYM    DATA     BIT       TCON_TR1
      000000C2H   SFRSYM    DATA     BYTE      SMB0DAT
      000000CDH   SFRSYM    DATA     BYTE      TMR2H
      000000A1H   SFRSYM    DATA     BYTE      SPI0CFG
      00000095H   SFRSYM    DATA     BYTE      TMR3H
      000000D3H   SFRSYM    DATA     BYTE      CRC0CNT
      00000096H   SFRSYM    DATA     BYTE      PCA0POL
      000000CCH   SFRSYM    DATA     BYTE      TMR2L
      000000F8H.7 SFRSYM    DATA     BIT       SPI0CN0_SPIF
      00000094H   SFRSYM    DATA     BYTE      TMR3L
      000000DFH   SFRSYM    DATA     BYTE      ADC0PWR
      000000A8H.7 SFRSYM    DATA     BIT       IE_EA
      000000C8H.5 SFRSYM    DATA     BIT       TMR2CN0_TF2LEN
      000000F8H.6 SFRSYM    DATA     BIT       SPI0CN0_WCOL
      000000F8H.2 SFRSYM    DATA     BIT       SPI0CN0_NSSMD0
      000000D0H.7 SFRSYM    DATA     BIT       PSW_CY
      000000A3H   SFRSYM    DATA     BYTE      SPI0DAT
      000000F8H.3 SFRSYM    DATA     BIT       SPI0CN0_NSSMD1
      000000BDH   SFRSYM    DATA     WORD      ADC0
      000000D0H   SFRSYM    DATA     BYTE      PSW
      000000F7H   SFRSYM    DATA     BYTE      PCA0PWM
      000000B6H   SFRSYM    DATA     BYTE      REVID
      000000B7H   SFRSYM    DATA     BYTE      FLKEY
      000000B3H   SFRSYM    DATA     BYTE      ADC0AC
      00000002H   SYMBOL    DATA     WORD      duty
      00000015H   SYMBOL    DATA     WORD      prev_duty
      00000017H   SYMBOL    DATA     ---       new_duty
      00000019H   SYMBOL    DATA     ---       new_cpblank_duty
      0000001BH   SYMBOL    DATA     BYTE      new_polarity
      00000004H   SYMBOL    DATA     WORD      ringing
      00000022H.7 SYMBOL    BIT      BIT       enable_during_pwmon
      00000001H   SYMBOL    DATA     BYTE      x_new_polarity

      ---         MODULE    ---      ---       TIMERS
      00000067H   PUBLIC    DATA     ---       timer0_next
      00000066H   PUBLIC    DATA     BYTE      timer0_state
      00000065H   PUBLIC    DATA     BYTE      repeated_timer0
      000000A2H   SFRSYM    DATA     BYTE      SPI0CKR
      00000080H   SFRSYM    DATA     BYTE      P0
      000000D0H.2 SFRSYM    DATA     BIT       PSW_OV
      00000090H   SFRSYM    DATA     BYTE      P1
      00000097H   SFRSYM    DATA     BYTE      WDTCN
LX51 LINKER/LOCATER V4.66.30.0                                                        01/16/2020  15:26:40  PAGE 51


      000000A0H   SFRSYM    DATA     BYTE      P2
      000000BCH   SFRSYM    DATA     BYTE      ADC0CF
      000000C8H   SFRSYM    DATA     BIT       TMR2CN0_T2XCLK
      000000C0H.7 SFRSYM    DATA     BIT       SMB0CN0_MASTER
      000000F9H   SFRSYM    DATA     WORD      PCA0
      000000E6H   SFRSYM    DATA     BYTE      EIE1
      000000C0H.1 SFRSYM    DATA     BIT       SMB0CN0_ACK
      0000008FH   SFRSYM    DATA     BYTE      PSCTL
      000000E4H   SFRSYM    DATA     BYTE      IT01CF
      000000C0H.6 SFRSYM    DATA     BIT       SMB0CN0_TXMODE
      000000ADH   SFRSYM    DATA     BYTE      DERIVID
      000000A4H   SFRSYM    DATA     BYTE      P0MDOUT
      000000A5H   SFRSYM    DATA     BYTE      P1MDOUT
      000000E8H.5 SFRSYM    DATA     BIT       ADC0CN0_ADINT
      000000CBH   SFRSYM    DATA     BYTE      TMR2RLH
      000000A6H   SFRSYM    DATA     BYTE      P2MDOUT
      000000A8H   SFRSYM    DATA     BYTE      IE
      00000093H   SFRSYM    DATA     BYTE      TMR3RLH
      000000F3H   SFRSYM    DATA     BYTE      EIP1
      00000098H.2 SFRSYM    DATA     BIT       SCON0_RB8
      000000CAH   SFRSYM    DATA     BYTE      TMR2RLL
      000000FCH   SFRSYM    DATA     BYTE      PCA0CPH0
      00000092H   SFRSYM    DATA     BYTE      TMR3RLL
      000000EAH   SFRSYM    DATA     BYTE      PCA0CPH1
      00000098H.3 SFRSYM    DATA     BIT       SCON0_TB8
      000000F0H   SFRSYM    DATA     BIT       B_B0
      00000082H   SFRSYM    DATA     WORD      DP
      000000ECH   SFRSYM    DATA     BYTE      PCA0CPH2
      000000F0H.1 SFRSYM    DATA     BIT       B_B1
      000000C3H   SFRSYM    DATA     WORD      ADC0GT
      000000F0H.2 SFRSYM    DATA     BIT       B_B2
      000000FBH   SFRSYM    DATA     BYTE      PCA0CPL0
      000000F0H.3 SFRSYM    DATA     BIT       B_B3
      000000D9H   SFRSYM    DATA     BYTE      PCA0MD
      000000DAH   SFRSYM    DATA     BYTE      PCA0CPM0
      000000E9H   SFRSYM    DATA     BYTE      PCA0CPL1
      000000F0H.4 SFRSYM    DATA     BIT       B_B4
      000000DBH   SFRSYM    DATA     BYTE      PCA0CPM1
      000000EBH   SFRSYM    DATA     BYTE      PCA0CPL2
      000000F0H.5 SFRSYM    DATA     BIT       B_B5
      000000DCH   SFRSYM    DATA     BYTE      PCA0CPM2
      000000B8H   SFRSYM    DATA     BYTE      IP
      000000B9H   SFRSYM    DATA     BYTE      ADC0TK
      000000F0H.6 SFRSYM    DATA     BIT       B_B6
      000000C5H   SFRSYM    DATA     WORD      ADC0LT
      00000098H.5 SFRSYM    DATA     BIT       SCON0_MCE
      000000F0H.7 SFRSYM    DATA     BIT       B_B7
      000000E1H   SFRSYM    DATA     BYTE      XBR0
      000000C1H   SFRSYM    DATA     BYTE      SMB0CF
      000000E2H   SFRSYM    DATA     BYTE      XBR1
      000000C0H.5 SFRSYM    DATA     BIT       SMB0CN0_STA
      000000E3H   SFRSYM    DATA     BYTE      XBR2
      000000BBH   SFRSYM    DATA     BYTE      ADC0MX
      000000E0H   SFRSYM    DATA     BIT       ACC_ACC0
      000000D1H   SFRSYM    DATA     BYTE      REF0CN
      0000008EH   SFRSYM    DATA     BYTE      CKCON0
      000000E0H.1 SFRSYM    DATA     BIT       ACC_ACC1
      000000C9H   SFRSYM    DATA     BYTE      REG0CN
      000000DDH   SFRSYM    DATA     BYTE      CRC0IN
      000000C8H.2 SFRSYM    DATA     BIT       TMR2CN0_TR2
      000000E0H.2 SFRSYM    DATA     BIT       ACC_ACC2
      000000E0H.3 SFRSYM    DATA     BIT       ACC_ACC3
LX51 LINKER/LOCATER V4.66.30.0                                                        01/16/2020  15:26:40  PAGE 52


      00000081H   SFRSYM    DATA     BYTE      SP
      0000009DH   SFRSYM    DATA     BYTE      CMP0MD
      000000E0H.4 SFRSYM    DATA     BIT       ACC_ACC4
      000000B1H   SFRSYM    DATA     BYTE      LFO0CN
      000000ABH   SFRSYM    DATA     BYTE      CMP1MD
      000000D8H   SFRSYM    DATA     BIT       PCA0CN0_CCF0
      000000E0H.5 SFRSYM    DATA     BIT       ACC_ACC5
      000000D8H.1 SFRSYM    DATA     BIT       PCA0CN0_CCF1
      000000E0H.6 SFRSYM    DATA     BIT       ACC_ACC6
      000000CCH   SFRSYM    DATA     WORD      TMR2
      000000D8H.2 SFRSYM    DATA     BIT       PCA0CN0_CCF2
      000000E0H.7 SFRSYM    DATA     BIT       ACC_ACC7
      00000094H   SFRSYM    DATA     WORD      TMR3
      000000C0H.3 SFRSYM    DATA     BIT       SMB0CN0_ACKRQ
      000000FFH   SFRSYM    DATA     BYTE      VDM0CN
      000000F1H   SFRSYM    DATA     BYTE      P0MDIN
      00000098H.4 SFRSYM    DATA     BIT       SCON0_REN
      000000ACH   SFRSYM    DATA     BYTE      SMB0TC
      000000F2H   SFRSYM    DATA     BYTE      P1MDIN
      000000C0H.4 SFRSYM    DATA     BIT       SMB0CN0_STO
      000000FEH   SFRSYM    DATA     BYTE      P0MASK
      000000EEH   SFRSYM    DATA     BYTE      P1MASK
      000000D0H.3 SFRSYM    DATA     BIT       PSW_RS0
      000000D8H.7 SFRSYM    DATA     BIT       PCA0CN0_CF
      0000009EH   SFRSYM    DATA     BYTE      PCA0CENT
      000000F8H.4 SFRSYM    DATA     BIT       SPI0CN0_RXOVRN
      000000D0H.4 SFRSYM    DATA     BIT       PSW_RS1
      000000E8H.7 SFRSYM    DATA     BIT       ADC0CN0_ADEN
      00000089H   SFRSYM    DATA     BYTE      TMOD
      00000088H   SFRSYM    DATA     BYTE      TCON
      000000CFH   SFRSYM    DATA     BYTE      CRC0FLIP
      000000D0H   SFRSYM    DATA     BIT       PSW_PARITY
      000000A8H.4 SFRSYM    DATA     BIT       IE_ES0
      0000009FH   SFRSYM    DATA     BYTE      CMP0MX
      000000A8H.1 SFRSYM    DATA     BIT       IE_ET0
      000000AAH   SFRSYM    DATA     BYTE      CMP1MX
      000000A8H.3 SFRSYM    DATA     BIT       IE_ET1
      000000D4H   SFRSYM    DATA     BYTE      P0SKIP
      000000A8H.5 SFRSYM    DATA     BIT       IE_ET2
      000000D5H   SFRSYM    DATA     BYTE      P1SKIP
      000000E8H   SFRSYM    DATA     BYTE      ADC0CN0
      000000A8H   SFRSYM    DATA     BIT       IE_EX0
      000000B2H   SFRSYM    DATA     BYTE      ADC0CN1
      000000D8H.6 SFRSYM    DATA     BIT       PCA0CN0_CR
      000000A8H.2 SFRSYM    DATA     BIT       IE_EX1
      00000098H.7 SFRSYM    DATA     BIT       SCON0_SMODE
      000000B5H   SFRSYM    DATA     BYTE      DEVICEID
      000000A9H   SFRSYM    DATA     BYTE      CLKSEL
      000000F8H   SFRSYM    DATA     BIT       SPI0CN0_SPIEN
      000000F0H   SFRSYM    DATA     BYTE      B
      000000BEH   SFRSYM    DATA     BYTE      ADC0H
      000000D2H   SFRSYM    DATA     BYTE      CRC0AUTO
      000000E8H.6 SFRSYM    DATA     BIT       ADC0CN0_ADBMEN
      000000CAH   SFRSYM    DATA     WORD      TMR2RL
      000000BDH   SFRSYM    DATA     BYTE      ADC0L
      00000092H   SFRSYM    DATA     WORD      TMR3RL
      000000D8H   SFRSYM    DATA     BYTE      PCA0CN0
      000000E0H   SFRSYM    DATA     BYTE      ACC
      000000FBH   SFRSYM    DATA     WORD      PCA0CP0
      000000E9H   SFRSYM    DATA     WORD      PCA0CP1
      000000EBH   SFRSYM    DATA     WORD      PCA0CP2
      000000CEH   SFRSYM    DATA     BYTE      CRC0CN0
LX51 LINKER/LOCATER V4.66.30.0                                                        01/16/2020  15:26:40  PAGE 53


      00000090H.4 SFRSYM    DATA     BIT       BSP_LED0
      0000008CH   SFRSYM    DATA     BYTE      TH0
      000000B8H.4 SFRSYM    DATA     BIT       IP_PS0
      0000008DH   SFRSYM    DATA     BYTE      TH1
      000000FAH   SFRSYM    DATA     BYTE      PCA0H
      000000B8H.1 SFRSYM    DATA     BIT       IP_PT0
      000000B8H.3 SFRSYM    DATA     BIT       IP_PT1
      000000C0H.2 SFRSYM    DATA     BIT       SMB0CN0_ARBLOST
      000000B8H.5 SFRSYM    DATA     BIT       IP_PT2
      0000008AH   SFRSYM    DATA     BYTE      TL0
      000000F8H.1 SFRSYM    DATA     BIT       SPI0CN0_TXBMT
      000000D0H.5 SFRSYM    DATA     BIT       PSW_F0
      000000A8H.6 SFRSYM    DATA     BIT       IE_ESPI0
      0000008BH   SFRSYM    DATA     BYTE      TL1
      000000F9H   SFRSYM    DATA     BYTE      PCA0L
      000000C0H   SFRSYM    DATA     BIT       SMB0CN0_SI
      000000D0H.1 SFRSYM    DATA     BIT       PSW_F1
      00000080H   SFRSYM    DATA     BIT       P0_B0
      000000B8H   SFRSYM    DATA     BIT       IP_PX0
      00000090H   SFRSYM    DATA     BIT       P1_B0
      00000080H.1 SFRSYM    DATA     BIT       P0_B1
      000000B8H.2 SFRSYM    DATA     BIT       IP_PX1
      0000009BH   SFRSYM    DATA     BYTE      CMP0CN0
      00000088H.1 SFRSYM    DATA     BIT       TCON_IE0
      000000A0H   SFRSYM    DATA     BIT       P2_B0
      00000090H.1 SFRSYM    DATA     BIT       P1_B1
      00000080H.2 SFRSYM    DATA     BIT       P0_B2
      000000BFH   SFRSYM    DATA     BYTE      CMP1CN0
      00000088H.3 SFRSYM    DATA     BIT       TCON_IE1
      000000A0H.1 SFRSYM    DATA     BIT       P2_B1
      00000090H.2 SFRSYM    DATA     BIT       P1_B2
      00000080H.3 SFRSYM    DATA     BIT       P0_B3
      000000C0H   SFRSYM    DATA     BYTE      SMB0CN0
      00000090H.3 SFRSYM    DATA     BIT       P1_B3
      00000080H.4 SFRSYM    DATA     BIT       P0_B4
      00000090H.4 SFRSYM    DATA     BIT       P1_B4
      00000080H.5 SFRSYM    DATA     BIT       P0_B5
      00000090H.5 SFRSYM    DATA     BIT       P1_B5
      00000080H.6 SFRSYM    DATA     BIT       P0_B6
      00000090H.6 SFRSYM    DATA     BIT       P1_B6
      00000080H.7 SFRSYM    DATA     BIT       P0_B7
      00000090H.7 SFRSYM    DATA     BIT       P1_B7
      00000080H.2 SFRSYM    DATA     BIT       BSP_BTN0
      00000083H   SFRSYM    DATA     BYTE      DPH
      000000C4H   SFRSYM    DATA     BYTE      ADC0GTH
      000000C8H.7 SFRSYM    DATA     BIT       TMR2CN0_TF2H
      000000C8H.3 SFRSYM    DATA     BIT       TMR2CN0_T2SPLIT
      000000D0H.6 SFRSYM    DATA     BIT       PSW_AC
      000000F8H   SFRSYM    DATA     BYTE      SPI0CN0
      000000C7H   SFRSYM    DATA     BYTE      HFO0CAL
      00000088H.5 SFRSYM    DATA     BIT       TCON_TF0
      00000098H   SFRSYM    DATA     BIT       SCON0_RI
      00000082H   SFRSYM    DATA     BYTE      DPL
      00000088H.7 SFRSYM    DATA     BIT       TCON_TF1
      00000099H   SFRSYM    DATA     BYTE      SBUF0
      00000087H   SFRSYM    DATA     BYTE      PCON0
      000000C3H   SFRSYM    DATA     BYTE      ADC0GTL
      000000C8H.6 SFRSYM    DATA     BIT       TMR2CN0_TF2L
      00000098H.1 SFRSYM    DATA     BIT       SCON0_TI
      000000E8H   SFRSYM    DATA     BIT       ADC0CN0_ADCM0
      000000C6H   SFRSYM    DATA     BYTE      ADC0LTH
      00000088H   SFRSYM    DATA     BIT       TCON_IT0
LX51 LINKER/LOCATER V4.66.30.0                                                        01/16/2020  15:26:40  PAGE 54


      000000E8H.1 SFRSYM    DATA     BIT       ADC0CN0_ADCM1
      000000EFH   SFRSYM    DATA     BYTE      RSTSRC
      000000FDH   SFRSYM    DATA     BYTE      P0MAT
      000000DEH   SFRSYM    DATA     BYTE      CRC0DAT
      00000088H.2 SFRSYM    DATA     BIT       TCON_IT1
      000000E8H.2 SFRSYM    DATA     BIT       ADC0CN0_ADCM2
      00000098H   SFRSYM    DATA     BYTE      SCON0
      000000F6H   SFRSYM    DATA     BYTE      PRTDRV
      000000EDH   SFRSYM    DATA     BYTE      P1MAT
      000000E8H.3 SFRSYM    DATA     BIT       ADC0CN0_ADWINT
      000000E8H.4 SFRSYM    DATA     BIT       ADC0CN0_ADBUSY
      000000D6H   SFRSYM    DATA     BYTE      SMB0ADM
      000000C5H   SFRSYM    DATA     BYTE      ADC0LTL
      000000F8H.5 SFRSYM    DATA     BIT       SPI0CN0_MODF
      000000B8H.6 SFRSYM    DATA     BIT       IP_PSPI0
      0000009CH   SFRSYM    DATA     BYTE      PCA0CLR
      000000C8H   SFRSYM    DATA     BYTE      TMR2CN0
      00000091H   SFRSYM    DATA     BYTE      TMR3CN0
      000000D7H   SFRSYM    DATA     BYTE      SMB0ADR
      00000088H.4 SFRSYM    DATA     BIT       TCON_TR0
      000000C8H.4 SFRSYM    DATA     BIT       TMR2CN0_TF2CEN
      00000088H.6 SFRSYM    DATA     BIT       TCON_TR1
      000000C2H   SFRSYM    DATA     BYTE      SMB0DAT
      000000CDH   SFRSYM    DATA     BYTE      TMR2H
      000000A1H   SFRSYM    DATA     BYTE      SPI0CFG
      00000095H   SFRSYM    DATA     BYTE      TMR3H
      000000D3H   SFRSYM    DATA     BYTE      CRC0CNT
      00000096H   SFRSYM    DATA     BYTE      PCA0POL
      000000CCH   SFRSYM    DATA     BYTE      TMR2L
      000000F8H.7 SFRSYM    DATA     BIT       SPI0CN0_SPIF
      00000094H   SFRSYM    DATA     BYTE      TMR3L
      000000DFH   SFRSYM    DATA     BYTE      ADC0PWR
      000000A8H.7 SFRSYM    DATA     BIT       IE_EA
      000000C8H.5 SFRSYM    DATA     BIT       TMR2CN0_TF2LEN
      000000F8H.6 SFRSYM    DATA     BIT       SPI0CN0_WCOL
      000000F8H.2 SFRSYM    DATA     BIT       SPI0CN0_NSSMD0
      000000D0H.7 SFRSYM    DATA     BIT       PSW_CY
      000000A3H   SFRSYM    DATA     BYTE      SPI0DAT
      000000F8H.3 SFRSYM    DATA     BIT       SPI0CN0_NSSMD1
      000000BDH   SFRSYM    DATA     WORD      ADC0
      000000D0H   SFRSYM    DATA     BYTE      PSW
      000000F7H   SFRSYM    DATA     BYTE      PCA0PWM
      000000B6H   SFRSYM    DATA     BYTE      REVID
      000000B7H   SFRSYM    DATA     BYTE      FLKEY
      000000B3H   SFRSYM    DATA     BYTE      ADC0AC
      00000007H   SYMBOL    DATA     BYTE      delay_ms

      ---         MODULE    ---      ---       ?C_INIT
      010007B3H   PUBLIC    CODE     ---       ?C_START

      ---         MODULE    ---      ---       ?C?UIDIV
      010003D2H   PUBLIC    CODE     ---       ?C?UIDIV

      ---         MODULE    ---      ---       ?C?LMUL
      01000427H   PUBLIC    CODE     ---       ?C?LMUL

      ---         MODULE    ---      ---       ?C?ULDIV
      010004B2H   PUBLIC    CODE     ---       ?C?ULDIV

      ---         MODULE    ---      ---       ?C?LNEG
      01000544H   PUBLIC    CODE     ---       ?C?LNEG

LX51 LINKER/LOCATER V4.66.30.0                                                        01/16/2020  15:26:40  PAGE 55


      ---         MODULE    ---      ---       ?C?SLCMP
      01000552H   PUBLIC    CODE     ---       ?C?SLCMP

      ---         MODULE    ---      ---       ?C?ULCMP
      01000568H   PUBLIC    CODE     ---       ?C?ULCMP

      ---         MODULE    ---      ---       ?C?ULSHR
      01000579H   PUBLIC    CODE     ---       ?C?ULSHR

      ---         MODULE    ---      ---       ?C?SLSHR
      0100058CH   PUBLIC    CODE     ---       ?C?SLSHR

      ---         MODULE    ---      ---       ?C?LSTXDATA
      010005A0H   PUBLIC    CODE     ---       ?C?LSTXDATA

      ---         MODULE    ---      ---       ?C?LSTKXDATA
      010005ACH   PUBLIC    CODE     ---       ?C?LSTKXDATA

      ---         MODULE    ---      ---       ?C?OFFXADD
      010005DDH   PUBLIC    CODE     ---       ?C?OFFXADD

      ---         MODULE    ---      ---       ?C?LIMUL
      010005E9H   PUBLIC    CODE     ---       ?C?LIMUL

      ---         MODULE    ---      ---       PRINTF
      00000027H   PUBLIC    DATA     ---       ?_PRINTF517?BYTE
      00000027H   PUBLIC    DATA     ---       ?_PRINTF?BYTE
      00000027H   PUBLIC    DATA     ---       ?_SPRINTF517?BYTE
      00000027H   PUBLIC    DATA     ---       ?_SPRINTF?BYTE
      010000D8H   PUBLIC    CODE     ---       _PRINTF
      010000D8H   PUBLIC    CODE     ---       _PRINTF517
      010000D2H   PUBLIC    CODE     ---       _SPRINTF
      010000D2H   PUBLIC    CODE     ---       _SPRINTF517

      ---         MODULE    ---      ---       ?C?CLDPTR
      01000616H   PUBLIC    CODE     ---       ?C?CLDPTR

      ---         MODULE    ---      ---       ?C?CLDOPTR
      0100062FH   PUBLIC    CODE     ---       ?C?CLDOPTR

      ---         MODULE    ---      ---       ?C?CSTPTR
      0100065CH   PUBLIC    CODE     ---       ?C?CSTPTR

      ---         MODULE    ---      ---       ?C?PLDIIDATA
      0100066EH   PUBLIC    CODE     ---       ?C?PLDIIDATA

      ---         MODULE    ---      ---       ?C?CCASE
      0100067EH   PUBLIC    CODE     ---       ?C?CCASE

      ---         MODULE    ---      ---       PUTCHAR
      010008FCH   PUBLIC    CODE     ---       _PUTCHAR

Program Size: data=107.0 xdata=55 const=0 code=2546
LX51 RUN COMPLETE.  0 WARNING(S),  0 ERROR(S)
