LX51 LINKER/LOCATER V4.66.30.0                                                          01/29/2020  13:56:08  PAGE 1


LX51 LINKER/LOCATER V4.66.30.0, INVOKED BY:
C:\SILICONLABS\SIMPLICITYSTUDIO\V4\DEVELOPER\TOOLCHAINS\KEIL_8051\9.53\BIN\LX51.EXE ./lib/efm8_assert/assert.OBJ, ./lib/
>> efm8bb1/peripheralDrivers/src/pca_0.OBJ, ./src/EFM8BB1_BLDC_PORT.OBJ, ./src/MCP_Core.OBJ, ./src/MCP_Registers.OBJ, ./
>> src/SILABS_STARTUP.OBJ, ./src/UART_Driver.OBJ, ./src/adc.OBJ, ./src/btn.OBJ, ./src/comp.OBJ, ./src/motor.OBJ, ./src/m
>> trapp.OBJ, ./src/mtrpid.OBJ, ./src/pca.OBJ, ./src/timers.OBJ TO EFM8BB1_BLDC_PORT.OMF.CRBUILD REMOVEUNUSED PRINT (.\E
>> FM8BB1_BLDC_PORT.m51) PAGEWIDTH (120) PAGELENGTH (65) CLASSES (ECODE (C:0X0-C:0X1FFE), HCONST (C:0X0-C:0X1FFE), XDATA
>>  (X:0X0-X:0XFF), HDATA (X:0X0-X:0XFF))


CPU MODE:     8051 MODE
MEMORY MODEL: SMALL


INPUT MODULES INCLUDED:
  ./lib/efm8_assert/assert.OBJ (ASSERT)
         COMMENT TYPE 0: C51 V9.53.0.0
  ./lib/efm8bb1/peripheralDrivers/src/pca_0.OBJ (PCA_0)
         COMMENT TYPE 0: C51 V9.53.0.0
  ./src/EFM8BB1_BLDC_PORT.OBJ (EFM8BB1_BLDC_PORT)
         COMMENT TYPE 0: C51 V9.53.0.0
  ./src/MCP_Core.OBJ (MCP_CORE)
         COMMENT TYPE 0: C51 V9.53.0.0
  ./src/MCP_Registers.OBJ (MCP_REGISTERS)
         COMMENT TYPE 0: C51 V9.53.0.0
  ./src/SILABS_STARTUP.OBJ (?C_STARTUP)
         COMMENT TYPE 0: AX51 V3.12.0.0
  ./src/UART_Driver.OBJ (UART_DRIVER)
         COMMENT TYPE 0: C51 V9.53.0.0
  ./src/adc.OBJ (ADC)
         COMMENT TYPE 0: C51 V9.53.0.0
  ./src/btn.OBJ (BTN)
         COMMENT TYPE 0: C51 V9.53.0.0
  ./src/comp.OBJ (COMP)
         COMMENT TYPE 0: C51 V9.53.0.0
  ./src/motor.OBJ (MOTOR)
         COMMENT TYPE 0: C51 V9.53.0.0
  ./src/mtrapp.OBJ (MTRAPP)
         COMMENT TYPE 0: C51 V9.53.0.0
  ./src/mtrpid.OBJ (MTRPID)
         COMMENT TYPE 0: C51 V9.53.0.0
  ./src/pca.OBJ (PCA)
         COMMENT TYPE 0: C51 V9.53.0.0
  ./src/timers.OBJ (TIMERS)
         COMMENT TYPE 0: C51 V9.53.0.0
  C:\SILICONLABS\SIMPLICITYSTUDIO\V4\DEVELOPER\TOOLCHAINS\KEIL_8051\9.53\LIB\C51S.LIB (?C_INIT)
         COMMENT TYPE 1: A51 / ASM51 Assembler
  C:\SILICONLABS\SIMPLICITYSTUDIO\V4\DEVELOPER\TOOLCHAINS\KEIL_8051\9.53\LIB\C51S.LIB (?C?IMUL)
         COMMENT TYPE 1: A51 / ASM51 Assembler
  C:\SILICONLABS\SIMPLICITYSTUDIO\V4\DEVELOPER\TOOLCHAINS\KEIL_8051\9.53\LIB\C51S.LIB (?C?UIDIV)
         COMMENT TYPE 1: A51 / ASM51 Assembler
  C:\SILICONLABS\SIMPLICITYSTUDIO\V4\DEVELOPER\TOOLCHAINS\KEIL_8051\9.53\LIB\C51S.LIB (?C?LMUL)
         COMMENT TYPE 1: A51 / ASM51 Assembler
  C:\SILICONLABS\SIMPLICITYSTUDIO\V4\DEVELOPER\TOOLCHAINS\KEIL_8051\9.53\LIB\C51S.LIB (?C?ULDIV)
         COMMENT TYPE 1: A51 / ASM51 Assembler
  C:\SILICONLABS\SIMPLICITYSTUDIO\V4\DEVELOPER\TOOLCHAINS\KEIL_8051\9.53\LIB\C51S.LIB (?C?LNEG)
         COMMENT TYPE 1: A51 / ASM51 Assembler
  C:\SILICONLABS\SIMPLICITYSTUDIO\V4\DEVELOPER\TOOLCHAINS\KEIL_8051\9.53\LIB\C51S.LIB (?C?SLCMP)
         COMMENT TYPE 1: A51 / ASM51 Assembler
  C:\SILICONLABS\SIMPLICITYSTUDIO\V4\DEVELOPER\TOOLCHAINS\KEIL_8051\9.53\LIB\C51S.LIB (?C?ULCMP)
         COMMENT TYPE 1: A51 / ASM51 Assembler
  C:\SILICONLABS\SIMPLICITYSTUDIO\V4\DEVELOPER\TOOLCHAINS\KEIL_8051\9.53\LIB\C51S.LIB (?C?ULSHR)
         COMMENT TYPE 1: A51 / ASM51 Assembler
  C:\SILICONLABS\SIMPLICITYSTUDIO\V4\DEVELOPER\TOOLCHAINS\KEIL_8051\9.53\LIB\C51S.LIB (?C?SLSHR)
LX51 LINKER/LOCATER V4.66.30.0                                                        01/29/2020  13:56:08  PAGE 2


         COMMENT TYPE 1: A51 / ASM51 Assembler
  C:\SILICONLABS\SIMPLICITYSTUDIO\V4\DEVELOPER\TOOLCHAINS\KEIL_8051\9.53\LIB\C51S.LIB (?C?LSTXDATA)
         COMMENT TYPE 1: A51 / ASM51 Assembler
  C:\SILICONLABS\SIMPLICITYSTUDIO\V4\DEVELOPER\TOOLCHAINS\KEIL_8051\9.53\LIB\C51S.LIB (?C?LSTKXDATA)
         COMMENT TYPE 1: A51 / ASM51 Assembler
  C:\SILICONLABS\SIMPLICITYSTUDIO\V4\DEVELOPER\TOOLCHAINS\KEIL_8051\9.53\LIB\C51S.LIB (?C?OFFXADD)
         COMMENT TYPE 1: A51 / ASM51 Assembler
  C:\SILICONLABS\SIMPLICITYSTUDIO\V4\DEVELOPER\TOOLCHAINS\KEIL_8051\9.53\LIB\C51S.LIB (?C?ICASE)
         COMMENT TYPE 1: A51 / ASM51 Assembler
  C:\SILICONLABS\SIMPLICITYSTUDIO\V4\DEVELOPER\TOOLCHAINS\KEIL_8051\9.53\LIB\C51S.LIB (?C?ICALL)
         COMMENT TYPE 1: A51 / ASM51 Assembler
  C:\SILICONLABS\SIMPLICITYSTUDIO\V4\DEVELOPER\TOOLCHAINS\KEIL_8051\9.53\LIB\C51S.LIB (?C?LIMUL)
         COMMENT TYPE 1: A51 / ASM51 Assembler


ACTIVE MEMORY CLASSES OF MODULE:  EFM8BB1_BLDC_PORT.OMF.CRBUILD (ASSERT)

BASE        START       END         USED      MEMORY CLASS
==========================================================
C:000000H   C:000000H   C:001FFEH             ECODE
B00:0000H   C:000000H   C:001FFEH             HCONST
X:000000H   X:000000H   X:0000FFH   00008FH   XDATA
X:000000H   X:000000H   X:0000FFH             HDATA
C:000000H   C:000000H   C:00FFFFH   001D50H   CODE
I:000020H.0 I:000020H.0 I:00002FH.7 000003H.0 BIT
I:000000H   I:000000H   I:00007FH   000070H   DATA
I:000000H   I:000000H   I:0000FFH   000041H   IDATA
C:000000H   C:000000H   C:00FFFFH   000033H   CONST


MEMORY MAP OF MODULE:  EFM8BB1_BLDC_PORT.OMF.CRBUILD (ASSERT)


START     STOP      LENGTH    ALIGN  RELOC    MEMORY CLASS   SEGMENT NAME
=========================================================================

* * * * * * * * * * *   D A T A   M E M O R Y   * * * * * * * * * * * * *
000000H   000007H   000008H   ---    AT..     DATA           "REG BANK 0"
000008H   000019H   000012H   BYTE   UNIT     DATA           ?DT?MCP_CORE
00001AH   00001FH   000006H   BYTE   UNIT     DATA           ?DT?MTRPID
000020H.0 000021H.2 000001H.3 BIT    UNIT     BIT            ?BI?MOTOR
000021H.3 000021H.6 000000H.4 BIT    UNIT     BIT            _BIT_GROUP_
000021H.7 000022H.1 000000H.3 BIT    UNIT     BIT            ?BI?MCP_CORE
000022H.2 000022H.4 000000H.3 BIT    UNIT     BIT            ?BI?MTRAPP
000022H.5 000022H.5 000000H.1 BIT    UNIT     BIT            ?BI?UART_DRIVER
000022H.6 000022H.6 000000H.1 BIT    UNIT     BIT            ?BI?MTRPID
000022H.7 000022H.7 000000H.1 BIT    UNIT     BIT            ?BI?PCA
000023H   000045H   000023H   BYTE   UNIT     DATA           ?DT?MOTOR
000046H   000051H   00000CH   BYTE   UNIT     DATA           ?DT?MCP_REGISTERS
000052H   00005CH   00000BH   BYTE   UNIT     DATA           ?DT?PCA
00005DH   000063H   000007H   BYTE   UNIT     DATA           _DATA_GROUP_
000064H   000068H   000005H   BYTE   UNIT     DATA           ?DT?MTRAPP
000069H   00006CH   000004H   BYTE   UNIT     DATA           ?DT?UART_DRIVER
00006DH   000070H   000004H   BYTE   UNIT     DATA           ?DT?TIMERS
000071H   000071H   000001H   BYTE   UNIT     DATA           ?DT?ADC
000072H   000072H   000001H   BYTE   UNIT     DATA           ?DT?BTN
000073H   000092H   000020H   BYTE   UNIT     IDATA          ?ID?UART_DRIVER
000093H   0000B0H   00001EH   BYTE   UNIT     IDATA          ?ID?MCP_CORE
0000B1H   0000B1H   000001H   BYTE   UNIT     IDATA          ?ID?ADC
0000B2H   0000B2H   000001H   BYTE   UNIT     IDATA          ?ID?MOTOR
0000B3H   0000B3H   000001H   BYTE   UNIT     IDATA          ?STACK

LX51 LINKER/LOCATER V4.66.30.0                                                        01/29/2020  13:56:08  PAGE 3


* * * * * * * * * * *   C O D E   M E M O R Y   * * * * * * * * * * * * *
000000H   000002H   000003H   ---    OFFS..   CODE           ?CO?SILABS_STARTUP?3
000003H   000009H   000007H   BYTE   UNIT     CODE           ?PR?SILABS_STARTUP?EFM8BB1_BLDC_PORT
00000AH   00000AH   000001H   ---    ---      **GAP**
00000BH   00000DH   000003H   BYTE   OFFS..   CODE           ?MOTOR?0000B
00000EH   000022H   000015H   BYTE   UNIT     CODE           ?PR?MCP_INIT_COMMANDBUF?MCP_CORE
000023H   000025H   000003H   BYTE   OFFS..   CODE           ?UART_DRIVER?00023
000026H   00005AH   000035H   BYTE   UNIT     CODE           ?PR?_MCP_IS_8BIT_STATUS_UPDATE_ENABLED?MCP_REGISTERS
00005BH   00005DH   000003H   BYTE   OFFS..   CODE           ?PCA?0005B
00005EH   000062H   000005H   BYTE   UNIT     CODE           ?PR?APP_RESET?EFM8BB1_BLDC_PORT
000063H   000065H   000003H   BYTE   OFFS..   CODE           ?MOTOR?00063
000066H   0002EEH   000289H   BYTE   UNIT     CODE           ?C?LIB_CODE
0002EFH   0004D1H   0001E3H   BYTE   UNIT     CODE           ?PR?MTR_PID_COMPUTE_THREAD?MTRPID
0004D2H   000662H   000191H   BYTE   UNIT     CODE           ?PR?MTR_START_SPINNING?MOTOR
000663H   0007EAH   000188H   BYTE   UNIT     CODE           ?PR?MTR_DO_QUICKSTART?MOTOR
0007EBH   00096CH   000182H   BYTE   UNIT     CODE           ?PR?MCP_PROCESS_COMMAND?MCP_CORE
00096DH   000AC4H   000158H   BYTE   UNIT     CODE           ?PR?CMP0_ISR?MOTOR
000AC5H   000C17H   000153H   BYTE   UNIT     CODE           ?PR?MTR_PROCESS_ADC?MOTOR
000C18H   000D64H   00014DH   BYTE   UNIT     CODE           ?PR?MTR_PROCESS_ERRORS?MOTOR
000D65H   000E9BH   000137H   BYTE   UNIT     CODE           ?PR?MCP_COMMAND_TASK?MCP_CORE
000E9CH   000FA7H   00010CH   BYTE   UNIT     CODE           ?PR?MTRAPP_TASK?MTRAPP
000FA8H   001087H   0000E0H   BYTE   UNIT     CODE           ?PR?MTRAPP_READ_TARGET_SPEED?MTRAPP
001088H   001143H   0000BCH   BYTE   UNIT     CODE           ?PR?TIMER0_ISR?MOTOR
001144H   0011E8H   0000A5H   BYTE   UNIT     CODE           ?PR?MCP_UPDATE_STATUS?MCP_CORE
0011E9H   00127AH   000092H   BYTE   UNIT     CODE           ?PR?_PCA_CHANGE_DUTY_CYCLE?PCA
00127BH   001309H   00008FH   BYTE   UNIT     CODE           ?C_C51STARTUP
00130AH   001397H   00008EH   BYTE   UNIT     CODE           ?PR?PCA0_ISR?PCA
001398H   00141EH   000087H   BYTE   UNIT     CODE           ?PR?MCP_STATUS_UPDATE_TASK?MCP_CORE
00141FH   00149AH   00007CH   BYTE   UNIT     CODE           ?PR?MCP_INIT_REGISTERS?MCP_REGISTERS
00149BH   00150DH   000073H   BYTE   UNIT     CODE           ?PR?_MCP_STATUS_UPDATE_REGISTER?MCP_REGISTERS
00150EH   001573H   000066H   BYTE   UNIT     CODE           ?PR?_MCP_SET_16BIT_REGISTER?MCP_REGISTERS
001574H   0015D5H   000062H   BYTE   UNIT     CODE           ?PR?MTR_CHECK_MOTOR_SPINNING?MOTOR
0015D6H   001632H   00005DH   BYTE   UNIT     CODE           ?PR?_MCP_DEC_TO_ASCNUMBUF?MCP_CORE
001633H   00168DH   00005BH   BYTE   UNIT     CODE           ?PR?MCP_RECEIVE_COMMAND?MCP_CORE
00168EH   0016E3H   000056H   BYTE   UNIT     CODE           ?PR?UART0_ISR?UART_DRIVER
0016E4H   00172BH   000048H   BYTE   UNIT     CODE           ?PR?MTR_PRE_COMMUTATION?MOTOR
00172CH   001772H   000047H   BYTE   UNIT     CODE           ?PR?MTR_CALCULATE_MOTOR_RPM?MOTOR
001773H   0017B7H   000045H   BYTE   UNIT     CODE           ?PR?MTR_COMMUTATE?MOTOR
0017B8H   0017F8H   000041H   BYTE   UNIT     CODE           ?PR?_MCP_SET_8BIT_REGISTER?MCP_REGISTERS
0017F9H   001839H   000041H   BYTE   UNIT     CODE           ?PR?SL_MTR_STOP_MOTOR?MOTOR
00183AH   001879H   000040H   BYTE   UNIT     CODE           ?PR?MTRAPP_INIT?MTRAPP
00187AH   0018B8H   00003FH   BYTE   UNIT     CODE           ?PR?ADC_TASK?ADC
0018B9H   0018F4H   00003CH   BYTE   UNIT     CODE           ?PR?_MCP_IS_16BIT_STATUS_UPDATE_ENABLED?MCP_REGISTERS
0018F5H   00192CH   000038H   BYTE   UNIT     CODE           ?PR?MTR_SAVE_ZERO_CROSSING_TIME?MOTOR
00192DH   001963H   000037H   BYTE   UNIT     CODE           ?PR?MAIN?EFM8BB1_BLDC_PORT
001964H   00199AH   000037H   BYTE   UNIT     CODE           ?PR?SL_MTR_INIT?MOTOR
00199BH   0019D1H   000037H   BYTE   UNIT     CODE           ?PR?SL_MTR_MOTOR?MOTOR
0019D2H   001A07H   000036H   BYTE   UNIT     CODE           ?PR?_MCP_HEX_TO_DEC?MCP_CORE
001A08H   001A39H   000032H   BYTE   UNIT     CODE           ?PR?MTRAPP_READ_DIRECTION?MTRAPP
001A3AH   001A68H   00002FH   BYTE   UNIT     CODE           ?PR?BTN_PROCESS?BTN
001A69H   001A96H   00002EH   BYTE   UNIT     CODE           ?PR?_UART_SEND_BYTE?UART_DRIVER
001A97H   001ABFH   000029H   BYTE   UNIT     CODE           ?PR?_UART_RECEIVE_BYTE?UART_DRIVER
001AC0H   001AE7H   000028H   BYTE   UNIT     CODE           ?PR?ADC_INITIALIZE_ADC?ADC
001AE8H   001B0FH   000028H   BYTE   UNIT     CODE           ?PR?PCA_INITIALIZE_PCA?PCA
001B10H   001B36H   000027H   BYTE   UNIT     CODE           ?PR?SL_MTR_START_MOTOR?MOTOR
001B37H   001B5DH   000027H   BYTE   UNIT     CODE           ?PR?_TMR_DELAY_TIMER3?TIMERS
001B5EH   001B83H   000026H   BYTE   UNIT     CODE           ?PR?MCP_INIT?MCP_CORE
001B84H   001BA8H   000025H   BYTE   UNIT     CODE           ?PR?PORT_SETUP?EFM8BB1_BLDC_PORT
001BA9H   001BCCH   000024H   BYTE   UNIT     CODE           ?PR?MCP_GET_REGISTER_ADDRESS?MCP_CORE
001BCDH   001BEDH   000021H   BYTE   UNIT     CODE           ?PR?IS_BTN1_PRESSED?BTN
001BEEH   001C0DH   000020H   BYTE   UNIT     CODE           ?PR?_MCP_GET_16BIT_REGISTER?MCP_REGISTERS
001C0EH   001C28H   00001BH   BYTE   UNIT     CODE           ?C_INITSEG
LX51 LINKER/LOCATER V4.66.30.0                                                        01/29/2020  13:56:08  PAGE 4


001C29H   001C42H   00001AH   BYTE   UNIT     CODE           ?PR?_MCP_SEND_ASCII_VALUE?MCP_CORE
001C43H   001C59H   000017H   BYTE   UNIT     CODE           ?PR?UART_SET_BAUD?UART_DRIVER
001C5AH   001C6FH   000016H   BYTE   UNIT     CODE           ?PR?_MCP_CHECK_ADDRESS?MCP_REGISTERS
001C70H   001C83H   000014H   BYTE   UNIT     CODE           ?PR?_SL_MTR_CHANGE_NUM_POLES?MOTOR
001C84H   001C97H   000014H   BYTE   UNIT     CODE           ?PR?MTR_PID_INIT?MTRPID
001C98H   001CAAH   000013H   BYTE   UNIT     CODE           ?PR?UART_INIT?UART_DRIVER
001CABH   001CBCH   000012H   BYTE   UNIT     CODE           ?PR?UART_GET_TX_BUFFER_FREE_BYTES?UART_DRIVER
001CBDH   001CCEH   000012H   BYTE   UNIT     CODE           ?PR?TMR_INIT_TIMER3?TIMERS
001CCFH   001CDFH   000011H   BYTE   UNIT     CODE           ?PR?_SL_MTR_CHANGE_PID_GAIN?MTRPID
001CE0H   001CF0H   000011H   BYTE   UNIT     CODE           ?PR?TMR_INIT_TIMER0?TIMERS
001CF1H   001CFFH   00000FH   BYTE   UNIT     CODE           ?PR?SL_MTR_TIME?MOTOR
001D00H   001D0DH   00000EH   BYTE   UNIT     CODE           ?PR?MTR_PID_COMPUTE_NEWPWM?MTRPID
001D0EH   001D1AH   00000DH   BYTE   UNIT     CODE           ?PR?_MCP_GET_8BIT_REGISTER?MCP_REGISTERS
001D1BH   001D27H   00000DH   BYTE   UNIT     CODE           ?PR?UART_INIT_BUFFERS?UART_DRIVER
001D28H   001D32H   00000BH   BYTE   UNIT     CODE           ?PR?COMP_INITIALIZE_COMP?COMP
001D33H   001D3CH   00000AH   BYTE   UNIT     CODE           ?PR?MTR_CALCULATE_PID?MOTOR
001D3DH   001D43H   000007H   BYTE   UNIT     CODE           ?PR?PCA_ENABLE_PWM?PCA
001D44H   001D49H   000006H   BYTE   UNIT     CODE           ?PR?MCP_TASK?MCP_CORE
001D4AH   001D4DH   000004H   BYTE   UNIT     CODE           ?PR?PCA_SET_INITIAL_POLARITY?PCA
001D4EH   001D50H   000003H   BYTE   UNIT     CODE           ?PR?_APP_TUNE_CALLBACK?EFM8BB1_BLDC_PORT
001D51H   001D7AH   00002AH   BYTE   UNIT     CONST          ?CO?MOTOR
001D7BH   001D80H   000006H   BYTE   UNIT     CONST          ?CO?MCP_REGISTERS
001D81H   001D83H   000003H   BYTE   UNIT     CONST          ?CO?ADC

* * * * * * * * * * *  X D A T A   M E M O R Y  * * * * * * * * * * * * *
000000H   00002FH   000030H   BYTE   UNIT     XDATA          ?XD?MCP_REGISTERS
000030H   000056H   000027H   BYTE   UNIT     XDATA          ?XD?MOTOR
000057H   00006CH   000016H   BYTE   UNIT     XDATA          ?XD?MCP_CORE
00006DH   000078H   00000CH   BYTE   UNIT     XDATA          _XDATA_GROUP_
000079H   000082H   00000AH   BYTE   UNIT     XDATA          ?XD?MTRPID
000083H   000088H   000006H   BYTE   UNIT     XDATA          ?XD?ADC
000089H   00008CH   000004H   BYTE   UNIT     XDATA          ?XD?MTRAPP
00008DH   00008EH   000002H   BYTE   UNIT     XDATA          ?XD?BTN

* * * * * * * * *   R E M O V E D     S E G M E N T S   * * * * * * * *
   *DEL*:           000002H   BYTE   UNIT     CODE           ?PR?SLAB_ASSERT?ASSERT
   *DEL*:           00000CH   BYTE   UNIT     CODE           ?PR?PCA0_GETINTFLAGS?PCA_0
   *DEL*:           00000DH   BYTE   UNIT     CODE           ?PR?_PCA0_CLEARINTFLAG?PCA_0
   *DEL*:           00003DH   BYTE   UNIT     CODE           ?PR?_PCA0_ENABLEINT?PCA_0
   *DEL*:           000000H.1 BIT    UNIT     BIT            ?BI?_PCA0_ENABLEINT?PCA_0
   *DEL*:           00001EH   BYTE   UNIT     CODE           ?PR?_PCA0_READCHANNEL?PCA_0
   *DEL*:           00001EH   BYTE   UNIT     CODE           ?PR?_PCA0_WRITECHANNEL?PCA_0
   *DEL*:           00000FH   BYTE   UNIT     CODE           ?PR?PCA0_READCOUNTER?PCA_0
   *DEL*:           000005H   BYTE   UNIT     CODE           ?PR?_PCA0_WRITECOUNTER?PCA_0
   *DEL*:           000003H   BYTE   UNIT     CODE           ?PR?PCA0_RUN?PCA_0
   *DEL*:           000003H   BYTE   UNIT     CODE           ?PR?PCA0_HALT?PCA_0
   *DEL*:           000008H   BYTE   UNIT     CODE           ?PR?_PCA0_INIT?PCA_0
   *DEL*:           00006FH   BYTE   UNIT     CODE           ?PR?_PCA0_INITCHANNEL?PCA_0
   *DEL*:           00001DH   BYTE   UNIT     CODE           ?PR?PCA0_RESET?PCA_0
   *DEL*:           000001H   BYTE   UNIT     DATA           ?DT?PCA0_RESET?PCA_0
   *DEL*:           000033H   BYTE   UNIT     CODE           ?PR?_PCA0_RESETCHANNEL?PCA_0
   *DEL*:           000022H   BYTE   UNIT     CODE           ?PR?_MCP_SET_8BIT_REGISTER_ISR?MCP_REGISTERS
   *DEL*:           00003BH   BYTE   UNIT     CODE           ?PR?_MCP_SET_16BIT_REGISTER_ISR?MCP_REGISTERS
   *DEL*:           00000DH   BYTE   UNIT     CODE           ?PR?_MCP_GET_8BIT_REGISTER_ISR?MCP_REGISTERS
   *DEL*:           00001AH   BYTE   UNIT     CODE           ?PR?_MCP_GET_16BIT_REGISTER_ISR?MCP_REGISTERS
   *DEL*:           000007H   BYTE   UNIT     CODE           ?PR?PCA_DISABLE_PWM?PCA



OVERLAY MAP OF MODULE:   EFM8BB1_BLDC_PORT.OMF.CRBUILD (ASSERT)


LX51 LINKER/LOCATER V4.66.30.0                                                        01/29/2020  13:56:08  PAGE 5


FUNCTION/MODULE                                BIT_GROUP   DATA_GROUP   XDATA_GROUP
--> CALLED FUNCTION/MODULE                    START  STOP  START  STOP  START  STOP
===================================================================================
?C_C51STARTUP                                 ----- -----  ----- -----  ----- -----
  +--> SILABS_STARTUP/EFM8BB1_BLDC_PORT
  +--> MAIN/EFM8BB1_BLDC_PORT
  +--> ?C_INITSEG

SILABS_STARTUP/EFM8BB1_BLDC_PORT              ----- -----  ----- -----  ----- -----

MAIN/EFM8BB1_BLDC_PORT                        ----- -----  ----- -----  ----- -----
  +--> PORT_SETUP/EFM8BB1_BLDC_PORT
  +--> UART_INIT/UART_DRIVER
  +--> ADC_INITIALIZE_ADC/ADC
  +--> _APP_TUNE_CALLBACK/EFM8BB1_BLDC_PORT
  +--> APP_RESET/EFM8BB1_BLDC_PORT
  +--> MCP_INIT/MCP_CORE
  +--> SL_MTR_INIT/MOTOR
  +--> MTRAPP_INIT/MTRAPP
  +--> ADC_TASK/ADC
  +--> BTN_PROCESS/BTN
  +--> MTRAPP_TASK/MTRAPP
  +--> MCP_TASK/MCP_CORE

PORT_SETUP/EFM8BB1_BLDC_PORT                  ----- -----  ----- -----  ----- -----

UART_INIT/UART_DRIVER                         ----- -----  ----- -----  ----- -----
  +--> UART_SET_BAUD/UART_DRIVER
  +--> UART_INIT_BUFFERS/UART_DRIVER

UART_SET_BAUD/UART_DRIVER                     ----- -----  ----- -----  ----- -----

UART_INIT_BUFFERS/UART_DRIVER                 ----- -----  ----- -----  ----- -----

ADC_INITIALIZE_ADC/ADC                        ----- -----  ----- -----  ----- -----
  +--> ?CO?ADC

?CO?ADC                                       ----- -----  ----- -----  ----- -----

_APP_TUNE_CALLBACK/EFM8BB1_BLDC_PORT          ----- -----  ----- -----  ----- -----

APP_RESET/EFM8BB1_BLDC_PORT                   ----- -----  ----- -----  ----- -----
  +--> SL_MTR_STOP_MOTOR/MOTOR

SL_MTR_STOP_MOTOR/MOTOR                       21H.4 21H.4  ----- -----  ----- -----
  +--> _PCA_CHANGE_DUTY_CYCLE/PCA

_PCA_CHANGE_DUTY_CYCLE/PCA                    21H.6 21H.6  0062H 0063H  ----- -----

MCP_INIT/MCP_CORE                             ----- -----  ----- -----  ----- -----
  +--> MCP_INIT_COMMANDBUF/MCP_CORE
  +--> MCP_INIT_REGISTERS/MCP_REGISTERS

MCP_INIT_COMMANDBUF/MCP_CORE                  ----- -----  ----- -----  ----- -----

MCP_INIT_REGISTERS/MCP_REGISTERS              ----- -----  ----- -----  ----- -----

SL_MTR_INIT/MOTOR                             ----- -----  ----- -----  ----- -----
  +--> PCA_INITIALIZE_PCA/PCA
  +--> TMR_INIT_TIMER3/TIMERS
  +--> TMR_INIT_TIMER0/TIMERS
  +--> COMP_INITIALIZE_COMP/COMP
LX51 LINKER/LOCATER V4.66.30.0                                                        01/29/2020  13:56:08  PAGE 6


  +--> PCA_ENABLE_PWM/PCA

PCA_INITIALIZE_PCA/PCA                        ----- -----  ----- -----  ----- -----

TMR_INIT_TIMER3/TIMERS                        ----- -----  ----- -----  ----- -----

TMR_INIT_TIMER0/TIMERS                        ----- -----  ----- -----  ----- -----

COMP_INITIALIZE_COMP/COMP                     ----- -----  ----- -----  ----- -----
  +--> ?CO?MOTOR

?CO?MOTOR                                     ----- -----  ----- -----  ----- -----

PCA_ENABLE_PWM/PCA                            ----- -----  ----- -----  ----- -----

MTRAPP_INIT/MTRAPP                            ----- -----  ----- -----  ----- -----
  +--> _MCP_GET_8BIT_REGISTER/MCP_REGISTERS
  +--> _MCP_GET_16BIT_REGISTER/MCP_REGISTERS

_MCP_GET_8BIT_REGISTER/MCP_REGISTERS          ----- -----  ----- -----  ----- -----

_MCP_GET_16BIT_REGISTER/MCP_REGISTERS         21H.4 21H.4  ----- -----  ----- -----

ADC_TASK/ADC                                  ----- -----  ----- -----  ----- -----
  +--> ?CO?ADC

BTN_PROCESS/BTN                               ----- -----  ----- -----  ----- -----
  +--> SL_MTR_TIME/MOTOR

SL_MTR_TIME/MOTOR                             21H.6 21H.6  ----- -----  ----- -----

MTRAPP_TASK/MTRAPP                            21H.3 21H.3  005DH 005DH  006DH 0070H
  +--> SL_MTR_MOTOR/MOTOR
  +--> IS_BTN1_PRESSED/BTN
  +--> SL_MTR_START_MOTOR/MOTOR
  +--> _MCP_SET_8BIT_REGISTER/MCP_REGISTERS
  +--> MTRAPP_READ_DIRECTION/MTRAPP
  +--> _MCP_GET_8BIT_REGISTER/MCP_REGISTERS
  +--> _MCP_GET_16BIT_REGISTER/MCP_REGISTERS
  +--> _SL_MTR_CHANGE_NUM_POLES/MOTOR
  +--> _SL_MTR_CHANGE_PID_GAIN/MTRPID
  +--> SL_MTR_STOP_MOTOR/MOTOR
  +--> SL_MTR_TIME/MOTOR
  +--> _MCP_SET_16BIT_REGISTER/MCP_REGISTERS
  +--> MTRAPP_READ_TARGET_SPEED/MTRAPP

SL_MTR_MOTOR/MOTOR                            ----- -----  ----- -----  ----- -----
  +--> MTR_PROCESS_ERRORS/MOTOR
  +--> MTR_PROCESS_ADC/MOTOR
  +--> MTR_CALCULATE_MOTOR_RPM/MOTOR
  +--> MTR_CALCULATE_PID/MOTOR

MTR_PROCESS_ERRORS/MOTOR                      ----- -----  005EH 0061H  ----- -----
  +--> SL_MTR_TIME/MOTOR
  +--> SL_MTR_STOP_MOTOR/MOTOR

MTR_PROCESS_ADC/MOTOR                         ----- -----  ----- -----  0071H 0072H

MTR_CALCULATE_MOTOR_RPM/MOTOR                 21H.4 21H.4  ----- -----  0071H 0074H

MTR_CALCULATE_PID/MOTOR                       ----- -----  ----- -----  ----- -----
  +--> MTR_PID_COMPUTE_NEWPWM/MTRPID
LX51 LINKER/LOCATER V4.66.30.0                                                        01/29/2020  13:56:08  PAGE 7


  +--> _PCA_CHANGE_DUTY_CYCLE/PCA

MTR_PID_COMPUTE_NEWPWM/MTRPID                 ----- -----  ----- -----  ----- -----
  +--> MTR_PID_COMPUTE_THREAD/MTRPID

MTR_PID_COMPUTE_THREAD/MTRPID                 ----- -----  005EH 005EH  ----- -----

IS_BTN1_PRESSED/BTN                           ----- -----  ----- -----  ----- -----
  +--> BTN_PROCESS/BTN

SL_MTR_START_MOTOR/MOTOR                      ----- -----  ----- -----  ----- -----
  +--> MTR_CHECK_MOTOR_SPINNING/MOTOR
  +--> MTR_START_SPINNING/MOTOR
  +--> MTR_DO_QUICKSTART/MOTOR

MTR_CHECK_MOTOR_SPINNING/MOTOR                21H.4 21H.5  005EH 005EH  ----- -----
  +--> SL_MTR_TIME/MOTOR

MTR_START_SPINNING/MOTOR                      21H.4 21H.4  005EH 0061H  0071H 0078H
  +--> PCA_SET_INITIAL_POLARITY/PCA
  +--> _TMR_DELAY_TIMER3/TIMERS
  +--> _PCA_CHANGE_DUTY_CYCLE/PCA
  +--> MTR_COMMUTATE/MOTOR
  +--> ?CO?MOTOR

PCA_SET_INITIAL_POLARITY/PCA                  ----- -----  ----- -----  ----- -----

_TMR_DELAY_TIMER3/TIMERS                      ----- -----  ----- -----  ----- -----

MTR_COMMUTATE/MOTOR                           ----- -----  ----- -----  ----- -----
  +--> MTR_PRE_COMMUTATION/MOTOR

MTR_PRE_COMMUTATION/MOTOR                     ----- -----  ----- -----  ----- -----
  +--> ?CO?MOTOR

MTR_DO_QUICKSTART/MOTOR                       21H.4 21H.5  005EH 0061H  ----- -----
  +--> _TMR_DELAY_TIMER3/TIMERS
  +--> MTR_SAVE_ZERO_CROSSING_TIME/MOTOR
  +--> MTR_PRE_COMMUTATION/MOTOR
  +--> _PCA_CHANGE_DUTY_CYCLE/PCA
  +--> MTR_PID_INIT/MTRPID

MTR_SAVE_ZERO_CROSSING_TIME/MOTOR             ----- -----  ----- -----  ----- -----

MTR_PID_INIT/MTRPID                           ----- -----  ----- -----  ----- -----

_MCP_SET_8BIT_REGISTER/MCP_REGISTERS          21H.4 21H.4  ----- -----  ----- -----
  +--> ?CO?MCP_REGISTERS

?CO?MCP_REGISTERS                             ----- -----  ----- -----  ----- -----

MTRAPP_READ_DIRECTION/MTRAPP                  ----- -----  ----- -----  ----- -----
  +--> _MCP_SET_8BIT_REGISTER/MCP_REGISTERS
  +--> _MCP_GET_8BIT_REGISTER/MCP_REGISTERS

_SL_MTR_CHANGE_NUM_POLES/MOTOR                ----- -----  ----- -----  ----- -----

_SL_MTR_CHANGE_PID_GAIN/MTRPID                ----- -----  ----- -----  ----- -----

_MCP_SET_16BIT_REGISTER/MCP_REGISTERS         21H.4 21H.5  0060H 0063H  ----- -----
  +--> ?CO?MCP_REGISTERS

LX51 LINKER/LOCATER V4.66.30.0                                                        01/29/2020  13:56:08  PAGE 8


MTRAPP_READ_TARGET_SPEED/MTRAPP               ----- -----  005EH 005FH  ----- -----
  +--> SL_MTR_TIME/MOTOR
  +--> _MCP_GET_16BIT_REGISTER/MCP_REGISTERS
  +--> _MCP_SET_16BIT_REGISTER/MCP_REGISTERS

MCP_TASK/MCP_CORE                             ----- -----  ----- -----  ----- -----
  +--> MCP_COMMAND_TASK/MCP_CORE
  +--> MCP_STATUS_UPDATE_TASK/MCP_CORE

MCP_COMMAND_TASK/MCP_CORE                     ----- -----  005DH 005DH  ----- -----
  +--> MCP_RECEIVE_COMMAND/MCP_CORE
  +--> MCP_PROCESS_COMMAND/MCP_CORE
  +--> UART_GET_TX_BUFFER_FREE_BYTES/UART_DRIVER
  +--> _UART_SEND_BYTE/UART_DRIVER
  +--> MCP_INIT_COMMANDBUF/MCP_CORE

MCP_RECEIVE_COMMAND/MCP_CORE                  ----- -----  ----- -----  ----- -----
  +--> _UART_RECEIVE_BYTE/UART_DRIVER

_UART_RECEIVE_BYTE/UART_DRIVER                ----- -----  ----- -----  ----- -----

MCP_PROCESS_COMMAND/MCP_CORE                  ----- -----  005EH 005EH  ----- -----
  +--> MCP_GET_REGISTER_ADDRESS/MCP_CORE
  +--> _MCP_GET_8BIT_REGISTER/MCP_REGISTERS
  +--> _MCP_SEND_ASCII_VALUE/MCP_CORE
  +--> _MCP_SET_8BIT_REGISTER/MCP_REGISTERS
  +--> _MCP_SET_16BIT_REGISTER/MCP_REGISTERS
  +--> _MCP_GET_16BIT_REGISTER/MCP_REGISTERS
  +--> _MCP_STATUS_UPDATE_REGISTER/MCP_REGISTERS

MCP_GET_REGISTER_ADDRESS/MCP_CORE             ----- -----  ----- -----  ----- -----
  +--> _MCP_HEX_TO_DEC/MCP_CORE

_MCP_HEX_TO_DEC/MCP_CORE                      ----- -----  ----- -----  ----- -----

_MCP_SEND_ASCII_VALUE/MCP_CORE                ----- -----  ----- -----  ----- -----
  +--> _MCP_DEC_TO_ASCNUMBUF/MCP_CORE

_MCP_DEC_TO_ASCNUMBUF/MCP_CORE                ----- -----  005FH 0063H  ----- -----

_MCP_STATUS_UPDATE_REGISTER/MCP_REGISTER+     21H.3 21H.3  005FH 005FH  ----- -----
... S
  +--> _MCP_CHECK_ADDRESS/MCP_REGISTERS

_MCP_CHECK_ADDRESS/MCP_REGISTERS              ----- -----  ----- -----  ----- -----

UART_GET_TX_BUFFER_FREE_BYTES/UART_DRIVE+     ----- -----  ----- -----  ----- -----
... R

_UART_SEND_BYTE/UART_DRIVER                   ----- -----  ----- -----  ----- -----

MCP_STATUS_UPDATE_TASK/MCP_CORE               ----- -----  005DH 005DH  ----- -----
  +--> MCP_UPDATE_STATUS/MCP_CORE
  +--> UART_GET_TX_BUFFER_FREE_BYTES/UART_DRIVER
  +--> _UART_SEND_BYTE/UART_DRIVER

MCP_UPDATE_STATUS/MCP_CORE                    ----- -----  ----- -----  ----- -----
  +--> _MCP_IS_8BIT_STATUS_UPDATE_ENABLED/MCP_REGISTERS
  +--> _MCP_GET_8BIT_REGISTER/MCP_REGISTERS
  +--> _MCP_IS_16BIT_STATUS_UPDATE_ENABLED/MCP_REGISTERS
  +--> _MCP_GET_16BIT_REGISTER/MCP_REGISTERS

LX51 LINKER/LOCATER V4.66.30.0                                                        01/29/2020  13:56:08  PAGE 9


_MCP_IS_8BIT_STATUS_UPDATE_ENABLED/MCP_R+     ----- -----  ----- -----  ----- -----
... EGISTERS

_MCP_IS_16BIT_STATUS_UPDATE_ENABLED/MCP_+     ----- -----  ----- -----  ----- -----
... REGISTERS

?C_INITSEG                                    ----- -----  ----- -----  ----- -----

*** NEW ROOT ********************************

UART0_ISR/UART_DRIVER                         ----- -----  ----- -----  ----- -----

*** NEW ROOT ********************************

CMP0_ISR/MOTOR                                ----- -----  ----- -----  ----- -----
  +--> MTR_SAVE_ZERO_CROSSING_TIME/MOTOR
  +--> MTR_PRE_COMMUTATION/MOTOR

*** NEW ROOT ********************************

TIMER0_ISR/MOTOR                              ----- -----  ----- -----  ----- -----
  +--> MTR_COMMUTATE/MOTOR
  +--> ?CO?MOTOR

*** NEW ROOT ********************************

PCA0_ISR/PCA                                  ----- -----  ----- -----  ----- -----



PUBLIC SYMBOLS OF MODULE:  EFM8BB1_BLDC_PORT.OMF.CRBUILD (ASSERT)


      VALUE       CLASS    TYPE      PUBLIC SYMBOL NAME
      =================================================
      00000021H.4 BIT      BIT       ?_MCP_set_16bit_register?BIT
      00000021H.4 BIT      BIT       ?_MCP_set_8bit_register?BIT
      00000021H.3 BIT      BIT       ?_MCP_status_update_register?BIT
*DEL*:00000000H.0 BIT      BIT       ?_PCA0_enableInt?BIT
      00000000H   NUMBER   ---       ?C?CODESEG
      010002BCH   CODE     ---       ?C?ICALL
      010002C0H   CODE     ---       ?C?ICALL2
      0100028FH   CODE     ---       ?C?ICASE
      01000066H   CODE     ---       ?C?IMUL
      010002C2H   CODE     ---       ?C?LIMUL
      010000CDH   CODE     ---       ?C?LMUL
      010001EAH   CODE     ---       ?C?LNEG
      01000252H   CODE     ---       ?C?LSTKXDATA
      01000246H   CODE     ---       ?C?LSTXDATA
      01000283H   CODE     ---       ?C?OFFXADD
      010001F8H   CODE     ---       ?C?SLCMP
      01000232H   CODE     ---       ?C?SLSHR
      01000078H   CODE     ---       ?C?UIDIV
      0100020EH   CODE     ---       ?C?ULCMP
      01000158H   CODE     ---       ?C?ULDIV
      0100021FH   CODE     ---       ?C?ULSHR
      00000000H   NUMBER   ---       ?C?XDATASEG
      010012C5H   CODE     ---       ?C_START
      01000000H   CODE     NEAR LAB  ?C_STARTUP
      01001BEEH   CODE     ---       _MCP_get_16bit_register
*DEL*:00000000H   CODE     ---       _MCP_get_16bit_register_isr
      01001D0EH   CODE     ---       _MCP_get_8bit_register
LX51 LINKER/LOCATER V4.66.30.0                                                        01/29/2020  13:56:08  PAGE 10


*DEL*:00000000H   CODE     ---       _MCP_get_8bit_register_isr
      010018B9H   CODE     ---       _MCP_is_16bit_status_update_enabled
      01000026H   CODE     ---       _MCP_is_8bit_status_update_enabled
      0100150EH   CODE     ---       _MCP_set_16bit_register
*DEL*:00000000H   CODE     ---       _MCP_set_16bit_register_isr
      010017B8H   CODE     ---       _MCP_set_8bit_register
*DEL*:00000000H   CODE     ---       _MCP_set_8bit_register_isr
      0100149BH   CODE     ---       _MCP_status_update_register
      00000008H   DATA     ---       _MCP_tune_callback
*DEL*:00000000H   CODE     ---       _PCA0_clearIntFlag
*DEL*:00000000H   CODE     ---       _PCA0_enableInt
*DEL*:00000000H   CODE     ---       _PCA0_init
*DEL*:00000000H   CODE     ---       _PCA0_initChannel
*DEL*:00000000H   CODE     ---       _PCA0_readChannel
*DEL*:00000000H   CODE     ---       _PCA0_resetChannel
*DEL*:00000000H   CODE     ---       _PCA0_writeChannel
*DEL*:00000000H   CODE     ---       _PCA0_writeCounter
      010011E9H   CODE     ---       _PCA_change_duty_cycle
      01001C70H   CODE     ---       _SL_MTR_change_num_poles
      01001CCFH   CODE     ---       _SL_MTR_change_pid_gain
      01001B37H   CODE     ---       _TMR_delay_timer3
      01001A97H   CODE     ---       _UART_receive_byte
      01001A69H   CODE     ---       _UART_send_byte
*SFR* 000000E0H   DATA     BYTE      ACC
*SFR* 000000E0H   DATA     BIT       ACC_ACC0
*SFR* 000000E0H.1 DATA     BIT       ACC_ACC1
*SFR* 000000E0H.2 DATA     BIT       ACC_ACC2
*SFR* 000000E0H.3 DATA     BIT       ACC_ACC3
*SFR* 000000E0H.4 DATA     BIT       ACC_ACC4
*SFR* 000000E0H.5 DATA     BIT       ACC_ACC5
*SFR* 000000E0H.6 DATA     BIT       ACC_ACC6
*SFR* 000000E0H.7 DATA     BIT       ACC_ACC7
      01001D75H   CONST    ---       active_gpio
*SFR* 000000BDH   DATA     WORD      ADC0
*SFR* 000000B3H   DATA     BYTE      ADC0AC
*SFR* 000000BCH   DATA     BYTE      ADC0CF
*SFR* 000000E8H   DATA     BYTE      ADC0CN0
*SFR* 000000E8H.6 DATA     BIT       ADC0CN0_ADBMEN
*SFR* 000000E8H.4 DATA     BIT       ADC0CN0_ADBUSY
*SFR* 000000E8H   DATA     BIT       ADC0CN0_ADCM0
*SFR* 000000E8H.1 DATA     BIT       ADC0CN0_ADCM1
*SFR* 000000E8H.2 DATA     BIT       ADC0CN0_ADCM2
*SFR* 000000E8H.7 DATA     BIT       ADC0CN0_ADEN
*SFR* 000000E8H.5 DATA     BIT       ADC0CN0_ADINT
*SFR* 000000E8H.3 DATA     BIT       ADC0CN0_ADWINT
*SFR* 000000B2H   DATA     BYTE      ADC0CN1
*SFR* 000000C3H   DATA     WORD      ADC0GT
*SFR* 000000C4H   DATA     BYTE      ADC0GTH
*SFR* 000000C3H   DATA     BYTE      ADC0GTL
*SFR* 000000BEH   DATA     BYTE      ADC0H
*SFR* 000000BDH   DATA     BYTE      ADC0L
*SFR* 000000C5H   DATA     WORD      ADC0LT
*SFR* 000000C6H   DATA     BYTE      ADC0LTH
*SFR* 000000C5H   DATA     BYTE      ADC0LTL
*SFR* 000000BBH   DATA     BYTE      ADC0MX
*SFR* 000000DFH   DATA     BYTE      ADC0PWR
*SFR* 000000B9H   DATA     BYTE      ADC0TK
      00000071H   DATA     BYTE      adc_flags
      01001AC0H   CODE     ---       ADC_initialize_adc
      01001D81H   CONST    ---       adc_mux
      02000083H   XDATA    ---       adc_result
      0100187AH   CODE     ---       ADC_task
LX51 LINKER/LOCATER V4.66.30.0                                                        01/29/2020  13:56:08  PAGE 11


*SFR* 000000F0H   DATA     BYTE      B
*SFR* 000000F0H   DATA     BIT       B_B0
*SFR* 000000F0H.1 DATA     BIT       B_B1
*SFR* 000000F0H.2 DATA     BIT       B_B2
*SFR* 000000F0H.3 DATA     BIT       B_B3
*SFR* 000000F0H.4 DATA     BIT       B_B4
*SFR* 000000F0H.5 DATA     BIT       B_B5
*SFR* 000000F0H.6 DATA     BIT       B_B6
*SFR* 000000F0H.7 DATA     BIT       B_B7
*SFR* 00000080H.2 DATA     BIT       BSP_BTN0
*SFR* 00000090H.4 DATA     BIT       BSP_LED0
*SFR* 000000A0H.1 DATA     BIT       BTN0
*SFR* 00000090H.1 DATA     BIT       BTN1
      01001A3AH   CODE     ---       btn_process
      00000072H   DATA     BYTE      btn_released_time
*SFR* 0000008EH   DATA     BYTE      CKCON0
*SFR* 000000A9H   DATA     BYTE      CLKSEL
      0100096DH   CODE     ---       CMP0_ISR
*SFR* 0000009BH   DATA     BYTE      CMP0CN0
*SFR* 0000009DH   DATA     BYTE      CMP0MD
*SFR* 0000009FH   DATA     BYTE      CMP0MX
*SFR* 000000BFH   DATA     BYTE      CMP1CN0
*SFR* 000000ABH   DATA     BYTE      CMP1MD
*SFR* 000000AAH   DATA     BYTE      CMP1MX
      00000038H   DATA     BYTE      commutation_index
      01001D28H   CODE     ---       COMP_initialize_comp
      01001D57H   CONST    ---       compMux
*SFR* 000000D2H   DATA     BYTE      CRC0AUTO
*SFR* 000000CEH   DATA     BYTE      CRC0CN0
*SFR* 000000D3H   DATA     BYTE      CRC0CNT
*SFR* 000000DEH   DATA     BYTE      CRC0DAT
*SFR* 000000CFH   DATA     BYTE      CRC0FLIP
*SFR* 000000DDH   DATA     BYTE      CRC0IN
*SFR* 000000ADH   DATA     BYTE      DERIVID
*SFR* 000000B5H   DATA     BYTE      DEVICEID
*SFR* 00000082H   DATA     WORD      DP
*SFR* 00000083H   DATA     BYTE      DPH
*SFR* 00000082H   DATA     BYTE      DPL
*SFR* 000000E6H   DATA     BYTE      EIE1
*SFR* 000000F3H   DATA     BYTE      EIP1
      02000042H   XDATA    WORD      error_event_time
*SFR* 000000B7H   DATA     BYTE      FLKEY
      01001D6FH   CONST    ---       freeterminal
      00000020H.2 BIT      BIT       handle_motor_error
*SFR* 000000C7H   DATA     BYTE      HFO0CAL
*SFR* 000000A8H   DATA     BYTE      IE
*SFR* 000000A8H.7 DATA     BIT       IE_EA
*SFR* 000000A8H.4 DATA     BIT       IE_ES0
*SFR* 000000A8H.6 DATA     BIT       IE_ESPI0
*SFR* 000000A8H.1 DATA     BIT       IE_ET0
*SFR* 000000A8H.3 DATA     BIT       IE_ET1
*SFR* 000000A8H.5 DATA     BIT       IE_ET2
*SFR* 000000A8H   DATA     BIT       IE_EX0
*SFR* 000000A8H.2 DATA     BIT       IE_EX1
*SFR* 000000B8H   DATA     BYTE      IP
*SFR* 000000B8H.4 DATA     BIT       IP_PS0
*SFR* 000000B8H.6 DATA     BIT       IP_PSPI0
*SFR* 000000B8H.1 DATA     BIT       IP_PT0
*SFR* 000000B8H.3 DATA     BIT       IP_PT1
*SFR* 000000B8H.5 DATA     BIT       IP_PT2
*SFR* 000000B8H   DATA     BIT       IP_PX0
*SFR* 000000B8H.2 DATA     BIT       IP_PX1
LX51 LINKER/LOCATER V4.66.30.0                                                        01/29/2020  13:56:08  PAGE 12


      01001BCDH   CODE     ---       is_btn1_pressed
*SFR* 000000E4H   DATA     BYTE      IT01CF
      00000020H.3 BIT      BIT       last_motor_stalled
*SFR* 000000B1H   DATA     BYTE      LFO0CN
      0100192DH   CODE     ---       main
      02000057H   XDATA    ---       mcp
      02000000H   XDATA    ---       MCP_16_bit_registers
      02000020H   XDATA    ---       MCP_8_bit_registers
      01001B5EH   CODE     ---       MCP_init
      0100141FH   CODE     ---       MCP_init_registers
      01001D7DH   CONST    ---       MCP_reg16_access_type
      00000048H   DATA     ---       MCP_reg16_dirty_bit_map
      0000004EH   DATA     ---       MCP_reg16_status_update_map
      01001D7BH   CONST    WORD      MCP_reg8_access_type
      00000046H   DATA     WORD      MCP_reg8_dirty_bit_map
      0000004CH   DATA     WORD      MCP_reg8_status_update_map
      00000017H   DATA     ---       MCP_reset_callback
      02000069H   XDATA    ---       mcp_status
      01001D44H   CODE     ---       MCP_task
      0200006BH   XDATA    ---       mcp_tune
      0100172CH   CODE     ---       MTR_calculate_motor_rpm
      01001D33H   CODE     ---       MTR_calculate_pid
      01001574H   CODE     ---       MTR_check_motor_spinning
      0100177CH   CODE     ---       MTR_commutate
      01000663H   CODE     ---       MTR_do_quickstart
      01001D00H   CODE     ---       MTR_pid_compute_newpwm
      01001C84H   CODE     ---       MTR_pid_init
      010016E4H   CODE     ---       MTR_pre_commutation
      010018F5H   CODE     ---       MTR_save_zero_crossing_time
      010004D2H   CODE     ---       MTR_start_spinning
      0100183AH   CODE     ---       MTRAPP_init
      01001A08H   CODE     ---       MTRAPP_read_direction
      01000FA8H   CODE     ---       MTRAPP_read_target_speed
      01000E9CH   CODE     ---       MTRAPP_task
      02000045H   XDATA    BYTE      num_poles
      00000037H   DATA     BYTE      open_phase
*SFR* 00000080H   DATA     BYTE      P0
*SFR* 00000080H   DATA     BIT       P0_B0
*SFR* 00000080H.1 DATA     BIT       P0_B1
*SFR* 00000080H.2 DATA     BIT       P0_B2
*SFR* 00000080H.3 DATA     BIT       P0_B3
*SFR* 00000080H.4 DATA     BIT       P0_B4
*SFR* 00000080H.5 DATA     BIT       P0_B5
*SFR* 00000080H.6 DATA     BIT       P0_B6
*SFR* 00000080H.7 DATA     BIT       P0_B7
*SFR* 000000FEH   DATA     BYTE      P0MASK
*SFR* 000000FDH   DATA     BYTE      P0MAT
*SFR* 000000F1H   DATA     BYTE      P0MDIN
*SFR* 000000A4H   DATA     BYTE      P0MDOUT
*SFR* 000000D4H   DATA     BYTE      P0SKIP
*SFR* 00000090H   DATA     BYTE      P1
*SFR* 00000090H   DATA     BIT       P1_B0
*SFR* 00000090H.1 DATA     BIT       P1_B1
*SFR* 00000090H.2 DATA     BIT       P1_B2
*SFR* 00000090H.3 DATA     BIT       P1_B3
*SFR* 00000090H.4 DATA     BIT       P1_B4
*SFR* 00000090H.5 DATA     BIT       P1_B5
*SFR* 00000090H.6 DATA     BIT       P1_B6
*SFR* 00000090H.7 DATA     BIT       P1_B7
*SFR* 000000EEH   DATA     BYTE      P1MASK
*SFR* 000000EDH   DATA     BYTE      P1MAT
*SFR* 000000F2H   DATA     BYTE      P1MDIN
LX51 LINKER/LOCATER V4.66.30.0                                                        01/29/2020  13:56:08  PAGE 13


*SFR* 000000A5H   DATA     BYTE      P1MDOUT
*SFR* 000000D5H   DATA     BYTE      P1SKIP
*SFR* 000000A0H   DATA     BYTE      P2
*SFR* 000000A0H   DATA     BIT       P2_B0
*SFR* 000000A0H.1 DATA     BIT       P2_B1
*SFR* 000000A6H   DATA     BYTE      P2MDOUT
*SFR* 000000F9H   DATA     WORD      PCA0
*DEL*:00000000H   CODE     ---       PCA0_getIntFlags
*DEL*:00000000H   CODE     ---       PCA0_halt
      0100130AH   CODE     ---       PCA0_ISR
*DEL*:00000000H   CODE     ---       PCA0_readCounter
*DEL*:00000000H   CODE     ---       PCA0_reset
*DEL*:00000000H   CODE     ---       PCA0_run
*SFR* 0000009EH   DATA     BYTE      PCA0CENT
*SFR* 0000009CH   DATA     BYTE      PCA0CLR
*SFR* 000000D8H   DATA     BYTE      PCA0CN0
*SFR* 000000D8H   DATA     BIT       PCA0CN0_CCF0
*SFR* 000000D8H.1 DATA     BIT       PCA0CN0_CCF1
*SFR* 000000D8H.2 DATA     BIT       PCA0CN0_CCF2
*SFR* 000000D8H.7 DATA     BIT       PCA0CN0_CF
*SFR* 000000D8H.6 DATA     BIT       PCA0CN0_CR
*SFR* 000000FBH   DATA     WORD      PCA0CP0
*SFR* 000000E9H   DATA     WORD      PCA0CP1
*SFR* 000000EBH   DATA     WORD      PCA0CP2
*SFR* 000000FCH   DATA     BYTE      PCA0CPH0
*SFR* 000000EAH   DATA     BYTE      PCA0CPH1
*SFR* 000000ECH   DATA     BYTE      PCA0CPH2
*SFR* 000000FBH   DATA     BYTE      PCA0CPL0
*SFR* 000000E9H   DATA     BYTE      PCA0CPL1
*SFR* 000000EBH   DATA     BYTE      PCA0CPL2
*SFR* 000000DAH   DATA     BYTE      PCA0CPM0
*SFR* 000000DBH   DATA     BYTE      PCA0CPM1
*SFR* 000000DCH   DATA     BYTE      PCA0CPM2
*SFR* 000000FAH   DATA     BYTE      PCA0H
*SFR* 000000F9H   DATA     BYTE      PCA0L
*SFR* 000000D9H   DATA     BYTE      PCA0MD
*SFR* 00000096H   DATA     BYTE      PCA0POL
*SFR* 000000F7H   DATA     BYTE      PCA0PWM
*DEL*:00000000H   CODE     ---       PCA_disable_pwm
      01001D3DH   CODE     ---       PCA_enable_pwm
      01001AE8H   CODE     ---       PCA_initialize_pca
      01001D4AH   CODE     ---       PCA_set_initial_polarity
*SFR* 00000087H   DATA     BYTE      PCON0
      02000032H   XDATA    BYTE      pid_calc_interval
      00000022H.6 BIT      BIT       pid_done
      00000020H.4 BIT      BIT       pid_flag
      01001B84H   CODE     ---       Port_Setup
*SFR* 000000A0H   DATA     BYTE      PPAGE_SFR
      02000033H   XDATA    BYTE      pre_p0skip
      02000034H   XDATA    BYTE      pre_p1skip
      0200003FH   XDATA    BYTE      pre_port1
      0000002DH   DATA     ---       prev_zc_time
*SFR* 000000F6H   DATA     BYTE      PRTDRV
*SFR* 0000008FH   DATA     BYTE      PSCTL
*SFR* 000000D0H   DATA     BYTE      PSW
*SFR* 000000D0H.6 DATA     BIT       PSW_AC
*SFR* 000000D0H.7 DATA     BIT       PSW_CY
*SFR* 000000D0H.5 DATA     BIT       PSW_F0
*SFR* 000000D0H.1 DATA     BIT       PSW_F1
*SFR* 000000D0H.2 DATA     BIT       PSW_OV
*SFR* 000000D0H   DATA     BIT       PSW_PARITY
*SFR* 000000D0H.3 DATA     BIT       PSW_RS0
LX51 LINKER/LOCATER V4.66.30.0                                                        01/29/2020  13:56:08  PAGE 14


*SFR* 000000D0H.4 DATA     BIT       PSW_RS1
*SFR* 000000D1H   DATA     BYTE      REF0CN
*SFR* 000000C9H   DATA     BYTE      REG0CN
      0000006DH   DATA     BYTE      repeated_timer0
*SFR* 000000B6H   DATA     BYTE      REVID
*SFR* 000000EFH   DATA     BYTE      RSTSRC
*SFR* 00000099H   DATA     BYTE      SBUF0
*SFR* 00000098H   DATA     BYTE      SCON0
*SFR* 00000098H.5 DATA     BIT       SCON0_MCE
*SFR* 00000098H.2 DATA     BIT       SCON0_RB8
*SFR* 00000098H.4 DATA     BIT       SCON0_REN
*SFR* 00000098H   DATA     BIT       SCON0_RI
*SFR* 00000098H.7 DATA     BIT       SCON0_SMODE
*SFR* 00000098H.3 DATA     BIT       SCON0_TB8
*SFR* 00000098H.1 DATA     BIT       SCON0_TI
      01000003H   CODE     ---       SiLabs_Startup
      01001D63H   CONST    ---       skipPattern
      01001964H   CODE     ---       SL_MTR_init
      0100199BH   CODE     ---       SL_MTR_motor
      01001B10H   CODE     ---       SL_MTR_start_motor
      010017F9H   CODE     ---       SL_MTR_stop_motor
      01001CF1H   CODE     ---       SL_MTR_time
*DEL*:00000000H   CODE     ---       slab_Assert
      00000044H   DATA     ---       SLR_minimum_duty
      0000002BH   DATA     WORD      SLR_minimum_rpm
      02000052H   XDATA    WORD      SLR_motor_current
      0200003DH   XDATA    WORD      SLR_motor_current_rpm
      00000020H.6 BIT      BIT       SLR_motor_stalled
      000000B2H   IDATA    BYTE      SLR_motor_state
      02000046H   XDATA    WORD      SLR_motor_voltage
      0000003DH   DATA     WORD      SLR_pwm_duty
      02000048H   XDATA    BYTE      SLW_current_limit
      0200004DH   XDATA    WORD      SLW_motor_max_rpm
      02000044H   XDATA    BYTE      SLW_oc_debounce
      00000021H.2 BIT      BIT       SLW_pwm_updated
      00000021H.1 BIT      BIT       SLW_rpm_updated
      02000040H   XDATA    WORD      SLW_target_pwm_duty
      00000031H   DATA     WORD      SLW_target_rpm
      00000020H.5 BIT      BIT       SLW_user_direction
*SFR* 000000D6H   DATA     BYTE      SMB0ADM
*SFR* 000000D7H   DATA     BYTE      SMB0ADR
*SFR* 000000C1H   DATA     BYTE      SMB0CF
*SFR* 000000C0H   DATA     BYTE      SMB0CN0
*SFR* 000000C0H.1 DATA     BIT       SMB0CN0_ACK
*SFR* 000000C0H.3 DATA     BIT       SMB0CN0_ACKRQ
*SFR* 000000C0H.2 DATA     BIT       SMB0CN0_ARBLOST
*SFR* 000000C0H.7 DATA     BIT       SMB0CN0_MASTER
*SFR* 000000C0H   DATA     BIT       SMB0CN0_SI
*SFR* 000000C0H.5 DATA     BIT       SMB0CN0_STA
*SFR* 000000C0H.4 DATA     BIT       SMB0CN0_STO
*SFR* 000000C0H.6 DATA     BIT       SMB0CN0_TXMODE
*SFR* 000000C2H   DATA     BYTE      SMB0DAT
*SFR* 000000ACH   DATA     BYTE      SMB0TC
*SFR* 00000081H   DATA     BYTE      SP
      00000021H.0 BIT      BIT       speed_updated
*SFR* 000000A1H   DATA     BYTE      SPI0CFG
*SFR* 000000A2H   DATA     BYTE      SPI0CKR
*SFR* 000000F8H   DATA     BYTE      SPI0CN0
*SFR* 000000F8H.5 DATA     BIT       SPI0CN0_MODF
*SFR* 000000F8H.2 DATA     BIT       SPI0CN0_NSSMD0
*SFR* 000000F8H.3 DATA     BIT       SPI0CN0_NSSMD1
*SFR* 000000F8H.4 DATA     BIT       SPI0CN0_RXOVRN
LX51 LINKER/LOCATER V4.66.30.0                                                        01/29/2020  13:56:08  PAGE 15


*SFR* 000000F8H   DATA     BIT       SPI0CN0_SPIEN
*SFR* 000000F8H.7 DATA     BIT       SPI0CN0_SPIF
*SFR* 000000F8H.1 DATA     BIT       SPI0CN0_TXBMT
*SFR* 000000F8H.6 DATA     BIT       SPI0CN0_WCOL
*SFR* 000000A3H   DATA     BYTE      SPI0DAT
      01001D51H   CONST    ---       start_delay
*SFR* 00000088H   DATA     BYTE      TCON
*SFR* 00000088H.1 DATA     BIT       TCON_IE0
*SFR* 00000088H.3 DATA     BIT       TCON_IE1
*SFR* 00000088H   DATA     BIT       TCON_IT0
*SFR* 00000088H.2 DATA     BIT       TCON_IT1
*SFR* 00000088H.5 DATA     BIT       TCON_TF0
*SFR* 00000088H.7 DATA     BIT       TCON_TF1
*SFR* 00000088H.4 DATA     BIT       TCON_TR0
*SFR* 00000088H.6 DATA     BIT       TCON_TR1
*SFR* 0000008CH   DATA     BYTE      TH0
*SFR* 0000008DH   DATA     BYTE      TH1
      00000039H   DATA     ---       time_per_rotate
      01001088H   CODE     ---       TIMER0_ISR
      0000006FH   DATA     ---       timer0_next
      0000006EH   DATA     BYTE      timer0_state
*SFR* 0000008AH   DATA     BYTE      TL0
*SFR* 0000008BH   DATA     BYTE      TL1
*SFR* 00000089H   DATA     BYTE      TMOD
*SFR* 000000CCH   DATA     WORD      TMR2
*SFR* 000000C8H   DATA     BYTE      TMR2CN0
*SFR* 000000C8H.3 DATA     BIT       TMR2CN0_T2SPLIT
*SFR* 000000C8H   DATA     BIT       TMR2CN0_T2XCLK
*SFR* 000000C8H.4 DATA     BIT       TMR2CN0_TF2CEN
*SFR* 000000C8H.7 DATA     BIT       TMR2CN0_TF2H
*SFR* 000000C8H.6 DATA     BIT       TMR2CN0_TF2L
*SFR* 000000C8H.5 DATA     BIT       TMR2CN0_TF2LEN
*SFR* 000000C8H.2 DATA     BIT       TMR2CN0_TR2
*SFR* 000000CDH   DATA     BYTE      TMR2H
*SFR* 000000CCH   DATA     BYTE      TMR2L
*SFR* 000000CAH   DATA     WORD      TMR2RL
*SFR* 000000CBH   DATA     BYTE      TMR2RLH
*SFR* 000000CAH   DATA     BYTE      TMR2RLL
*SFR* 00000094H   DATA     WORD      TMR3
*SFR* 00000091H   DATA     BYTE      TMR3CN0
*SFR* 00000095H   DATA     BYTE      TMR3H
*SFR* 00000094H   DATA     BYTE      TMR3L
*SFR* 00000092H   DATA     WORD      TMR3RL
*SFR* 00000093H   DATA     BYTE      TMR3RLH
*SFR* 00000092H   DATA     BYTE      TMR3RLL
      01001CE0H   CODE     ---       TMR_init_timer0
      01001CBDH   CODE     ---       TMR_init_timer3
      0100168EH   CODE     ---       UART0_ISR
      01001CABH   CODE     ---       UART_get_tx_buffer_free_bytes
      01001C98H   CODE     ---       UART_init
      01001D1BH   CODE     ---       UART_init_buffers
      00000073H   IDATA    ---       UART_rx_buffer
      00000069H   DATA     ---       UART_rx_buffer_head
      0000006BH   DATA     ---       UART_rx_buffer_tail
      00000083H   IDATA    ---       UART_tx_buffer
      0000006AH   DATA     ---       UART_tx_buffer_head
      0000006CH   DATA     ---       UART_tx_buffer_tail
      00000022H.5 BIT      BIT       UART_tx_busy
      00000057H   DATA     WORD      user_timer
*SFR* 000000FFH   DATA     BYTE      VDM0CN
*SFR* 00000097H   DATA     BYTE      WDTCN
*SFR* 000000E1H   DATA     BYTE      XBR0
LX51 LINKER/LOCATER V4.66.30.0                                                        01/29/2020  13:56:08  PAGE 16


*SFR* 000000E2H   DATA     BYTE      XBR1
*SFR* 000000E3H   DATA     BYTE      XBR2
      00000033H   DATA     ---       zc_commutate_time
      0000003FH   DATA     BYTE      zc_count
      00000040H   DATA     ---       zc_time
      02000056H   XDATA    BYTE      zc_total_count
      02000049H   XDATA    DWORD     zc_total_per_mech_rotation



SYMBOL TABLE OF MODULE:  EFM8BB1_BLDC_PORT.OMF.CRBUILD (ASSERT)

      VALUE       REP       CLASS    TYPE      SYMBOL NAME
      ====================================================
      ---         MODULE    ---      ---       ASSERT

      ---         MODULE    ---      ---       PCA_0
      000000A2H   SFRSYM    DATA     BYTE      SPI0CKR
      00000080H   SFRSYM    DATA     BYTE      P0
      000000D0H.2 SFRSYM    DATA     BIT       PSW_OV
      00000090H   SFRSYM    DATA     BYTE      P1
      00000097H   SFRSYM    DATA     BYTE      WDTCN
      000000A0H   SFRSYM    DATA     BYTE      P2
      000000BCH   SFRSYM    DATA     BYTE      ADC0CF
      000000C8H   SFRSYM    DATA     BIT       TMR2CN0_T2XCLK
      000000C0H.7 SFRSYM    DATA     BIT       SMB0CN0_MASTER
      000000F9H   SFRSYM    DATA     WORD      PCA0
      000000E6H   SFRSYM    DATA     BYTE      EIE1
      000000C0H.1 SFRSYM    DATA     BIT       SMB0CN0_ACK
      0000008FH   SFRSYM    DATA     BYTE      PSCTL
      000000E4H   SFRSYM    DATA     BYTE      IT01CF
      000000C0H.6 SFRSYM    DATA     BIT       SMB0CN0_TXMODE
      000000ADH   SFRSYM    DATA     BYTE      DERIVID
      000000A4H   SFRSYM    DATA     BYTE      P0MDOUT
      000000A5H   SFRSYM    DATA     BYTE      P1MDOUT
      000000E8H.5 SFRSYM    DATA     BIT       ADC0CN0_ADINT
      000000CBH   SFRSYM    DATA     BYTE      TMR2RLH
      000000A6H   SFRSYM    DATA     BYTE      P2MDOUT
      000000A8H   SFRSYM    DATA     BYTE      IE
      00000093H   SFRSYM    DATA     BYTE      TMR3RLH
      000000F3H   SFRSYM    DATA     BYTE      EIP1
      00000098H.2 SFRSYM    DATA     BIT       SCON0_RB8
      000000CAH   SFRSYM    DATA     BYTE      TMR2RLL
      000000FCH   SFRSYM    DATA     BYTE      PCA0CPH0
      00000092H   SFRSYM    DATA     BYTE      TMR3RLL
      000000EAH   SFRSYM    DATA     BYTE      PCA0CPH1
      00000098H.3 SFRSYM    DATA     BIT       SCON0_TB8
      000000F0H   SFRSYM    DATA     BIT       B_B0
      00000082H   SFRSYM    DATA     WORD      DP
      000000ECH   SFRSYM    DATA     BYTE      PCA0CPH2
      000000F0H.1 SFRSYM    DATA     BIT       B_B1
      000000C3H   SFRSYM    DATA     WORD      ADC0GT
      000000F0H.2 SFRSYM    DATA     BIT       B_B2
      000000FBH   SFRSYM    DATA     BYTE      PCA0CPL0
      000000F0H.3 SFRSYM    DATA     BIT       B_B3
      000000D9H   SFRSYM    DATA     BYTE      PCA0MD
      000000DAH   SFRSYM    DATA     BYTE      PCA0CPM0
      000000E9H   SFRSYM    DATA     BYTE      PCA0CPL1
      000000F0H.4 SFRSYM    DATA     BIT       B_B4
      000000DBH   SFRSYM    DATA     BYTE      PCA0CPM1
      000000EBH   SFRSYM    DATA     BYTE      PCA0CPL2
      000000F0H.5 SFRSYM    DATA     BIT       B_B5
LX51 LINKER/LOCATER V4.66.30.0                                                        01/29/2020  13:56:08  PAGE 17


      000000DCH   SFRSYM    DATA     BYTE      PCA0CPM2
      000000B8H   SFRSYM    DATA     BYTE      IP
      000000B9H   SFRSYM    DATA     BYTE      ADC0TK
      000000F0H.6 SFRSYM    DATA     BIT       B_B6
      000000C5H   SFRSYM    DATA     WORD      ADC0LT
      00000098H.5 SFRSYM    DATA     BIT       SCON0_MCE
      000000F0H.7 SFRSYM    DATA     BIT       B_B7
      000000E1H   SFRSYM    DATA     BYTE      XBR0
      000000C1H   SFRSYM    DATA     BYTE      SMB0CF
      000000E2H   SFRSYM    DATA     BYTE      XBR1
      000000C0H.5 SFRSYM    DATA     BIT       SMB0CN0_STA
      000000E3H   SFRSYM    DATA     BYTE      XBR2
      000000BBH   SFRSYM    DATA     BYTE      ADC0MX
      000000E0H   SFRSYM    DATA     BIT       ACC_ACC0
      000000D1H   SFRSYM    DATA     BYTE      REF0CN
      0000008EH   SFRSYM    DATA     BYTE      CKCON0
      000000E0H.1 SFRSYM    DATA     BIT       ACC_ACC1
      000000C9H   SFRSYM    DATA     BYTE      REG0CN
      000000DDH   SFRSYM    DATA     BYTE      CRC0IN
      000000C8H.2 SFRSYM    DATA     BIT       TMR2CN0_TR2
      000000E0H.2 SFRSYM    DATA     BIT       ACC_ACC2
      000000E0H.3 SFRSYM    DATA     BIT       ACC_ACC3
      00000081H   SFRSYM    DATA     BYTE      SP
      0000009DH   SFRSYM    DATA     BYTE      CMP0MD
      000000E0H.4 SFRSYM    DATA     BIT       ACC_ACC4
      000000B1H   SFRSYM    DATA     BYTE      LFO0CN
      000000ABH   SFRSYM    DATA     BYTE      CMP1MD
      000000D8H   SFRSYM    DATA     BIT       PCA0CN0_CCF0
      000000E0H.5 SFRSYM    DATA     BIT       ACC_ACC5
      000000D8H.1 SFRSYM    DATA     BIT       PCA0CN0_CCF1
      000000E0H.6 SFRSYM    DATA     BIT       ACC_ACC6
      000000CCH   SFRSYM    DATA     WORD      TMR2
      000000D8H.2 SFRSYM    DATA     BIT       PCA0CN0_CCF2
      000000E0H.7 SFRSYM    DATA     BIT       ACC_ACC7
      00000094H   SFRSYM    DATA     WORD      TMR3
      000000C0H.3 SFRSYM    DATA     BIT       SMB0CN0_ACKRQ
      000000FFH   SFRSYM    DATA     BYTE      VDM0CN
      000000F1H   SFRSYM    DATA     BYTE      P0MDIN
      00000098H.4 SFRSYM    DATA     BIT       SCON0_REN
      000000ACH   SFRSYM    DATA     BYTE      SMB0TC
      000000F2H   SFRSYM    DATA     BYTE      P1MDIN
      000000C0H.4 SFRSYM    DATA     BIT       SMB0CN0_STO
      000000FEH   SFRSYM    DATA     BYTE      P0MASK
      000000EEH   SFRSYM    DATA     BYTE      P1MASK
      000000D0H.3 SFRSYM    DATA     BIT       PSW_RS0
      000000D8H.7 SFRSYM    DATA     BIT       PCA0CN0_CF
      0000009EH   SFRSYM    DATA     BYTE      PCA0CENT
      000000F8H.4 SFRSYM    DATA     BIT       SPI0CN0_RXOVRN
      000000D0H.4 SFRSYM    DATA     BIT       PSW_RS1
      000000E8H.7 SFRSYM    DATA     BIT       ADC0CN0_ADEN
      00000089H   SFRSYM    DATA     BYTE      TMOD
      00000088H   SFRSYM    DATA     BYTE      TCON
      000000CFH   SFRSYM    DATA     BYTE      CRC0FLIP
      000000D0H   SFRSYM    DATA     BIT       PSW_PARITY
      000000A8H.4 SFRSYM    DATA     BIT       IE_ES0
      0000009FH   SFRSYM    DATA     BYTE      CMP0MX
      000000A8H.1 SFRSYM    DATA     BIT       IE_ET0
      000000AAH   SFRSYM    DATA     BYTE      CMP1MX
      000000A8H.3 SFRSYM    DATA     BIT       IE_ET1
      000000D4H   SFRSYM    DATA     BYTE      P0SKIP
      000000A8H.5 SFRSYM    DATA     BIT       IE_ET2
      000000D5H   SFRSYM    DATA     BYTE      P1SKIP
LX51 LINKER/LOCATER V4.66.30.0                                                        01/29/2020  13:56:08  PAGE 18


      000000E8H   SFRSYM    DATA     BYTE      ADC0CN0
      000000A8H   SFRSYM    DATA     BIT       IE_EX0
      000000B2H   SFRSYM    DATA     BYTE      ADC0CN1
      000000D8H.6 SFRSYM    DATA     BIT       PCA0CN0_CR
      000000A8H.2 SFRSYM    DATA     BIT       IE_EX1
      00000098H.7 SFRSYM    DATA     BIT       SCON0_SMODE
      000000B5H   SFRSYM    DATA     BYTE      DEVICEID
      000000A9H   SFRSYM    DATA     BYTE      CLKSEL
      000000F8H   SFRSYM    DATA     BIT       SPI0CN0_SPIEN
      000000F0H   SFRSYM    DATA     BYTE      B
      000000BEH   SFRSYM    DATA     BYTE      ADC0H
      000000D2H   SFRSYM    DATA     BYTE      CRC0AUTO
      000000E8H.6 SFRSYM    DATA     BIT       ADC0CN0_ADBMEN
      000000CAH   SFRSYM    DATA     WORD      TMR2RL
      000000BDH   SFRSYM    DATA     BYTE      ADC0L
      00000092H   SFRSYM    DATA     WORD      TMR3RL
      000000D8H   SFRSYM    DATA     BYTE      PCA0CN0
      000000E0H   SFRSYM    DATA     BYTE      ACC
      000000FBH   SFRSYM    DATA     WORD      PCA0CP0
      000000E9H   SFRSYM    DATA     WORD      PCA0CP1
      000000EBH   SFRSYM    DATA     WORD      PCA0CP2
      000000CEH   SFRSYM    DATA     BYTE      CRC0CN0
      0000008CH   SFRSYM    DATA     BYTE      TH0
      000000B8H.4 SFRSYM    DATA     BIT       IP_PS0
      0000008DH   SFRSYM    DATA     BYTE      TH1
      000000FAH   SFRSYM    DATA     BYTE      PCA0H
      000000B8H.1 SFRSYM    DATA     BIT       IP_PT0
      000000B8H.3 SFRSYM    DATA     BIT       IP_PT1
      000000C0H.2 SFRSYM    DATA     BIT       SMB0CN0_ARBLOST
      000000B8H.5 SFRSYM    DATA     BIT       IP_PT2
      0000008AH   SFRSYM    DATA     BYTE      TL0
      000000F8H.1 SFRSYM    DATA     BIT       SPI0CN0_TXBMT
      000000D0H.5 SFRSYM    DATA     BIT       PSW_F0
      000000A8H.6 SFRSYM    DATA     BIT       IE_ESPI0
      0000008BH   SFRSYM    DATA     BYTE      TL1
      000000F9H   SFRSYM    DATA     BYTE      PCA0L
      000000C0H   SFRSYM    DATA     BIT       SMB0CN0_SI
      000000D0H.1 SFRSYM    DATA     BIT       PSW_F1
      00000080H   SFRSYM    DATA     BIT       P0_B0
      000000B8H   SFRSYM    DATA     BIT       IP_PX0
      00000090H   SFRSYM    DATA     BIT       P1_B0
      00000080H.1 SFRSYM    DATA     BIT       P0_B1
      000000B8H.2 SFRSYM    DATA     BIT       IP_PX1
      0000009BH   SFRSYM    DATA     BYTE      CMP0CN0
      00000088H.1 SFRSYM    DATA     BIT       TCON_IE0
      000000A0H   SFRSYM    DATA     BIT       P2_B0
      00000090H.1 SFRSYM    DATA     BIT       P1_B1
      00000080H.2 SFRSYM    DATA     BIT       P0_B2
      000000BFH   SFRSYM    DATA     BYTE      CMP1CN0
      00000088H.3 SFRSYM    DATA     BIT       TCON_IE1
      000000A0H.1 SFRSYM    DATA     BIT       P2_B1
      00000090H.2 SFRSYM    DATA     BIT       P1_B2
      00000080H.3 SFRSYM    DATA     BIT       P0_B3
      000000C0H   SFRSYM    DATA     BYTE      SMB0CN0
      00000090H.3 SFRSYM    DATA     BIT       P1_B3
      00000080H.4 SFRSYM    DATA     BIT       P0_B4
      00000090H.4 SFRSYM    DATA     BIT       P1_B4
      00000080H.5 SFRSYM    DATA     BIT       P0_B5
      00000090H.5 SFRSYM    DATA     BIT       P1_B5
      00000080H.6 SFRSYM    DATA     BIT       P0_B6
      00000090H.6 SFRSYM    DATA     BIT       P1_B6
      00000080H.7 SFRSYM    DATA     BIT       P0_B7
LX51 LINKER/LOCATER V4.66.30.0                                                        01/29/2020  13:56:08  PAGE 19


      00000090H.7 SFRSYM    DATA     BIT       P1_B7
      00000083H   SFRSYM    DATA     BYTE      DPH
      000000C4H   SFRSYM    DATA     BYTE      ADC0GTH
      000000C8H.7 SFRSYM    DATA     BIT       TMR2CN0_TF2H
      000000C8H.3 SFRSYM    DATA     BIT       TMR2CN0_T2SPLIT
      000000D0H.6 SFRSYM    DATA     BIT       PSW_AC
      000000F8H   SFRSYM    DATA     BYTE      SPI0CN0
      000000C7H   SFRSYM    DATA     BYTE      HFO0CAL
      00000088H.5 SFRSYM    DATA     BIT       TCON_TF0
      00000098H   SFRSYM    DATA     BIT       SCON0_RI
      00000082H   SFRSYM    DATA     BYTE      DPL
      00000088H.7 SFRSYM    DATA     BIT       TCON_TF1
      00000099H   SFRSYM    DATA     BYTE      SBUF0
      00000087H   SFRSYM    DATA     BYTE      PCON0
      000000C3H   SFRSYM    DATA     BYTE      ADC0GTL
      000000C8H.6 SFRSYM    DATA     BIT       TMR2CN0_TF2L
      00000098H.1 SFRSYM    DATA     BIT       SCON0_TI
      000000E8H   SFRSYM    DATA     BIT       ADC0CN0_ADCM0
      000000C6H   SFRSYM    DATA     BYTE      ADC0LTH
      00000088H   SFRSYM    DATA     BIT       TCON_IT0
      000000E8H.1 SFRSYM    DATA     BIT       ADC0CN0_ADCM1
      000000EFH   SFRSYM    DATA     BYTE      RSTSRC
      000000FDH   SFRSYM    DATA     BYTE      P0MAT
      000000DEH   SFRSYM    DATA     BYTE      CRC0DAT
      00000088H.2 SFRSYM    DATA     BIT       TCON_IT1
      000000E8H.2 SFRSYM    DATA     BIT       ADC0CN0_ADCM2
      00000098H   SFRSYM    DATA     BYTE      SCON0
      000000F6H   SFRSYM    DATA     BYTE      PRTDRV
      000000EDH   SFRSYM    DATA     BYTE      P1MAT
      000000E8H.3 SFRSYM    DATA     BIT       ADC0CN0_ADWINT
      000000E8H.4 SFRSYM    DATA     BIT       ADC0CN0_ADBUSY
      000000D6H   SFRSYM    DATA     BYTE      SMB0ADM
      000000C5H   SFRSYM    DATA     BYTE      ADC0LTL
      000000F8H.5 SFRSYM    DATA     BIT       SPI0CN0_MODF
      000000B8H.6 SFRSYM    DATA     BIT       IP_PSPI0
      0000009CH   SFRSYM    DATA     BYTE      PCA0CLR
      000000C8H   SFRSYM    DATA     BYTE      TMR2CN0
      00000091H   SFRSYM    DATA     BYTE      TMR3CN0
      000000D7H   SFRSYM    DATA     BYTE      SMB0ADR
      00000088H.4 SFRSYM    DATA     BIT       TCON_TR0
      000000C8H.4 SFRSYM    DATA     BIT       TMR2CN0_TF2CEN
      00000088H.6 SFRSYM    DATA     BIT       TCON_TR1
      000000C2H   SFRSYM    DATA     BYTE      SMB0DAT
      000000CDH   SFRSYM    DATA     BYTE      TMR2H
      000000A1H   SFRSYM    DATA     BYTE      SPI0CFG
      00000095H   SFRSYM    DATA     BYTE      TMR3H
      000000D3H   SFRSYM    DATA     BYTE      CRC0CNT
      00000096H   SFRSYM    DATA     BYTE      PCA0POL
      000000CCH   SFRSYM    DATA     BYTE      TMR2L
      000000F8H.7 SFRSYM    DATA     BIT       SPI0CN0_SPIF
      00000094H   SFRSYM    DATA     BYTE      TMR3L
      000000DFH   SFRSYM    DATA     BYTE      ADC0PWR
      000000A8H.7 SFRSYM    DATA     BIT       IE_EA
      000000C8H.5 SFRSYM    DATA     BIT       TMR2CN0_TF2LEN
      000000F8H.6 SFRSYM    DATA     BIT       SPI0CN0_WCOL
      000000F8H.2 SFRSYM    DATA     BIT       SPI0CN0_NSSMD0
      000000D0H.7 SFRSYM    DATA     BIT       PSW_CY
      000000A3H   SFRSYM    DATA     BYTE      SPI0DAT
      000000F8H.3 SFRSYM    DATA     BIT       SPI0CN0_NSSMD1
      000000BDH   SFRSYM    DATA     WORD      ADC0
      000000D0H   SFRSYM    DATA     BYTE      PSW
      000000F7H   SFRSYM    DATA     BYTE      PCA0PWM
LX51 LINKER/LOCATER V4.66.30.0                                                        01/29/2020  13:56:08  PAGE 20


      000000B6H   SFRSYM    DATA     BYTE      REVID
      000000B7H   SFRSYM    DATA     BYTE      FLKEY
      000000B3H   SFRSYM    DATA     BYTE      ADC0AC
      00000007H   SYMBOL    DATA     BYTE      val
      00000007H   SYMBOL    DATA     BYTE      flag
      00000007H   SYMBOL    DATA     BYTE      flag
      00000006H   SYMBOL    DATA     BYTE      en
      00000007H   SYMBOL    DATA     BYTE      channel
      00000003H   SYMBOL    DATA     BYTE      channel
      00000004H   SYMBOL    DATA     WORD      value
      00000007H   SYMBOL    DATA     BYTE      lower
      00000006H   SYMBOL    DATA     WORD      value
      00000007H   SYMBOL    DATA     BYTE      timebase
      00000005H   SYMBOL    DATA     BYTE      idleState
      00000007H   SYMBOL    DATA     BYTE      channel
      00000005H   SYMBOL    DATA     BYTE      mode
      00000003H   SYMBOL    DATA     BYTE      pol
      00000006H   SYMBOL    DATA     BYTE      pwmValue
      00000007H   SYMBOL    DATA     BYTE      channel

      ---         MODULE    ---      ---       EFM8BB1_BLDC_PORT
      01001B84H   PUBLIC    CODE     ---       Port_Setup
      0100192DH   PUBLIC    CODE     ---       main
      01000003H   PUBLIC    CODE     ---       SiLabs_Startup
      000000A2H   SFRSYM    DATA     BYTE      SPI0CKR
      00000080H   SFRSYM    DATA     BYTE      P0
      000000D0H.2 SFRSYM    DATA     BIT       PSW_OV
      00000090H   SFRSYM    DATA     BYTE      P1
      00000097H   SFRSYM    DATA     BYTE      WDTCN
      000000A0H   SFRSYM    DATA     BYTE      P2
      000000BCH   SFRSYM    DATA     BYTE      ADC0CF
      000000C8H   SFRSYM    DATA     BIT       TMR2CN0_T2XCLK
      000000C0H.7 SFRSYM    DATA     BIT       SMB0CN0_MASTER
      000000F9H   SFRSYM    DATA     WORD      PCA0
      000000E6H   SFRSYM    DATA     BYTE      EIE1
      000000C0H.1 SFRSYM    DATA     BIT       SMB0CN0_ACK
      0000008FH   SFRSYM    DATA     BYTE      PSCTL
      000000E4H   SFRSYM    DATA     BYTE      IT01CF
      000000C0H.6 SFRSYM    DATA     BIT       SMB0CN0_TXMODE
      000000ADH   SFRSYM    DATA     BYTE      DERIVID
      000000A4H   SFRSYM    DATA     BYTE      P0MDOUT
      000000A5H   SFRSYM    DATA     BYTE      P1MDOUT
      000000E8H.5 SFRSYM    DATA     BIT       ADC0CN0_ADINT
      000000CBH   SFRSYM    DATA     BYTE      TMR2RLH
      000000A6H   SFRSYM    DATA     BYTE      P2MDOUT
      000000A8H   SFRSYM    DATA     BYTE      IE
      00000093H   SFRSYM    DATA     BYTE      TMR3RLH
      000000F3H   SFRSYM    DATA     BYTE      EIP1
      00000098H.2 SFRSYM    DATA     BIT       SCON0_RB8
      000000CAH   SFRSYM    DATA     BYTE      TMR2RLL
      000000FCH   SFRSYM    DATA     BYTE      PCA0CPH0
      00000092H   SFRSYM    DATA     BYTE      TMR3RLL
      000000EAH   SFRSYM    DATA     BYTE      PCA0CPH1
      00000098H.3 SFRSYM    DATA     BIT       SCON0_TB8
      000000F0H   SFRSYM    DATA     BIT       B_B0
      00000082H   SFRSYM    DATA     WORD      DP
      000000ECH   SFRSYM    DATA     BYTE      PCA0CPH2
      000000A0H.1 SFRSYM    DATA     BIT       BTN0
      000000F0H.1 SFRSYM    DATA     BIT       B_B1
      000000C3H   SFRSYM    DATA     WORD      ADC0GT
      00000090H.1 SFRSYM    DATA     BIT       BTN1
      000000F0H.2 SFRSYM    DATA     BIT       B_B2
LX51 LINKER/LOCATER V4.66.30.0                                                        01/29/2020  13:56:08  PAGE 21


      000000FBH   SFRSYM    DATA     BYTE      PCA0CPL0
      000000F0H.3 SFRSYM    DATA     BIT       B_B3
      000000D9H   SFRSYM    DATA     BYTE      PCA0MD
      000000DAH   SFRSYM    DATA     BYTE      PCA0CPM0
      000000E9H   SFRSYM    DATA     BYTE      PCA0CPL1
      000000F0H.4 SFRSYM    DATA     BIT       B_B4
      000000DBH   SFRSYM    DATA     BYTE      PCA0CPM1
      000000EBH   SFRSYM    DATA     BYTE      PCA0CPL2
      000000F0H.5 SFRSYM    DATA     BIT       B_B5
      000000DCH   SFRSYM    DATA     BYTE      PCA0CPM2
      000000B8H   SFRSYM    DATA     BYTE      IP
      000000B9H   SFRSYM    DATA     BYTE      ADC0TK
      000000F0H.6 SFRSYM    DATA     BIT       B_B6
      000000C5H   SFRSYM    DATA     WORD      ADC0LT
      00000098H.5 SFRSYM    DATA     BIT       SCON0_MCE
      000000F0H.7 SFRSYM    DATA     BIT       B_B7
      000000E1H   SFRSYM    DATA     BYTE      XBR0
      000000C1H   SFRSYM    DATA     BYTE      SMB0CF
      000000E2H   SFRSYM    DATA     BYTE      XBR1
      000000C0H.5 SFRSYM    DATA     BIT       SMB0CN0_STA
      000000E3H   SFRSYM    DATA     BYTE      XBR2
      000000BBH   SFRSYM    DATA     BYTE      ADC0MX
      000000E0H   SFRSYM    DATA     BIT       ACC_ACC0
      000000D1H   SFRSYM    DATA     BYTE      REF0CN
      0000008EH   SFRSYM    DATA     BYTE      CKCON0
      000000E0H.1 SFRSYM    DATA     BIT       ACC_ACC1
      000000C9H   SFRSYM    DATA     BYTE      REG0CN
      000000DDH   SFRSYM    DATA     BYTE      CRC0IN
      000000C8H.2 SFRSYM    DATA     BIT       TMR2CN0_TR2
      000000E0H.2 SFRSYM    DATA     BIT       ACC_ACC2
      000000E0H.3 SFRSYM    DATA     BIT       ACC_ACC3
      00000081H   SFRSYM    DATA     BYTE      SP
      0000009DH   SFRSYM    DATA     BYTE      CMP0MD
      000000E0H.4 SFRSYM    DATA     BIT       ACC_ACC4
      000000B1H   SFRSYM    DATA     BYTE      LFO0CN
      000000ABH   SFRSYM    DATA     BYTE      CMP1MD
      000000D8H   SFRSYM    DATA     BIT       PCA0CN0_CCF0
      000000E0H.5 SFRSYM    DATA     BIT       ACC_ACC5
      000000D8H.1 SFRSYM    DATA     BIT       PCA0CN0_CCF1
      000000E0H.6 SFRSYM    DATA     BIT       ACC_ACC6
      000000CCH   SFRSYM    DATA     WORD      TMR2
      000000D8H.2 SFRSYM    DATA     BIT       PCA0CN0_CCF2
      000000E0H.7 SFRSYM    DATA     BIT       ACC_ACC7
      00000094H   SFRSYM    DATA     WORD      TMR3
      000000C0H.3 SFRSYM    DATA     BIT       SMB0CN0_ACKRQ
      000000FFH   SFRSYM    DATA     BYTE      VDM0CN
      000000F1H   SFRSYM    DATA     BYTE      P0MDIN
      00000098H.4 SFRSYM    DATA     BIT       SCON0_REN
      000000ACH   SFRSYM    DATA     BYTE      SMB0TC
      000000F2H   SFRSYM    DATA     BYTE      P1MDIN
      000000C0H.4 SFRSYM    DATA     BIT       SMB0CN0_STO
      000000FEH   SFRSYM    DATA     BYTE      P0MASK
      000000EEH   SFRSYM    DATA     BYTE      P1MASK
      000000D0H.3 SFRSYM    DATA     BIT       PSW_RS0
      000000D8H.7 SFRSYM    DATA     BIT       PCA0CN0_CF
      0000009EH   SFRSYM    DATA     BYTE      PCA0CENT
      000000F8H.4 SFRSYM    DATA     BIT       SPI0CN0_RXOVRN
      000000D0H.4 SFRSYM    DATA     BIT       PSW_RS1
      000000E8H.7 SFRSYM    DATA     BIT       ADC0CN0_ADEN
      00000089H   SFRSYM    DATA     BYTE      TMOD
      00000088H   SFRSYM    DATA     BYTE      TCON
      000000CFH   SFRSYM    DATA     BYTE      CRC0FLIP
LX51 LINKER/LOCATER V4.66.30.0                                                        01/29/2020  13:56:08  PAGE 22


      000000D0H   SFRSYM    DATA     BIT       PSW_PARITY
      000000A8H.4 SFRSYM    DATA     BIT       IE_ES0
      0000009FH   SFRSYM    DATA     BYTE      CMP0MX
      000000A8H.1 SFRSYM    DATA     BIT       IE_ET0
      000000AAH   SFRSYM    DATA     BYTE      CMP1MX
      000000A8H.3 SFRSYM    DATA     BIT       IE_ET1
      000000D4H   SFRSYM    DATA     BYTE      P0SKIP
      000000A8H.5 SFRSYM    DATA     BIT       IE_ET2
      000000D5H   SFRSYM    DATA     BYTE      P1SKIP
      000000E8H   SFRSYM    DATA     BYTE      ADC0CN0
      000000A8H   SFRSYM    DATA     BIT       IE_EX0
      000000B2H   SFRSYM    DATA     BYTE      ADC0CN1
      000000D8H.6 SFRSYM    DATA     BIT       PCA0CN0_CR
      000000A8H.2 SFRSYM    DATA     BIT       IE_EX1
      00000098H.7 SFRSYM    DATA     BIT       SCON0_SMODE
      000000B5H   SFRSYM    DATA     BYTE      DEVICEID
      000000A9H   SFRSYM    DATA     BYTE      CLKSEL
      000000F8H   SFRSYM    DATA     BIT       SPI0CN0_SPIEN
      000000F0H   SFRSYM    DATA     BYTE      B
      000000BEH   SFRSYM    DATA     BYTE      ADC0H
      000000D2H   SFRSYM    DATA     BYTE      CRC0AUTO
      000000E8H.6 SFRSYM    DATA     BIT       ADC0CN0_ADBMEN
      000000CAH   SFRSYM    DATA     WORD      TMR2RL
      000000BDH   SFRSYM    DATA     BYTE      ADC0L
      00000092H   SFRSYM    DATA     WORD      TMR3RL
      000000D8H   SFRSYM    DATA     BYTE      PCA0CN0
      000000E0H   SFRSYM    DATA     BYTE      ACC
      000000FBH   SFRSYM    DATA     WORD      PCA0CP0
      000000E9H   SFRSYM    DATA     WORD      PCA0CP1
      000000EBH   SFRSYM    DATA     WORD      PCA0CP2
      000000CEH   SFRSYM    DATA     BYTE      CRC0CN0
      00000090H.4 SFRSYM    DATA     BIT       BSP_LED0
      0000008CH   SFRSYM    DATA     BYTE      TH0
      000000B8H.4 SFRSYM    DATA     BIT       IP_PS0
      0000008DH   SFRSYM    DATA     BYTE      TH1
      000000FAH   SFRSYM    DATA     BYTE      PCA0H
      000000B8H.1 SFRSYM    DATA     BIT       IP_PT0
      000000B8H.3 SFRSYM    DATA     BIT       IP_PT1
      000000C0H.2 SFRSYM    DATA     BIT       SMB0CN0_ARBLOST
      000000B8H.5 SFRSYM    DATA     BIT       IP_PT2
      0000008AH   SFRSYM    DATA     BYTE      TL0
      000000F8H.1 SFRSYM    DATA     BIT       SPI0CN0_TXBMT
      000000D0H.5 SFRSYM    DATA     BIT       PSW_F0
      000000A8H.6 SFRSYM    DATA     BIT       IE_ESPI0
      0000008BH   SFRSYM    DATA     BYTE      TL1
      000000F9H   SFRSYM    DATA     BYTE      PCA0L
      000000C0H   SFRSYM    DATA     BIT       SMB0CN0_SI
      000000D0H.1 SFRSYM    DATA     BIT       PSW_F1
      00000080H   SFRSYM    DATA     BIT       P0_B0
      000000B8H   SFRSYM    DATA     BIT       IP_PX0
      00000090H   SFRSYM    DATA     BIT       P1_B0
      00000080H.1 SFRSYM    DATA     BIT       P0_B1
      000000B8H.2 SFRSYM    DATA     BIT       IP_PX1
      0000009BH   SFRSYM    DATA     BYTE      CMP0CN0
      00000088H.1 SFRSYM    DATA     BIT       TCON_IE0
      000000A0H   SFRSYM    DATA     BIT       P2_B0
      00000090H.1 SFRSYM    DATA     BIT       P1_B1
      00000080H.2 SFRSYM    DATA     BIT       P0_B2
      000000BFH   SFRSYM    DATA     BYTE      CMP1CN0
      00000088H.3 SFRSYM    DATA     BIT       TCON_IE1
      000000A0H.1 SFRSYM    DATA     BIT       P2_B1
      00000090H.2 SFRSYM    DATA     BIT       P1_B2
LX51 LINKER/LOCATER V4.66.30.0                                                        01/29/2020  13:56:08  PAGE 23


      00000080H.3 SFRSYM    DATA     BIT       P0_B3
      000000C0H   SFRSYM    DATA     BYTE      SMB0CN0
      00000090H.3 SFRSYM    DATA     BIT       P1_B3
      00000080H.4 SFRSYM    DATA     BIT       P0_B4
      00000090H.4 SFRSYM    DATA     BIT       P1_B4
      00000080H.5 SFRSYM    DATA     BIT       P0_B5
      00000090H.5 SFRSYM    DATA     BIT       P1_B5
      00000080H.6 SFRSYM    DATA     BIT       P0_B6
      00000090H.6 SFRSYM    DATA     BIT       P1_B6
      00000080H.7 SFRSYM    DATA     BIT       P0_B7
      00000090H.7 SFRSYM    DATA     BIT       P1_B7
      00000080H.2 SFRSYM    DATA     BIT       BSP_BTN0
      00000083H   SFRSYM    DATA     BYTE      DPH
      000000C4H   SFRSYM    DATA     BYTE      ADC0GTH
      000000C8H.7 SFRSYM    DATA     BIT       TMR2CN0_TF2H
      000000C8H.3 SFRSYM    DATA     BIT       TMR2CN0_T2SPLIT
      000000D0H.6 SFRSYM    DATA     BIT       PSW_AC
      000000F8H   SFRSYM    DATA     BYTE      SPI0CN0
      000000C7H   SFRSYM    DATA     BYTE      HFO0CAL
      00000088H.5 SFRSYM    DATA     BIT       TCON_TF0
      00000098H   SFRSYM    DATA     BIT       SCON0_RI
      00000082H   SFRSYM    DATA     BYTE      DPL
      00000088H.7 SFRSYM    DATA     BIT       TCON_TF1
      00000099H   SFRSYM    DATA     BYTE      SBUF0
      00000087H   SFRSYM    DATA     BYTE      PCON0
      000000C3H   SFRSYM    DATA     BYTE      ADC0GTL
      000000C8H.6 SFRSYM    DATA     BIT       TMR2CN0_TF2L
      00000098H.1 SFRSYM    DATA     BIT       SCON0_TI
      000000E8H   SFRSYM    DATA     BIT       ADC0CN0_ADCM0
      000000C6H   SFRSYM    DATA     BYTE      ADC0LTH
      00000088H   SFRSYM    DATA     BIT       TCON_IT0
      000000E8H.1 SFRSYM    DATA     BIT       ADC0CN0_ADCM1
      000000EFH   SFRSYM    DATA     BYTE      RSTSRC
      000000FDH   SFRSYM    DATA     BYTE      P0MAT
      000000DEH   SFRSYM    DATA     BYTE      CRC0DAT
      00000088H.2 SFRSYM    DATA     BIT       TCON_IT1
      000000E8H.2 SFRSYM    DATA     BIT       ADC0CN0_ADCM2
      00000098H   SFRSYM    DATA     BYTE      SCON0
      000000F6H   SFRSYM    DATA     BYTE      PRTDRV
      000000EDH   SFRSYM    DATA     BYTE      P1MAT
      000000E8H.3 SFRSYM    DATA     BIT       ADC0CN0_ADWINT
      000000E8H.4 SFRSYM    DATA     BIT       ADC0CN0_ADBUSY
      000000D6H   SFRSYM    DATA     BYTE      SMB0ADM
      000000C5H   SFRSYM    DATA     BYTE      ADC0LTL
      000000F8H.5 SFRSYM    DATA     BIT       SPI0CN0_MODF
      000000B8H.6 SFRSYM    DATA     BIT       IP_PSPI0
      0000009CH   SFRSYM    DATA     BYTE      PCA0CLR
      000000C8H   SFRSYM    DATA     BYTE      TMR2CN0
      00000091H   SFRSYM    DATA     BYTE      TMR3CN0
      000000D7H   SFRSYM    DATA     BYTE      SMB0ADR
      00000088H.4 SFRSYM    DATA     BIT       TCON_TR0
      000000C8H.4 SFRSYM    DATA     BIT       TMR2CN0_TF2CEN
      00000088H.6 SFRSYM    DATA     BIT       TCON_TR1
      000000C2H   SFRSYM    DATA     BYTE      SMB0DAT
      000000CDH   SFRSYM    DATA     BYTE      TMR2H
      000000A1H   SFRSYM    DATA     BYTE      SPI0CFG
      00000095H   SFRSYM    DATA     BYTE      TMR3H
      000000D3H   SFRSYM    DATA     BYTE      CRC0CNT
      00000096H   SFRSYM    DATA     BYTE      PCA0POL
      000000CCH   SFRSYM    DATA     BYTE      TMR2L
      000000F8H.7 SFRSYM    DATA     BIT       SPI0CN0_SPIF
      00000094H   SFRSYM    DATA     BYTE      TMR3L
LX51 LINKER/LOCATER V4.66.30.0                                                        01/29/2020  13:56:08  PAGE 24


      000000DFH   SFRSYM    DATA     BYTE      ADC0PWR
      000000A8H.7 SFRSYM    DATA     BIT       IE_EA
      000000C8H.5 SFRSYM    DATA     BIT       TMR2CN0_TF2LEN
      000000F8H.6 SFRSYM    DATA     BIT       SPI0CN0_WCOL
      000000F8H.2 SFRSYM    DATA     BIT       SPI0CN0_NSSMD0
      000000D0H.7 SFRSYM    DATA     BIT       PSW_CY
      000000A3H   SFRSYM    DATA     BYTE      SPI0DAT
      000000F8H.3 SFRSYM    DATA     BIT       SPI0CN0_NSSMD1
      000000BDH   SFRSYM    DATA     WORD      ADC0
      000000D0H   SFRSYM    DATA     BYTE      PSW
      000000F7H   SFRSYM    DATA     BYTE      PCA0PWM
      000000B6H   SFRSYM    DATA     BYTE      REVID
      000000B7H   SFRSYM    DATA     BYTE      FLKEY
      000000B3H   SFRSYM    DATA     BYTE      ADC0AC
      01001D4EH   SYMBOL    CODE     ---       _APP_tune_callback
      0100005EH   SYMBOL    CODE     ---       APP_reset

      01000003H   BLOCK     CODE     ---       LVL=0
      01000003H   LINE      CODE     ---       #34
      01000003H   LINE      CODE     ---       #35
      01000003H   LINE      CODE     ---       #36
      01000006H   LINE      CODE     ---       #37
      01000009H   LINE      CODE     ---       #38
      ---         BLOCKEND  ---      ---       LVL=0

      0100192DH   BLOCK     CODE     ---       LVL=0
      0100192DH   LINE      CODE     ---       #44
      0100192DH   LINE      CODE     ---       #45
      0100192DH   LINE      CODE     ---       #46
      01001930H   LINE      CODE     ---       #47
      01001933H   LINE      CODE     ---       #48
      01001936H   LINE      CODE     ---       #49
      01001939H   LINE      CODE     ---       #50
      01001942H   LINE      CODE     ---       #51
      0100194BH   LINE      CODE     ---       #52
      0100194EH   LINE      CODE     ---       #53
      01001951H   LINE      CODE     ---       #54
      01001954H   LINE      CODE     ---       #56
      01001956H   LINE      CODE     ---       #57
      01001956H   LINE      CODE     ---       #58
      01001956H   LINE      CODE     ---       #59
      01001959H   LINE      CODE     ---       #60
      0100195CH   LINE      CODE     ---       #61
      0100195FH   LINE      CODE     ---       #62
      01001962H   LINE      CODE     ---       #63
      ---         BLOCKEND  ---      ---       LVL=0

      01001B84H   BLOCK     CODE     ---       LVL=0
      01001B84H   LINE      CODE     ---       #85
      01001B84H   LINE      CODE     ---       #86
      01001B84H   LINE      CODE     ---       #87
      01001B87H   LINE      CODE     ---       #88
      01001B8AH   LINE      CODE     ---       #89
      01001B8DH   LINE      CODE     ---       #96
      01001B90H   LINE      CODE     ---       #97
      01001B93H   LINE      CODE     ---       #100
      01001B96H   LINE      CODE     ---       #103
      01001B99H   LINE      CODE     ---       #112
      01001B9CH   LINE      CODE     ---       #113
      01001B9FH   LINE      CODE     ---       #118
      01001BA2H   LINE      CODE     ---       #119
      01001BA5H   LINE      CODE     ---       #120
LX51 LINKER/LOCATER V4.66.30.0                                                        01/29/2020  13:56:08  PAGE 25


      01001BA8H   LINE      CODE     ---       #122
      ---         BLOCKEND  ---      ---       LVL=0

      01001D4EH   BLOCK     CODE     ---       LVL=0
      00000006H   SYMBOL    DATA     WORD      pwm
      00000004H   SYMBOL    DATA     WORD      disp
      01001D4EH   LINE      CODE     ---       #249
      01001D4EH   LINE      CODE     ---       #250
      01001D4EH   LINE      CODE     ---       #252
      01001D4EH   LINE      CODE     ---       #253
      01001D50H   LINE      CODE     ---       #254
      ---         BLOCKEND  ---      ---       LVL=0

      0100005EH   BLOCK     CODE     ---       LVL=0
      0100005EH   LINE      CODE     ---       #266
      0100005EH   LINE      CODE     ---       #267
      0100005EH   LINE      CODE     ---       #268
      01000061H   LINE      CODE     ---       #269
      01000062H   LINE      CODE     ---       #270
      ---         BLOCKEND  ---      ---       LVL=0

      ---         MODULE    ---      ---       MCP_CORE
      00000017H   PUBLIC    DATA     ---       MCP_reset_callback
      0200006BH   PUBLIC    XDATA    ---       mcp_tune
      02000069H   PUBLIC    XDATA    ---       mcp_status
      02000057H   PUBLIC    XDATA    ---       mcp
      00000008H   PUBLIC    DATA     ---       _MCP_tune_callback
      01001D44H   PUBLIC    CODE     ---       MCP_task
      01001B5EH   PUBLIC    CODE     ---       MCP_init
      000000A2H   SFRSYM    DATA     BYTE      SPI0CKR
      00000080H   SFRSYM    DATA     BYTE      P0
      000000D0H.2 SFRSYM    DATA     BIT       PSW_OV
      00000090H   SFRSYM    DATA     BYTE      P1
      00000097H   SFRSYM    DATA     BYTE      WDTCN
      000000A0H   SFRSYM    DATA     BYTE      P2
      000000BCH   SFRSYM    DATA     BYTE      ADC0CF
      000000C8H   SFRSYM    DATA     BIT       TMR2CN0_T2XCLK
      000000C0H.7 SFRSYM    DATA     BIT       SMB0CN0_MASTER
      000000F9H   SFRSYM    DATA     WORD      PCA0
      000000E6H   SFRSYM    DATA     BYTE      EIE1
      000000C0H.1 SFRSYM    DATA     BIT       SMB0CN0_ACK
      0000008FH   SFRSYM    DATA     BYTE      PSCTL
      000000E4H   SFRSYM    DATA     BYTE      IT01CF
      000000C0H.6 SFRSYM    DATA     BIT       SMB0CN0_TXMODE
      000000ADH   SFRSYM    DATA     BYTE      DERIVID
      000000A4H   SFRSYM    DATA     BYTE      P0MDOUT
      000000A5H   SFRSYM    DATA     BYTE      P1MDOUT
      000000E8H.5 SFRSYM    DATA     BIT       ADC0CN0_ADINT
      000000CBH   SFRSYM    DATA     BYTE      TMR2RLH
      000000A6H   SFRSYM    DATA     BYTE      P2MDOUT
      000000A8H   SFRSYM    DATA     BYTE      IE
      00000093H   SFRSYM    DATA     BYTE      TMR3RLH
      000000F3H   SFRSYM    DATA     BYTE      EIP1
      00000098H.2 SFRSYM    DATA     BIT       SCON0_RB8
      000000CAH   SFRSYM    DATA     BYTE      TMR2RLL
      000000FCH   SFRSYM    DATA     BYTE      PCA0CPH0
      00000092H   SFRSYM    DATA     BYTE      TMR3RLL
      000000EAH   SFRSYM    DATA     BYTE      PCA0CPH1
      00000098H.3 SFRSYM    DATA     BIT       SCON0_TB8
      000000F0H   SFRSYM    DATA     BIT       B_B0
      00000082H   SFRSYM    DATA     WORD      DP
      000000ECH   SFRSYM    DATA     BYTE      PCA0CPH2
LX51 LINKER/LOCATER V4.66.30.0                                                        01/29/2020  13:56:08  PAGE 26


      000000A0H.1 SFRSYM    DATA     BIT       BTN0
      000000F0H.1 SFRSYM    DATA     BIT       B_B1
      000000C3H   SFRSYM    DATA     WORD      ADC0GT
      00000090H.1 SFRSYM    DATA     BIT       BTN1
      000000F0H.2 SFRSYM    DATA     BIT       B_B2
      000000FBH   SFRSYM    DATA     BYTE      PCA0CPL0
      000000F0H.3 SFRSYM    DATA     BIT       B_B3
      000000D9H   SFRSYM    DATA     BYTE      PCA0MD
      000000DAH   SFRSYM    DATA     BYTE      PCA0CPM0
      000000E9H   SFRSYM    DATA     BYTE      PCA0CPL1
      000000F0H.4 SFRSYM    DATA     BIT       B_B4
      000000DBH   SFRSYM    DATA     BYTE      PCA0CPM1
      000000EBH   SFRSYM    DATA     BYTE      PCA0CPL2
      000000F0H.5 SFRSYM    DATA     BIT       B_B5
      000000DCH   SFRSYM    DATA     BYTE      PCA0CPM2
      000000B8H   SFRSYM    DATA     BYTE      IP
      000000B9H   SFRSYM    DATA     BYTE      ADC0TK
      000000F0H.6 SFRSYM    DATA     BIT       B_B6
      000000C5H   SFRSYM    DATA     WORD      ADC0LT
      00000098H.5 SFRSYM    DATA     BIT       SCON0_MCE
      000000F0H.7 SFRSYM    DATA     BIT       B_B7
      000000E1H   SFRSYM    DATA     BYTE      XBR0
      000000C1H   SFRSYM    DATA     BYTE      SMB0CF
      000000E2H   SFRSYM    DATA     BYTE      XBR1
      000000C0H.5 SFRSYM    DATA     BIT       SMB0CN0_STA
      000000E3H   SFRSYM    DATA     BYTE      XBR2
      000000BBH   SFRSYM    DATA     BYTE      ADC0MX
      000000E0H   SFRSYM    DATA     BIT       ACC_ACC0
      000000D1H   SFRSYM    DATA     BYTE      REF0CN
      0000008EH   SFRSYM    DATA     BYTE      CKCON0
      000000E0H.1 SFRSYM    DATA     BIT       ACC_ACC1
      000000C9H   SFRSYM    DATA     BYTE      REG0CN
      000000DDH   SFRSYM    DATA     BYTE      CRC0IN
      000000C8H.2 SFRSYM    DATA     BIT       TMR2CN0_TR2
      000000E0H.2 SFRSYM    DATA     BIT       ACC_ACC2
      000000E0H.3 SFRSYM    DATA     BIT       ACC_ACC3
      00000081H   SFRSYM    DATA     BYTE      SP
      0000009DH   SFRSYM    DATA     BYTE      CMP0MD
      000000E0H.4 SFRSYM    DATA     BIT       ACC_ACC4
      000000B1H   SFRSYM    DATA     BYTE      LFO0CN
      000000ABH   SFRSYM    DATA     BYTE      CMP1MD
      000000D8H   SFRSYM    DATA     BIT       PCA0CN0_CCF0
      000000E0H.5 SFRSYM    DATA     BIT       ACC_ACC5
      000000D8H.1 SFRSYM    DATA     BIT       PCA0CN0_CCF1
      000000E0H.6 SFRSYM    DATA     BIT       ACC_ACC6
      000000CCH   SFRSYM    DATA     WORD      TMR2
      000000D8H.2 SFRSYM    DATA     BIT       PCA0CN0_CCF2
      000000E0H.7 SFRSYM    DATA     BIT       ACC_ACC7
      00000094H   SFRSYM    DATA     WORD      TMR3
      000000C0H.3 SFRSYM    DATA     BIT       SMB0CN0_ACKRQ
      000000FFH   SFRSYM    DATA     BYTE      VDM0CN
      000000F1H   SFRSYM    DATA     BYTE      P0MDIN
      00000098H.4 SFRSYM    DATA     BIT       SCON0_REN
      000000ACH   SFRSYM    DATA     BYTE      SMB0TC
      000000F2H   SFRSYM    DATA     BYTE      P1MDIN
      000000C0H.4 SFRSYM    DATA     BIT       SMB0CN0_STO
      000000FEH   SFRSYM    DATA     BYTE      P0MASK
      000000EEH   SFRSYM    DATA     BYTE      P1MASK
      000000D0H.3 SFRSYM    DATA     BIT       PSW_RS0
      000000D8H.7 SFRSYM    DATA     BIT       PCA0CN0_CF
      0000009EH   SFRSYM    DATA     BYTE      PCA0CENT
      000000F8H.4 SFRSYM    DATA     BIT       SPI0CN0_RXOVRN
LX51 LINKER/LOCATER V4.66.30.0                                                        01/29/2020  13:56:08  PAGE 27


      000000D0H.4 SFRSYM    DATA     BIT       PSW_RS1
      000000E8H.7 SFRSYM    DATA     BIT       ADC0CN0_ADEN
      00000089H   SFRSYM    DATA     BYTE      TMOD
      00000088H   SFRSYM    DATA     BYTE      TCON
      000000CFH   SFRSYM    DATA     BYTE      CRC0FLIP
      000000D0H   SFRSYM    DATA     BIT       PSW_PARITY
      000000A8H.4 SFRSYM    DATA     BIT       IE_ES0
      0000009FH   SFRSYM    DATA     BYTE      CMP0MX
      000000A8H.1 SFRSYM    DATA     BIT       IE_ET0
      000000AAH   SFRSYM    DATA     BYTE      CMP1MX
      000000A8H.3 SFRSYM    DATA     BIT       IE_ET1
      000000D4H   SFRSYM    DATA     BYTE      P0SKIP
      000000A8H.5 SFRSYM    DATA     BIT       IE_ET2
      000000D5H   SFRSYM    DATA     BYTE      P1SKIP
      000000E8H   SFRSYM    DATA     BYTE      ADC0CN0
      000000A8H   SFRSYM    DATA     BIT       IE_EX0
      000000B2H   SFRSYM    DATA     BYTE      ADC0CN1
      000000D8H.6 SFRSYM    DATA     BIT       PCA0CN0_CR
      000000A8H.2 SFRSYM    DATA     BIT       IE_EX1
      00000098H.7 SFRSYM    DATA     BIT       SCON0_SMODE
      000000B5H   SFRSYM    DATA     BYTE      DEVICEID
      000000A9H   SFRSYM    DATA     BYTE      CLKSEL
      000000F8H   SFRSYM    DATA     BIT       SPI0CN0_SPIEN
      000000F0H   SFRSYM    DATA     BYTE      B
      000000BEH   SFRSYM    DATA     BYTE      ADC0H
      000000D2H   SFRSYM    DATA     BYTE      CRC0AUTO
      000000E8H.6 SFRSYM    DATA     BIT       ADC0CN0_ADBMEN
      000000CAH   SFRSYM    DATA     WORD      TMR2RL
      000000BDH   SFRSYM    DATA     BYTE      ADC0L
      00000092H   SFRSYM    DATA     WORD      TMR3RL
      000000D8H   SFRSYM    DATA     BYTE      PCA0CN0
      000000E0H   SFRSYM    DATA     BYTE      ACC
      000000FBH   SFRSYM    DATA     WORD      PCA0CP0
      000000E9H   SFRSYM    DATA     WORD      PCA0CP1
      000000EBH   SFRSYM    DATA     WORD      PCA0CP2
      000000CEH   SFRSYM    DATA     BYTE      CRC0CN0
      00000090H.4 SFRSYM    DATA     BIT       BSP_LED0
      0000008CH   SFRSYM    DATA     BYTE      TH0
      000000B8H.4 SFRSYM    DATA     BIT       IP_PS0
      0000008DH   SFRSYM    DATA     BYTE      TH1
      000000FAH   SFRSYM    DATA     BYTE      PCA0H
      000000B8H.1 SFRSYM    DATA     BIT       IP_PT0
      000000B8H.3 SFRSYM    DATA     BIT       IP_PT1
      000000C0H.2 SFRSYM    DATA     BIT       SMB0CN0_ARBLOST
      000000B8H.5 SFRSYM    DATA     BIT       IP_PT2
      0000008AH   SFRSYM    DATA     BYTE      TL0
      000000F8H.1 SFRSYM    DATA     BIT       SPI0CN0_TXBMT
      000000D0H.5 SFRSYM    DATA     BIT       PSW_F0
      000000A8H.6 SFRSYM    DATA     BIT       IE_ESPI0
      0000008BH   SFRSYM    DATA     BYTE      TL1
      000000F9H   SFRSYM    DATA     BYTE      PCA0L
      000000C0H   SFRSYM    DATA     BIT       SMB0CN0_SI
      000000D0H.1 SFRSYM    DATA     BIT       PSW_F1
      00000080H   SFRSYM    DATA     BIT       P0_B0
      000000B8H   SFRSYM    DATA     BIT       IP_PX0
      00000090H   SFRSYM    DATA     BIT       P1_B0
      00000080H.1 SFRSYM    DATA     BIT       P0_B1
      000000B8H.2 SFRSYM    DATA     BIT       IP_PX1
      0000009BH   SFRSYM    DATA     BYTE      CMP0CN0
      00000088H.1 SFRSYM    DATA     BIT       TCON_IE0
      000000A0H   SFRSYM    DATA     BIT       P2_B0
      00000090H.1 SFRSYM    DATA     BIT       P1_B1
LX51 LINKER/LOCATER V4.66.30.0                                                        01/29/2020  13:56:08  PAGE 28


      00000080H.2 SFRSYM    DATA     BIT       P0_B2
      000000BFH   SFRSYM    DATA     BYTE      CMP1CN0
      00000088H.3 SFRSYM    DATA     BIT       TCON_IE1
      000000A0H.1 SFRSYM    DATA     BIT       P2_B1
      00000090H.2 SFRSYM    DATA     BIT       P1_B2
      00000080H.3 SFRSYM    DATA     BIT       P0_B3
      000000C0H   SFRSYM    DATA     BYTE      SMB0CN0
      00000090H.3 SFRSYM    DATA     BIT       P1_B3
      00000080H.4 SFRSYM    DATA     BIT       P0_B4
      00000090H.4 SFRSYM    DATA     BIT       P1_B4
      00000080H.5 SFRSYM    DATA     BIT       P0_B5
      00000090H.5 SFRSYM    DATA     BIT       P1_B5
      00000080H.6 SFRSYM    DATA     BIT       P0_B6
      00000090H.6 SFRSYM    DATA     BIT       P1_B6
      00000080H.7 SFRSYM    DATA     BIT       P0_B7
      00000090H.7 SFRSYM    DATA     BIT       P1_B7
      00000080H.2 SFRSYM    DATA     BIT       BSP_BTN0
      00000083H   SFRSYM    DATA     BYTE      DPH
      000000C4H   SFRSYM    DATA     BYTE      ADC0GTH
      000000C8H.7 SFRSYM    DATA     BIT       TMR2CN0_TF2H
      000000C8H.3 SFRSYM    DATA     BIT       TMR2CN0_T2SPLIT
      000000D0H.6 SFRSYM    DATA     BIT       PSW_AC
      000000F8H   SFRSYM    DATA     BYTE      SPI0CN0
      000000C7H   SFRSYM    DATA     BYTE      HFO0CAL
      00000088H.5 SFRSYM    DATA     BIT       TCON_TF0
      00000098H   SFRSYM    DATA     BIT       SCON0_RI
      00000082H   SFRSYM    DATA     BYTE      DPL
      00000088H.7 SFRSYM    DATA     BIT       TCON_TF1
      00000099H   SFRSYM    DATA     BYTE      SBUF0
      00000087H   SFRSYM    DATA     BYTE      PCON0
      000000C3H   SFRSYM    DATA     BYTE      ADC0GTL
      000000C8H.6 SFRSYM    DATA     BIT       TMR2CN0_TF2L
      00000098H.1 SFRSYM    DATA     BIT       SCON0_TI
      000000E8H   SFRSYM    DATA     BIT       ADC0CN0_ADCM0
      000000C6H   SFRSYM    DATA     BYTE      ADC0LTH
      00000088H   SFRSYM    DATA     BIT       TCON_IT0
      000000E8H.1 SFRSYM    DATA     BIT       ADC0CN0_ADCM1
      000000EFH   SFRSYM    DATA     BYTE      RSTSRC
      000000FDH   SFRSYM    DATA     BYTE      P0MAT
      000000DEH   SFRSYM    DATA     BYTE      CRC0DAT
      00000088H.2 SFRSYM    DATA     BIT       TCON_IT1
      000000E8H.2 SFRSYM    DATA     BIT       ADC0CN0_ADCM2
      00000098H   SFRSYM    DATA     BYTE      SCON0
      000000F6H   SFRSYM    DATA     BYTE      PRTDRV
      000000EDH   SFRSYM    DATA     BYTE      P1MAT
      000000E8H.3 SFRSYM    DATA     BIT       ADC0CN0_ADWINT
      000000E8H.4 SFRSYM    DATA     BIT       ADC0CN0_ADBUSY
      000000D6H   SFRSYM    DATA     BYTE      SMB0ADM
      000000C5H   SFRSYM    DATA     BYTE      ADC0LTL
      000000F8H.5 SFRSYM    DATA     BIT       SPI0CN0_MODF
      000000B8H.6 SFRSYM    DATA     BIT       IP_PSPI0
      0000009CH   SFRSYM    DATA     BYTE      PCA0CLR
      000000C8H   SFRSYM    DATA     BYTE      TMR2CN0
      00000091H   SFRSYM    DATA     BYTE      TMR3CN0
      000000D7H   SFRSYM    DATA     BYTE      SMB0ADR
      00000088H.4 SFRSYM    DATA     BIT       TCON_TR0
      000000C8H.4 SFRSYM    DATA     BIT       TMR2CN0_TF2CEN
      00000088H.6 SFRSYM    DATA     BIT       TCON_TR1
      000000C2H   SFRSYM    DATA     BYTE      SMB0DAT
      000000CDH   SFRSYM    DATA     BYTE      TMR2H
      000000A1H   SFRSYM    DATA     BYTE      SPI0CFG
      00000095H   SFRSYM    DATA     BYTE      TMR3H
LX51 LINKER/LOCATER V4.66.30.0                                                        01/29/2020  13:56:08  PAGE 29


      000000D3H   SFRSYM    DATA     BYTE      CRC0CNT
      00000096H   SFRSYM    DATA     BYTE      PCA0POL
      000000CCH   SFRSYM    DATA     BYTE      TMR2L
      000000F8H.7 SFRSYM    DATA     BIT       SPI0CN0_SPIF
      00000094H   SFRSYM    DATA     BYTE      TMR3L
      000000DFH   SFRSYM    DATA     BYTE      ADC0PWR
      000000A8H.7 SFRSYM    DATA     BIT       IE_EA
      000000C8H.5 SFRSYM    DATA     BIT       TMR2CN0_TF2LEN
      000000F8H.6 SFRSYM    DATA     BIT       SPI0CN0_WCOL
      000000F8H.2 SFRSYM    DATA     BIT       SPI0CN0_NSSMD0
      000000D0H.7 SFRSYM    DATA     BIT       PSW_CY
      000000A3H   SFRSYM    DATA     BYTE      SPI0DAT
      000000F8H.3 SFRSYM    DATA     BIT       SPI0CN0_NSSMD1
      000000BDH   SFRSYM    DATA     WORD      ADC0
      000000D0H   SFRSYM    DATA     BYTE      PSW
      000000F7H   SFRSYM    DATA     BYTE      PCA0PWM
      000000B6H   SFRSYM    DATA     BYTE      REVID
      000000B7H   SFRSYM    DATA     BYTE      FLKEY
      000000B3H   SFRSYM    DATA     BYTE      ADC0AC
      010007EBH   SYMBOL    CODE     ---       MCP_process_command
      01001BA9H   SYMBOL    CODE     ---       MCP_get_register_address
      00000093H   SYMBOL    IDATA    ---       MCP_numcnvbuf
      0000000BH   SYMBOL    DATA     BYTE      MCP_cmd_type
      0000009DH   SYMBOL    IDATA    ---       MCP_command
      00000021H.7 SYMBOL    BIT      BIT       MCP_temp1
      01000D65H   SYMBOL    CODE     ---       MCP_command_task
      0000000CH   SYMBOL    DATA     BYTE      MCP_temp8_1
      0000000DH   SYMBOL    DATA     BYTE      MCP_temp8_2
      02000059H   SYMBOL    XDATA    ---       MCP_status_buffer
      01001144H   SYMBOL    CODE     ---       MCP_update_status
      010019D2H   SYMBOL    CODE     ---       _MCP_hex_to_dec
      01001C29H   SYMBOL    CODE     ---       _MCP_send_ascii_value
      0000000EH   SYMBOL    DATA     ---       MCP_command_ptr
      010015D6H   SYMBOL    CODE     ---       _MCP_dec_to_ascnumbuf
      0000000FH   SYMBOL    DATA     BYTE      MCP_status_head
      00000022H.0 SYMBOL    BIT      BIT       MCP_txqueue_lock
      01001398H   SYMBOL    CODE     ---       MCP_status_update_task
      00000010H   SYMBOL    DATA     BYTE      MCP_mode
      01001633H   SYMBOL    CODE     ---       MCP_receive_command
      00000011H   SYMBOL    DATA     ---       MCP_command_ptr_2
      00000012H   SYMBOL    DATA     WORD      MCP_temp16_1
      00000014H   SYMBOL    DATA     WORD      MCP_temp16_2
      00000016H   SYMBOL    DATA     BYTE      MCP_status_tail
      0100000EH   SYMBOL    CODE     ---       MCP_init_commandbuf
      00000022H.1 SYMBOL    BIT      BIT       MCP_reset_cmd

      01001B5EH   BLOCK     CODE     ---       LVL=0
      01001B5EH   LINE      CODE     ---       #180
      01001B5EH   LINE      CODE     ---       #181
      01001B5EH   LINE      CODE     ---       #182
      01001B60H   LINE      CODE     ---       #183
      01001B63H   LINE      CODE     ---       #184
      01001B66H   LINE      CODE     ---       #186
      01001B69H   LINE      CODE     ---       #187
      01001B6CH   LINE      CODE     ---       #194
      01001B6FH   LINE      CODE     ---       #195
      01001B72H   LINE      CODE     ---       #197
      01001B74H   LINE      CODE     ---       #199
      01001B7BH   LINE      CODE     ---       #205
      01001B81H   LINE      CODE     ---       #207
      ---         BLOCKEND  ---      ---       LVL=0

LX51 LINKER/LOCATER V4.66.30.0                                                        01/29/2020  13:56:08  PAGE 30


      01001D44H   BLOCK     CODE     ---       LVL=0
      01001D44H   LINE      CODE     ---       #225
      01001D44H   LINE      CODE     ---       #226
      01001D44H   LINE      CODE     ---       #227
      01001D47H   LINE      CODE     ---       #228
      ---         BLOCKEND  ---      ---       LVL=0

      010015D6H   BLOCK     CODE     ---       LVL=0
      0000005FH   SYMBOL    DATA     DWORD     value
      010015DEH   BLOCK     CODE     NEAR LAB  LVL=1
      00000063H   SYMBOL    DATA     BYTE      idx
      00000007H   SYMBOL    DATA     BYTE      bval
      ---         BLOCKEND  ---      ---       LVL=1
      010015D6H   LINE      CODE     ---       #352
      010015DEH   LINE      CODE     ---       #353
      010015DEH   LINE      CODE     ---       #358
      010015E1H   LINE      CODE     ---       #359
      010015E1H   LINE      CODE     ---       #360
      010015F2H   LINE      CODE     ---       #361
      010015FDH   LINE      CODE     ---       #362
      01001616H   LINE      CODE     ---       #363
      01001629H   LINE      CODE     ---       #364
      01001629H   LINE      CODE     ---       #365
      01001629H   LINE      CODE     ---       #366
      01001629H   LINE      CODE     ---       #367
      01001630H   LINE      CODE     ---       #369
      01001632H   LINE      CODE     ---       #370
      ---         BLOCKEND  ---      ---       LVL=0

      0100000EH   BLOCK     CODE     ---       LVL=0
      0100000EH   LINE      CODE     ---       #387
      0100000EH   LINE      CODE     ---       #388
      0100000EH   LINE      CODE     ---       #390
      01000017H   LINE      CODE     ---       #391
      01000017H   LINE      CODE     ---       #392
      0100001BH   LINE      CODE     ---       #393
      0100001FH   LINE      CODE     ---       #395
      01000022H   LINE      CODE     ---       #396
      ---         BLOCKEND  ---      ---       LVL=0

      01000D65H   BLOCK     CODE     ---       LVL=0
      01000D65H   BLOCK     CODE     NEAR LAB  LVL=1
      0000005DH   SYMBOL    DATA     CHAR      PT_YIELD_FLAG
      ---         BLOCKEND  ---      ---       LVL=1
      01000D65H   LINE      CODE     ---       #419
      01000D65H   LINE      CODE     ---       #420
      01000D65H   LINE      CODE     ---       #421
      01000D8CH   LINE      CODE     ---       #423
      01000D8CH   LINE      CODE     ---       #424
      01000D8CH   LINE      CODE     ---       #425
      01000DA4H   LINE      CODE     ---       #427
      01000DA9H   LINE      CODE     ---       #428
      01000DA9H   LINE      CODE     ---       #429
      01000DACH   LINE      CODE     ---       #432
      01000DB2H   LINE      CODE     ---       #433
      01000DB2H   LINE      CODE     ---       #434
      01000DB5H   LINE      CODE     ---       #435
      01000DB5H   LINE      CODE     ---       #436
      01000DB7H   LINE      CODE     ---       #437
      01000DBBH   LINE      CODE     ---       #438
      01000DBBH   LINE      CODE     ---       #440
      01000DC0H   LINE      CODE     ---       #441
LX51 LINKER/LOCATER V4.66.30.0                                                        01/29/2020  13:56:08  PAGE 31


      01000DC0H   LINE      CODE     ---       #463
      01000DC6H   LINE      CODE     ---       #464
      01000DC6H   LINE      CODE     ---       #465
      01000DCEH   LINE      CODE     ---       #466
      01000DD6H   LINE      CODE     ---       #467
      01000DD6H   LINE      CODE     ---       #468
      01000DD6H   LINE      CODE     ---       #469
      01000DD8H   LINE      CODE     ---       #471
      01000DD8H   LINE      CODE     ---       #472
      01000DE0H   LINE      CODE     ---       #473
      01000DE8H   LINE      CODE     ---       #474
      01000DF0H   LINE      CODE     ---       #475
      01000DF8H   LINE      CODE     ---       #476
      01000E00H   LINE      CODE     ---       #477
      01000E08H   LINE      CODE     ---       #478
      01000E08H   LINE      CODE     ---       #479
      01000E08H   LINE      CODE     ---       #482
      01000E0EH   LINE      CODE     ---       #483
      01000E0EH   LINE      CODE     ---       #484
      01000E11H   LINE      CODE     ---       #486
      01000E28H   LINE      CODE     ---       #487
      01000E2AH   LINE      CODE     ---       #489
      01000E30H   LINE      CODE     ---       #490
      01000E30H   LINE      CODE     ---       #491
      01000E4BH   LINE      CODE     ---       #492
      01000E52H   LINE      CODE     ---       #493
      01000E54H   LINE      CODE     ---       #494
      01000E56H   LINE      CODE     ---       #495
      01000E58H   LINE      CODE     ---       #496
      01000E58H   LINE      CODE     ---       #499
      01000E5BH   LINE      CODE     ---       #500
      01000E5BH   LINE      CODE     ---       #501
      01000E74H   LINE      CODE     ---       #503
      01000E77H   LINE      CODE     ---       #504
      01000E7EH   LINE      CODE     ---       #505
      01000E7EH   LINE      CODE     ---       #506
      01000E80H   LINE      CODE     ---       #507
      01000E82H   LINE      CODE     ---       #509
      01000E85H   LINE      CODE     ---       #510
      01000E87H   LINE      CODE     ---       #511
      01000E87H   LINE      CODE     ---       #514
      01000E8AH   LINE      CODE     ---       #517
      01000E8DH   LINE      CODE     ---       #518
      01000E90H   LINE      CODE     ---       #520
      01000E9BH   LINE      CODE     ---       #521
      ---         BLOCKEND  ---      ---       LVL=0

      01001398H   BLOCK     CODE     ---       LVL=0
      010013A0H   BLOCK     CODE     NEAR LAB  LVL=1
      0000005DH   SYMBOL    DATA     CHAR      PT_YIELD_FLAG
      ---         BLOCKEND  ---      ---       LVL=1
      01001398H   LINE      CODE     ---       #544
      01001398H   LINE      CODE     ---       #545
      01001398H   LINE      CODE     ---       #546
      0100139DH   LINE      CODE     ---       #547
      0100139DH   LINE      CODE     ---       #548
      010013A0H   LINE      CODE     ---       #549
      010013A0H   LINE      CODE     ---       #551
      010013BFH   LINE      CODE     ---       #553
      010013BFH   LINE      CODE     ---       #554
      010013BFH   LINE      CODE     ---       #555
      010013D5H   LINE      CODE     ---       #557
LX51 LINKER/LOCATER V4.66.30.0                                                        01/29/2020  13:56:08  PAGE 32


      010013D7H   LINE      CODE     ---       #558
      010013DDH   LINE      CODE     ---       #559
      010013DDH   LINE      CODE     ---       #560
      010013F8H   LINE      CODE     ---       #561
      01001403H   LINE      CODE     ---       #562
      0100140DH   LINE      CODE     ---       #563
      0100140FH   LINE      CODE     ---       #564
      01001411H   LINE      CODE     ---       #565
      01001413H   LINE      CODE     ---       #566
      0100141EH   LINE      CODE     ---       #567
      ---         BLOCKEND  ---      ---       LVL=0

      01001633H   BLOCK     CODE     ---       LVL=0
      01001633H   LINE      CODE     ---       #632
      01001633H   LINE      CODE     ---       #633
      01001633H   LINE      CODE     ---       #634
      0100163BH   LINE      CODE     ---       #635
      0100163BH   LINE      CODE     ---       #636
      0100163FH   LINE      CODE     ---       #638
      01001645H   LINE      CODE     ---       #639
      01001645H   LINE      CODE     ---       #640
      01001656H   LINE      CODE     ---       #643
      01001656H   LINE      CODE     ---       #644
      01001659H   LINE      CODE     ---       #645
      0100165BH   LINE      CODE     ---       #646
      0100165BH   LINE      CODE     ---       #647
      0100166CH   LINE      CODE     ---       #650
      0100166CH   LINE      CODE     ---       #651
      0100166FH   LINE      CODE     ---       #652
      01001671H   LINE      CODE     ---       #653
      01001671H   LINE      CODE     ---       #654
      01001671H   LINE      CODE     ---       #655
      01001677H   LINE      CODE     ---       #656
      01001677H   LINE      CODE     ---       #657
      01001679H   LINE      CODE     ---       #658
      01001679H   LINE      CODE     ---       #660
      0100167BH   LINE      CODE     ---       #662
      01001680H   LINE      CODE     ---       #663
      01001680H   LINE      CODE     ---       #665
      01001687H   LINE      CODE     ---       #666
      0100168AH   LINE      CODE     ---       #667
      0100168CH   LINE      CODE     ---       #668
      0100168CH   LINE      CODE     ---       #669
      0100168CH   LINE      CODE     ---       #670
      0100168DH   LINE      CODE     ---       #671
      ---         BLOCKEND  ---      ---       LVL=0

      010019D2H   BLOCK     CODE     ---       LVL=0
      00000007H   SYMBOL    DATA     BYTE      aschex
      010019D2H   LINE      CODE     ---       #690
      010019D2H   LINE      CODE     ---       #691
      010019D2H   LINE      CODE     ---       #692
      010019DEH   LINE      CODE     ---       #693
      010019DEH   LINE      CODE     ---       #694
      010019E3H   LINE      CODE     ---       #695
      010019E3H   LINE      CODE     ---       #696
      010019EFH   LINE      CODE     ---       #697
      010019EFH   LINE      CODE     ---       #698
      010019F4H   LINE      CODE     ---       #699
      010019F4H   LINE      CODE     ---       #700
      01001A00H   LINE      CODE     ---       #701
      01001A00H   LINE      CODE     ---       #702
LX51 LINKER/LOCATER V4.66.30.0                                                        01/29/2020  13:56:08  PAGE 33


      01001A05H   LINE      CODE     ---       #703
      01001A05H   LINE      CODE     ---       #705
      01001A07H   LINE      CODE     ---       #706
      ---         BLOCKEND  ---      ---       LVL=0

      01001BA9H   BLOCK     CODE     ---       LVL=0
      01001BA9H   BLOCK     CODE     NEAR LAB  LVL=1
      00000007H   SYMBOL    DATA     BYTE      temp_byte
      ---         BLOCKEND  ---      ---       LVL=1
      01001BA9H   LINE      CODE     ---       #724
      01001BA9H   LINE      CODE     ---       #725
      01001BA9H   LINE      CODE     ---       #728
      01001BB0H   LINE      CODE     ---       #729
      01001BB4H   LINE      CODE     ---       #730
      01001BB4H   LINE      CODE     ---       #731
      01001BBAH   LINE      CODE     ---       #732
      01001BC0H   LINE      CODE     ---       #733
      01001BC4H   LINE      CODE     ---       #734
      01001BC4H   LINE      CODE     ---       #735
      01001BC9H   LINE      CODE     ---       #736
      01001BCBH   LINE      CODE     ---       #737
      01001BCBH   LINE      CODE     ---       #738
      01001BCBH   LINE      CODE     ---       #740
      01001BCCH   LINE      CODE     ---       #741
      ---         BLOCKEND  ---      ---       LVL=0

      010007EBH   BLOCK     CODE     ---       LVL=0
      010007EBH   BLOCK     CODE     NEAR LAB  LVL=1
      00000003H   SYMBOL    DATA     BYTE      bval
      0000005EH   SYMBOL    DATA     BYTE      digit_count
      ---         BLOCKEND  ---      ---       LVL=1
      010007EBH   LINE      CODE     ---       #759
      010007EBH   LINE      CODE     ---       #760
      010007EBH   LINE      CODE     ---       #764
      010007F0H   LINE      CODE     ---       #766
      010007F5H   LINE      CODE     ---       #768
      010007FCH   LINE      CODE     ---       #769
      010007FCH   LINE      CODE     ---       #770
      01000805H   LINE      CODE     ---       #772
      01000809H   LINE      CODE     ---       #773
      0100080CH   LINE      CODE     ---       #774
      0100080FH   LINE      CODE     ---       #775
      01000812H   LINE      CODE     ---       #776
      01000815H   LINE      CODE     ---       #777
      01000818H   LINE      CODE     ---       #778
      0100081BH   LINE      CODE     ---       #779
      0100081EH   LINE      CODE     ---       #781
      01000821H   LINE      CODE     ---       #782
      01000828H   LINE      CODE     ---       #783
      01000830H   LINE      CODE     ---       #785
      01000832H   LINE      CODE     ---       #786
      01000832H   LINE      CODE     ---       #787
      01000843H   LINE      CODE     ---       #790
      01000843H   LINE      CODE     ---       #793
      01000846H   LINE      CODE     ---       #794
      0100084DH   LINE      CODE     ---       #796
      0100084FH   LINE      CODE     ---       #799
      01000851H   LINE      CODE     ---       #800
      01000851H   LINE      CODE     ---       #801
      01000856H   LINE      CODE     ---       #802
      01000856H   LINE      CODE     ---       #804
      01000859H   LINE      CODE     ---       #805
LX51 LINKER/LOCATER V4.66.30.0                                                        01/29/2020  13:56:08  PAGE 34


      0100085BH   LINE      CODE     ---       #806
      0100085BH   LINE      CODE     ---       #807
      01000860H   LINE      CODE     ---       #808
      01000860H   LINE      CODE     ---       #810
      01000863H   LINE      CODE     ---       #811
      01000866H   LINE      CODE     ---       #812
      0100086EH   LINE      CODE     ---       #815
      01000870H   LINE      CODE     ---       #816
      01000872H   LINE      CODE     ---       #817
      01000872H   LINE      CODE     ---       #818
      01000879H   LINE      CODE     ---       #819
      01000879H   LINE      CODE     ---       #820
      0100087DH   LINE      CODE     ---       #821
      0100087FH   LINE      CODE     ---       #823
      01000889H   LINE      CODE     ---       #824
      01000889H   LINE      CODE     ---       #825
      0100088BH   LINE      CODE     ---       #827
      01000891H   LINE      CODE     ---       #828
      01000897H   LINE      CODE     ---       #829
      01000897H   LINE      CODE     ---       #830
      010008AAH   LINE      CODE     ---       #831
      010008AAH   LINE      CODE     ---       #833
      010008AAH   LINE      CODE     ---       #834
      010008AAH   LINE      CODE     ---       #835
      010008AAH   LINE      CODE     ---       #836
      010008AEH   LINE      CODE     ---       #838
      010008B1H   LINE      CODE     ---       #839
      010008B1H   LINE      CODE     ---       #840
      010008B8H   LINE      CODE     ---       #841
      010008B8H   LINE      CODE     ---       #842
      010008BEH   LINE      CODE     ---       #843
      010008BEH   LINE      CODE     ---       #844
      010008BEH   LINE      CODE     ---       #845
      010008C0H   LINE      CODE     ---       #846
      010008C0H   LINE      CODE     ---       #849
      010008CBH   LINE      CODE     ---       #850
      010008CDH   LINE      CODE     ---       #852
      010008CDH   LINE      CODE     ---       #853
      010008D4H   LINE      CODE     ---       #854
      010008D4H   LINE      CODE     ---       #855
      010008D7H   LINE      CODE     ---       #856
      010008D8H   LINE      CODE     ---       #857
      010008D8H   LINE      CODE     ---       #859
      010008E5H   LINE      CODE     ---       #861
      010008E5H   LINE      CODE     ---       #862
      010008E5H   LINE      CODE     ---       #864
      010008E8H   LINE      CODE     ---       #865
      010008EBH   LINE      CODE     ---       #866
      010008EBH   LINE      CODE     ---       #867
      010008F2H   LINE      CODE     ---       #868
      010008F2H   LINE      CODE     ---       #869
      010008F5H   LINE      CODE     ---       #871
      010008F8H   LINE      CODE     ---       #872
      010008F8H   LINE      CODE     ---       #873
      010008FAH   LINE      CODE     ---       #874
      01000901H   LINE      CODE     ---       #875
      01000901H   LINE      CODE     ---       #876
      01000908H   LINE      CODE     ---       #877
      01000908H   LINE      CODE     ---       #878
      01000912H   LINE      CODE     ---       #879
      01000914H   LINE      CODE     ---       #880
      01000914H   LINE      CODE     ---       #881
LX51 LINKER/LOCATER V4.66.30.0                                                        01/29/2020  13:56:08  PAGE 35


      01000914H   LINE      CODE     ---       #882
      01000916H   LINE      CODE     ---       #884
      01000916H   LINE      CODE     ---       #885
      01000923H   LINE      CODE     ---       #887
      01000923H   LINE      CODE     ---       #888
      0100092CH   LINE      CODE     ---       #889
      0100092FH   LINE      CODE     ---       #890
      01000931H   LINE      CODE     ---       #891
      01000931H   LINE      CODE     ---       #892
      01000931H   LINE      CODE     ---       #893
      01000931H   LINE      CODE     ---       #895
      01000934H   LINE      CODE     ---       #896
      01000934H   LINE      CODE     ---       #897
      0100093CH   LINE      CODE     ---       #898
      0100093CH   LINE      CODE     ---       #900
      0100093FH   LINE      CODE     ---       #901
      0100093FH   LINE      CODE     ---       #902
      01000946H   LINE      CODE     ---       #903
      01000946H   LINE      CODE     ---       #904
      01000949H   LINE      CODE     ---       #905
      01000955H   LINE      CODE     ---       #907
      01000958H   LINE      CODE     ---       #908
      01000958H   LINE      CODE     ---       #909
      01000965H   LINE      CODE     ---       #910
      01000965H   LINE      CODE     ---       #912
      01000968H   LINE      CODE     ---       #913
      01000968H   LINE      CODE     ---       #981
      0100096BH   LINE      CODE     ---       #982
      0100096CH   LINE      CODE     ---       #983
      ---         BLOCKEND  ---      ---       LVL=0

      01001144H   BLOCK     CODE     ---       LVL=0
      01001144H   LINE      CODE     ---       #1003
      01001144H   LINE      CODE     ---       #1004
      01001144H   LINE      CODE     ---       #1005
      0100114BH   LINE      CODE     ---       #1006
      0100114BH   LINE      CODE     ---       #1007
      01001152H   LINE      CODE     ---       #1008
      01001152H   LINE      CODE     ---       #1009
      0100115CH   LINE      CODE     ---       #1012
      01001165H   LINE      CODE     ---       #1013
      01001170H   LINE      CODE     ---       #1016
      01001179H   LINE      CODE     ---       #1017
      01001182H   LINE      CODE     ---       #1018
      01001182H   LINE      CODE     ---       #1019
      01001184H   LINE      CODE     ---       #1020
      01001185H   LINE      CODE     ---       #1021
      0100118CH   LINE      CODE     ---       #1022
      0100118CH   LINE      CODE     ---       #1024
      0100118FH   LINE      CODE     ---       #1025
      01001190H   LINE      CODE     ---       #1026
      01001197H   LINE      CODE     ---       #1027
      01001197H   LINE      CODE     ---       #1028
      0100119EH   LINE      CODE     ---       #1029
      0100119EH   LINE      CODE     ---       #1030
      010011A7H   LINE      CODE     ---       #1033
      010011B0H   LINE      CODE     ---       #1034
      010011BBH   LINE      CODE     ---       #1037
      010011C4H   LINE      CODE     ---       #1038
      010011CDH   LINE      CODE     ---       #1041
      010011D6H   LINE      CODE     ---       #1042
      010011E0H   LINE      CODE     ---       #1043
LX51 LINKER/LOCATER V4.66.30.0                                                        01/29/2020  13:56:08  PAGE 36


      010011E0H   LINE      CODE     ---       #1044
      010011E4H   LINE      CODE     ---       #1045
      010011E5H   LINE      CODE     ---       #1047
      010011E5H   LINE      CODE     ---       #1049
      010011E8H   LINE      CODE     ---       #1050
      010011E8H   LINE      CODE     ---       #1051
      ---         BLOCKEND  ---      ---       LVL=0

      01001C29H   BLOCK     CODE     ---       LVL=0
      00000006H   SYMBOL    DATA     WORD      value
      01001C29H   BLOCK     CODE     NEAR LAB  LVL=1
      00000007H   SYMBOL    DATA     BYTE      idx
      ---         BLOCKEND  ---      ---       LVL=1
      01001C29H   LINE      CODE     ---       #1069
      01001C29H   LINE      CODE     ---       #1070
      01001C29H   LINE      CODE     ---       #1074
      01001C2FH   LINE      CODE     ---       #1076
      01001C33H   LINE      CODE     ---       #1077
      01001C33H   LINE      CODE     ---       #1078
      01001C3FH   LINE      CODE     ---       #1079
      01001C42H   LINE      CODE     ---       #1080
      ---         BLOCKEND  ---      ---       LVL=0

      ---         MODULE    ---      ---       MCP_REGISTERS
      0000004EH   PUBLIC    DATA     ---       MCP_reg16_status_update_map
      02000020H   PUBLIC    XDATA    ---       MCP_8_bit_registers
      0000004CH   PUBLIC    DATA     WORD      MCP_reg8_status_update_map
      00000048H   PUBLIC    DATA     ---       MCP_reg16_dirty_bit_map
      00000046H   PUBLIC    DATA     WORD      MCP_reg8_dirty_bit_map
      02000000H   PUBLIC    XDATA    ---       MCP_16_bit_registers
      01001D7DH   PUBLIC    CONST    ---       MCP_reg16_access_type
      01001D7BH   PUBLIC    CONST    WORD      MCP_reg8_access_type
      010018B9H   PUBLIC    CODE     ---       _MCP_is_16bit_status_update_enabled
      01000026H   PUBLIC    CODE     ---       _MCP_is_8bit_status_update_enabled
      00000021H.3 PUBLIC    BIT      BIT       ?_MCP_status_update_register?BIT
      0100149BH   PUBLIC    CODE     ---       _MCP_status_update_register
      01001BEEH   PUBLIC    CODE     ---       _MCP_get_16bit_register
      01001D0EH   PUBLIC    CODE     ---       _MCP_get_8bit_register
      00000021H.4 PUBLIC    BIT      BIT       ?_MCP_set_16bit_register?BIT
      0100150EH   PUBLIC    CODE     ---       _MCP_set_16bit_register
      00000021H.4 PUBLIC    BIT      BIT       ?_MCP_set_8bit_register?BIT
      010017B8H   PUBLIC    CODE     ---       _MCP_set_8bit_register
      0100141FH   PUBLIC    CODE     ---       MCP_init_registers
      000000A2H   SFRSYM    DATA     BYTE      SPI0CKR
      00000080H   SFRSYM    DATA     BYTE      P0
      000000D0H.2 SFRSYM    DATA     BIT       PSW_OV
      00000090H   SFRSYM    DATA     BYTE      P1
      00000097H   SFRSYM    DATA     BYTE      WDTCN
      000000A0H   SFRSYM    DATA     BYTE      P2
      000000BCH   SFRSYM    DATA     BYTE      ADC0CF
      000000C8H   SFRSYM    DATA     BIT       TMR2CN0_T2XCLK
      000000C0H.7 SFRSYM    DATA     BIT       SMB0CN0_MASTER
      000000F9H   SFRSYM    DATA     WORD      PCA0
      000000E6H   SFRSYM    DATA     BYTE      EIE1
      000000C0H.1 SFRSYM    DATA     BIT       SMB0CN0_ACK
      0000008FH   SFRSYM    DATA     BYTE      PSCTL
      000000E4H   SFRSYM    DATA     BYTE      IT01CF
      000000C0H.6 SFRSYM    DATA     BIT       SMB0CN0_TXMODE
      000000ADH   SFRSYM    DATA     BYTE      DERIVID
      000000A4H   SFRSYM    DATA     BYTE      P0MDOUT
      000000A5H   SFRSYM    DATA     BYTE      P1MDOUT
      000000E8H.5 SFRSYM    DATA     BIT       ADC0CN0_ADINT
LX51 LINKER/LOCATER V4.66.30.0                                                        01/29/2020  13:56:08  PAGE 37


      000000CBH   SFRSYM    DATA     BYTE      TMR2RLH
      000000A6H   SFRSYM    DATA     BYTE      P2MDOUT
      000000A8H   SFRSYM    DATA     BYTE      IE
      00000093H   SFRSYM    DATA     BYTE      TMR3RLH
      000000F3H   SFRSYM    DATA     BYTE      EIP1
      00000098H.2 SFRSYM    DATA     BIT       SCON0_RB8
      000000CAH   SFRSYM    DATA     BYTE      TMR2RLL
      000000FCH   SFRSYM    DATA     BYTE      PCA0CPH0
      00000092H   SFRSYM    DATA     BYTE      TMR3RLL
      000000EAH   SFRSYM    DATA     BYTE      PCA0CPH1
      00000098H.3 SFRSYM    DATA     BIT       SCON0_TB8
      000000F0H   SFRSYM    DATA     BIT       B_B0
      00000082H   SFRSYM    DATA     WORD      DP
      000000ECH   SFRSYM    DATA     BYTE      PCA0CPH2
      000000A0H.1 SFRSYM    DATA     BIT       BTN0
      000000F0H.1 SFRSYM    DATA     BIT       B_B1
      000000C3H   SFRSYM    DATA     WORD      ADC0GT
      00000090H.1 SFRSYM    DATA     BIT       BTN1
      000000F0H.2 SFRSYM    DATA     BIT       B_B2
      000000FBH   SFRSYM    DATA     BYTE      PCA0CPL0
      000000F0H.3 SFRSYM    DATA     BIT       B_B3
      000000D9H   SFRSYM    DATA     BYTE      PCA0MD
      000000DAH   SFRSYM    DATA     BYTE      PCA0CPM0
      000000E9H   SFRSYM    DATA     BYTE      PCA0CPL1
      000000F0H.4 SFRSYM    DATA     BIT       B_B4
      000000DBH   SFRSYM    DATA     BYTE      PCA0CPM1
      000000EBH   SFRSYM    DATA     BYTE      PCA0CPL2
      000000F0H.5 SFRSYM    DATA     BIT       B_B5
      000000DCH   SFRSYM    DATA     BYTE      PCA0CPM2
      000000B8H   SFRSYM    DATA     BYTE      IP
      000000B9H   SFRSYM    DATA     BYTE      ADC0TK
      000000F0H.6 SFRSYM    DATA     BIT       B_B6
      000000C5H   SFRSYM    DATA     WORD      ADC0LT
      00000098H.5 SFRSYM    DATA     BIT       SCON0_MCE
      000000F0H.7 SFRSYM    DATA     BIT       B_B7
      000000E1H   SFRSYM    DATA     BYTE      XBR0
      000000C1H   SFRSYM    DATA     BYTE      SMB0CF
      000000E2H   SFRSYM    DATA     BYTE      XBR1
      000000C0H.5 SFRSYM    DATA     BIT       SMB0CN0_STA
      000000E3H   SFRSYM    DATA     BYTE      XBR2
      000000BBH   SFRSYM    DATA     BYTE      ADC0MX
      000000E0H   SFRSYM    DATA     BIT       ACC_ACC0
      000000D1H   SFRSYM    DATA     BYTE      REF0CN
      0000008EH   SFRSYM    DATA     BYTE      CKCON0
      000000E0H.1 SFRSYM    DATA     BIT       ACC_ACC1
      000000C9H   SFRSYM    DATA     BYTE      REG0CN
      000000DDH   SFRSYM    DATA     BYTE      CRC0IN
      000000C8H.2 SFRSYM    DATA     BIT       TMR2CN0_TR2
      000000E0H.2 SFRSYM    DATA     BIT       ACC_ACC2
      000000E0H.3 SFRSYM    DATA     BIT       ACC_ACC3
      00000081H   SFRSYM    DATA     BYTE      SP
      0000009DH   SFRSYM    DATA     BYTE      CMP0MD
      000000E0H.4 SFRSYM    DATA     BIT       ACC_ACC4
      000000B1H   SFRSYM    DATA     BYTE      LFO0CN
      000000ABH   SFRSYM    DATA     BYTE      CMP1MD
      000000D8H   SFRSYM    DATA     BIT       PCA0CN0_CCF0
      000000E0H.5 SFRSYM    DATA     BIT       ACC_ACC5
      000000D8H.1 SFRSYM    DATA     BIT       PCA0CN0_CCF1
      000000E0H.6 SFRSYM    DATA     BIT       ACC_ACC6
      000000CCH   SFRSYM    DATA     WORD      TMR2
      000000D8H.2 SFRSYM    DATA     BIT       PCA0CN0_CCF2
      000000E0H.7 SFRSYM    DATA     BIT       ACC_ACC7
LX51 LINKER/LOCATER V4.66.30.0                                                        01/29/2020  13:56:08  PAGE 38


      00000094H   SFRSYM    DATA     WORD      TMR3
      000000C0H.3 SFRSYM    DATA     BIT       SMB0CN0_ACKRQ
      000000FFH   SFRSYM    DATA     BYTE      VDM0CN
      000000F1H   SFRSYM    DATA     BYTE      P0MDIN
      00000098H.4 SFRSYM    DATA     BIT       SCON0_REN
      000000ACH   SFRSYM    DATA     BYTE      SMB0TC
      000000F2H   SFRSYM    DATA     BYTE      P1MDIN
      000000C0H.4 SFRSYM    DATA     BIT       SMB0CN0_STO
      000000FEH   SFRSYM    DATA     BYTE      P0MASK
      000000EEH   SFRSYM    DATA     BYTE      P1MASK
      000000D0H.3 SFRSYM    DATA     BIT       PSW_RS0
      000000D8H.7 SFRSYM    DATA     BIT       PCA0CN0_CF
      0000009EH   SFRSYM    DATA     BYTE      PCA0CENT
      000000F8H.4 SFRSYM    DATA     BIT       SPI0CN0_RXOVRN
      000000D0H.4 SFRSYM    DATA     BIT       PSW_RS1
      000000E8H.7 SFRSYM    DATA     BIT       ADC0CN0_ADEN
      00000089H   SFRSYM    DATA     BYTE      TMOD
      00000088H   SFRSYM    DATA     BYTE      TCON
      000000CFH   SFRSYM    DATA     BYTE      CRC0FLIP
      000000D0H   SFRSYM    DATA     BIT       PSW_PARITY
      000000A8H.4 SFRSYM    DATA     BIT       IE_ES0
      0000009FH   SFRSYM    DATA     BYTE      CMP0MX
      000000A8H.1 SFRSYM    DATA     BIT       IE_ET0
      000000AAH   SFRSYM    DATA     BYTE      CMP1MX
      000000A8H.3 SFRSYM    DATA     BIT       IE_ET1
      000000D4H   SFRSYM    DATA     BYTE      P0SKIP
      000000A8H.5 SFRSYM    DATA     BIT       IE_ET2
      000000D5H   SFRSYM    DATA     BYTE      P1SKIP
      000000E8H   SFRSYM    DATA     BYTE      ADC0CN0
      000000A8H   SFRSYM    DATA     BIT       IE_EX0
      000000B2H   SFRSYM    DATA     BYTE      ADC0CN1
      000000D8H.6 SFRSYM    DATA     BIT       PCA0CN0_CR
      000000A8H.2 SFRSYM    DATA     BIT       IE_EX1
      00000098H.7 SFRSYM    DATA     BIT       SCON0_SMODE
      000000B5H   SFRSYM    DATA     BYTE      DEVICEID
      000000A9H   SFRSYM    DATA     BYTE      CLKSEL
      000000F8H   SFRSYM    DATA     BIT       SPI0CN0_SPIEN
      000000F0H   SFRSYM    DATA     BYTE      B
      000000BEH   SFRSYM    DATA     BYTE      ADC0H
      000000D2H   SFRSYM    DATA     BYTE      CRC0AUTO
      000000E8H.6 SFRSYM    DATA     BIT       ADC0CN0_ADBMEN
      000000CAH   SFRSYM    DATA     WORD      TMR2RL
      000000BDH   SFRSYM    DATA     BYTE      ADC0L
      00000092H   SFRSYM    DATA     WORD      TMR3RL
      000000D8H   SFRSYM    DATA     BYTE      PCA0CN0
      000000E0H   SFRSYM    DATA     BYTE      ACC
      000000FBH   SFRSYM    DATA     WORD      PCA0CP0
      000000E9H   SFRSYM    DATA     WORD      PCA0CP1
      000000EBH   SFRSYM    DATA     WORD      PCA0CP2
      000000CEH   SFRSYM    DATA     BYTE      CRC0CN0
      00000090H.4 SFRSYM    DATA     BIT       BSP_LED0
      0000008CH   SFRSYM    DATA     BYTE      TH0
      000000B8H.4 SFRSYM    DATA     BIT       IP_PS0
      0000008DH   SFRSYM    DATA     BYTE      TH1
      000000FAH   SFRSYM    DATA     BYTE      PCA0H
      000000B8H.1 SFRSYM    DATA     BIT       IP_PT0
      000000B8H.3 SFRSYM    DATA     BIT       IP_PT1
      000000C0H.2 SFRSYM    DATA     BIT       SMB0CN0_ARBLOST
      000000B8H.5 SFRSYM    DATA     BIT       IP_PT2
      0000008AH   SFRSYM    DATA     BYTE      TL0
      000000F8H.1 SFRSYM    DATA     BIT       SPI0CN0_TXBMT
      000000D0H.5 SFRSYM    DATA     BIT       PSW_F0
LX51 LINKER/LOCATER V4.66.30.0                                                        01/29/2020  13:56:08  PAGE 39


      000000A8H.6 SFRSYM    DATA     BIT       IE_ESPI0
      0000008BH   SFRSYM    DATA     BYTE      TL1
      000000F9H   SFRSYM    DATA     BYTE      PCA0L
      000000C0H   SFRSYM    DATA     BIT       SMB0CN0_SI
      000000D0H.1 SFRSYM    DATA     BIT       PSW_F1
      00000080H   SFRSYM    DATA     BIT       P0_B0
      000000B8H   SFRSYM    DATA     BIT       IP_PX0
      00000090H   SFRSYM    DATA     BIT       P1_B0
      00000080H.1 SFRSYM    DATA     BIT       P0_B1
      000000B8H.2 SFRSYM    DATA     BIT       IP_PX1
      0000009BH   SFRSYM    DATA     BYTE      CMP0CN0
      00000088H.1 SFRSYM    DATA     BIT       TCON_IE0
      000000A0H   SFRSYM    DATA     BIT       P2_B0
      00000090H.1 SFRSYM    DATA     BIT       P1_B1
      00000080H.2 SFRSYM    DATA     BIT       P0_B2
      000000BFH   SFRSYM    DATA     BYTE      CMP1CN0
      00000088H.3 SFRSYM    DATA     BIT       TCON_IE1
      000000A0H.1 SFRSYM    DATA     BIT       P2_B1
      00000090H.2 SFRSYM    DATA     BIT       P1_B2
      00000080H.3 SFRSYM    DATA     BIT       P0_B3
      000000C0H   SFRSYM    DATA     BYTE      SMB0CN0
      00000090H.3 SFRSYM    DATA     BIT       P1_B3
      00000080H.4 SFRSYM    DATA     BIT       P0_B4
      00000090H.4 SFRSYM    DATA     BIT       P1_B4
      00000080H.5 SFRSYM    DATA     BIT       P0_B5
      00000090H.5 SFRSYM    DATA     BIT       P1_B5
      00000080H.6 SFRSYM    DATA     BIT       P0_B6
      00000090H.6 SFRSYM    DATA     BIT       P1_B6
      00000080H.7 SFRSYM    DATA     BIT       P0_B7
      00000090H.7 SFRSYM    DATA     BIT       P1_B7
      00000080H.2 SFRSYM    DATA     BIT       BSP_BTN0
      00000083H   SFRSYM    DATA     BYTE      DPH
      000000C4H   SFRSYM    DATA     BYTE      ADC0GTH
      000000C8H.7 SFRSYM    DATA     BIT       TMR2CN0_TF2H
      000000C8H.3 SFRSYM    DATA     BIT       TMR2CN0_T2SPLIT
      000000D0H.6 SFRSYM    DATA     BIT       PSW_AC
      000000F8H   SFRSYM    DATA     BYTE      SPI0CN0
      000000C7H   SFRSYM    DATA     BYTE      HFO0CAL
      00000088H.5 SFRSYM    DATA     BIT       TCON_TF0
      00000098H   SFRSYM    DATA     BIT       SCON0_RI
      00000082H   SFRSYM    DATA     BYTE      DPL
      00000088H.7 SFRSYM    DATA     BIT       TCON_TF1
      00000099H   SFRSYM    DATA     BYTE      SBUF0
      00000087H   SFRSYM    DATA     BYTE      PCON0
      000000C3H   SFRSYM    DATA     BYTE      ADC0GTL
      000000C8H.6 SFRSYM    DATA     BIT       TMR2CN0_TF2L
      00000098H.1 SFRSYM    DATA     BIT       SCON0_TI
      000000E8H   SFRSYM    DATA     BIT       ADC0CN0_ADCM0
      000000C6H   SFRSYM    DATA     BYTE      ADC0LTH
      00000088H   SFRSYM    DATA     BIT       TCON_IT0
      000000E8H.1 SFRSYM    DATA     BIT       ADC0CN0_ADCM1
      000000EFH   SFRSYM    DATA     BYTE      RSTSRC
      000000FDH   SFRSYM    DATA     BYTE      P0MAT
      000000DEH   SFRSYM    DATA     BYTE      CRC0DAT
      00000088H.2 SFRSYM    DATA     BIT       TCON_IT1
      000000E8H.2 SFRSYM    DATA     BIT       ADC0CN0_ADCM2
      00000098H   SFRSYM    DATA     BYTE      SCON0
      000000F6H   SFRSYM    DATA     BYTE      PRTDRV
      000000EDH   SFRSYM    DATA     BYTE      P1MAT
      000000E8H.3 SFRSYM    DATA     BIT       ADC0CN0_ADWINT
      000000E8H.4 SFRSYM    DATA     BIT       ADC0CN0_ADBUSY
      000000D6H   SFRSYM    DATA     BYTE      SMB0ADM
LX51 LINKER/LOCATER V4.66.30.0                                                        01/29/2020  13:56:08  PAGE 40


      000000C5H   SFRSYM    DATA     BYTE      ADC0LTL
      000000F8H.5 SFRSYM    DATA     BIT       SPI0CN0_MODF
      000000B8H.6 SFRSYM    DATA     BIT       IP_PSPI0
      0000009CH   SFRSYM    DATA     BYTE      PCA0CLR
      000000C8H   SFRSYM    DATA     BYTE      TMR2CN0
      00000091H   SFRSYM    DATA     BYTE      TMR3CN0
      000000D7H   SFRSYM    DATA     BYTE      SMB0ADR
      00000088H.4 SFRSYM    DATA     BIT       TCON_TR0
      000000C8H.4 SFRSYM    DATA     BIT       TMR2CN0_TF2CEN
      00000088H.6 SFRSYM    DATA     BIT       TCON_TR1
      000000C2H   SFRSYM    DATA     BYTE      SMB0DAT
      000000CDH   SFRSYM    DATA     BYTE      TMR2H
      000000A1H   SFRSYM    DATA     BYTE      SPI0CFG
      00000095H   SFRSYM    DATA     BYTE      TMR3H
      000000D3H   SFRSYM    DATA     BYTE      CRC0CNT
      00000096H   SFRSYM    DATA     BYTE      PCA0POL
      000000CCH   SFRSYM    DATA     BYTE      TMR2L
      000000F8H.7 SFRSYM    DATA     BIT       SPI0CN0_SPIF
      00000094H   SFRSYM    DATA     BYTE      TMR3L
      000000DFH   SFRSYM    DATA     BYTE      ADC0PWR
      000000A8H.7 SFRSYM    DATA     BIT       IE_EA
      000000C8H.5 SFRSYM    DATA     BIT       TMR2CN0_TF2LEN
      000000F8H.6 SFRSYM    DATA     BIT       SPI0CN0_WCOL
      000000F8H.2 SFRSYM    DATA     BIT       SPI0CN0_NSSMD0
      000000D0H.7 SFRSYM    DATA     BIT       PSW_CY
      000000A3H   SFRSYM    DATA     BYTE      SPI0DAT
      000000F8H.3 SFRSYM    DATA     BIT       SPI0CN0_NSSMD1
      000000BDH   SFRSYM    DATA     WORD      ADC0
      000000D0H   SFRSYM    DATA     BYTE      PSW
      000000F7H   SFRSYM    DATA     BYTE      PCA0PWM
      000000B6H   SFRSYM    DATA     BYTE      REVID
      000000B7H   SFRSYM    DATA     BYTE      FLKEY
      000000B3H   SFRSYM    DATA     BYTE      ADC0AC
      01001C5AH   SYMBOL    CODE     ---       _MCP_check_address

      0100141FH   BLOCK     CODE     ---       LVL=0
      0100141FH   LINE      CODE     ---       #198
      0100141FH   LINE      CODE     ---       #199
      0100141FH   LINE      CODE     ---       #201
      01001425H   LINE      CODE     ---       #202
      01001428H   LINE      CODE     ---       #203
      0100142AH   LINE      CODE     ---       #205
      0100142EH   LINE      CODE     ---       #210
      01001431H   LINE      CODE     ---       #211
      01001435H   LINE      CODE     ---       #213
      01001439H   LINE      CODE     ---       #214
      0100143CH   LINE      CODE     ---       #215
      0100143FH   LINE      CODE     ---       #218
      01001445H   LINE      CODE     ---       #219
      0100144BH   LINE      CODE     ---       #220
      01001451H   LINE      CODE     ---       #221
      01001457H   LINE      CODE     ---       #222
      0100145EH   LINE      CODE     ---       #225
      01001468H   LINE      CODE     ---       #226
      0100146FH   LINE      CODE     ---       #227
      01001475H   LINE      CODE     ---       #228
      0100147DH   LINE      CODE     ---       #230
      01001486H   LINE      CODE     ---       #232
      01001490H   LINE      CODE     ---       #235
      0100149AH   LINE      CODE     ---       #236
      ---         BLOCKEND  ---      ---       LVL=0

LX51 LINKER/LOCATER V4.66.30.0                                                        01/29/2020  13:56:08  PAGE 41


      010017B8H   BLOCK     CODE     ---       LVL=0
      00000004H   SYMBOL    DATA     BYTE      address
      00000005H   SYMBOL    DATA     BYTE      value
      00000021H.4 SYMBOL    BIT      BIT       external_access
      010017BAH   BLOCK     CODE     NEAR LAB  LVL=1
      00000006H   SYMBOL    DATA     WORD      temp16
      ---         BLOCKEND  ---      ---       LVL=1
      010017B8H   LINE      CODE     ---       #263
      010017BAH   LINE      CODE     ---       #264
      010017BAH   LINE      CODE     ---       #267
      010017C0H   LINE      CODE     ---       #268
      010017C0H   LINE      CODE     ---       #269
      010017C1H   LINE      CODE     ---       #270
      010017C1H   LINE      CODE     ---       #272
      010017D2H   LINE      CODE     ---       #274
      010017E3H   LINE      CODE     ---       #275
      010017E3H   LINE      CODE     ---       #276
      010017E5H   LINE      CODE     ---       #277
      010017E5H   LINE      CODE     ---       #279
      010017F1H   LINE      CODE     ---       #281
      010017F7H   LINE      CODE     ---       #283
      010017F8H   LINE      CODE     ---       #284
      ---         BLOCKEND  ---      ---       LVL=0

      0100150EH   BLOCK     CODE     ---       LVL=0
      00000007H   SYMBOL    DATA     BYTE      address
      00000060H   SYMBOL    DATA     WORD      value
      00000021H.4 SYMBOL    BIT      BIT       external_access
      01001512H   BLOCK     CODE     NEAR LAB  LVL=1
      00000021H.5 SYMBOL    BIT      BIT       int_status
      00000062H   SYMBOL    DATA     ---       ptr
      00000006H   SYMBOL    DATA     BYTE      byte_num
      00000007H   SYMBOL    DATA     BYTE      bit_mask
      ---         BLOCKEND  ---      ---       LVL=1
      0100150EH   LINE      CODE     ---       #312
      01001512H   LINE      CODE     ---       #313
      01001512H   LINE      CODE     ---       #320
      01001518H   LINE      CODE     ---       #321
      01001518H   LINE      CODE     ---       #322
      01001519H   LINE      CODE     ---       #323
      01001519H   LINE      CODE     ---       #325
      0100151FH   LINE      CODE     ---       #327
      0100152EH   LINE      CODE     ---       #329
      01001537H   LINE      CODE     ---       #330
      01001547H   LINE      CODE     ---       #332
      01001552H   LINE      CODE     ---       #333
      01001552H   LINE      CODE     ---       #334
      01001554H   LINE      CODE     ---       #335
      01001554H   LINE      CODE     ---       #337
      0100155AH   LINE      CODE     ---       #339
      01001567H   LINE      CODE     ---       #341
      0100156BH   LINE      CODE     ---       #343
      01001572H   LINE      CODE     ---       #345
      01001573H   LINE      CODE     ---       #346
      ---         BLOCKEND  ---      ---       LVL=0
      00000007H   SYMBOL    DATA     BYTE      address
      00000005H   SYMBOL    DATA     BYTE      value
      00000007H   SYMBOL    DATA     BYTE      address
      00000004H   SYMBOL    DATA     WORD      value
      00000082H   SYMBOL    DATA     ---       ptr
      00000006H   SYMBOL    DATA     BYTE      byte_num
      00000007H   SYMBOL    DATA     BYTE      bit_mask
LX51 LINKER/LOCATER V4.66.30.0                                                        01/29/2020  13:56:08  PAGE 42



      01001D0EH   BLOCK     CODE     ---       LVL=0
      00000007H   SYMBOL    DATA     BYTE      address
      01001D0EH   LINE      CODE     ---       #427
      01001D0EH   LINE      CODE     ---       #428
      01001D0EH   LINE      CODE     ---       #429
      01001D1AH   LINE      CODE     ---       #430
      ---         BLOCKEND  ---      ---       LVL=0

      01001BEEH   BLOCK     CODE     ---       LVL=0
      00000007H   SYMBOL    DATA     BYTE      address
      01001BEEH   BLOCK     CODE     NEAR LAB  LVL=1
      00000021H.4 SYMBOL    BIT      BIT       int_status
      00000006H   SYMBOL    DATA     WORD      value
      00000082H   SYMBOL    DATA     ---       ptr
      ---         BLOCKEND  ---      ---       LVL=1
      01001BEEH   LINE      CODE     ---       #446
      01001BEEH   LINE      CODE     ---       #447
      01001BEEH   LINE      CODE     ---       #453
      01001BFEH   LINE      CODE     ---       #455
      01001C04H   LINE      CODE     ---       #457
      01001C09H   LINE      CODE     ---       #459
      01001C0DH   LINE      CODE     ---       #461
      01001C0DH   LINE      CODE     ---       #462
      ---         BLOCKEND  ---      ---       LVL=0
      00000007H   SYMBOL    DATA     BYTE      address
      00000007H   SYMBOL    DATA     BYTE      address
      00000006H   SYMBOL    DATA     WORD      value
      00000082H   SYMBOL    DATA     ---       ptr

      0100149BH   BLOCK     CODE     ---       LVL=0
      0000005FH   SYMBOL    DATA     BYTE      address
      00000021H.3 SYMBOL    BIT      BIT       enable
      0100149DH   BLOCK     CODE     NEAR LAB  LVL=1
      00000006H   SYMBOL    DATA     WORD      temp16
      00000007H   SYMBOL    DATA     BYTE      byte_num
      00000006H   SYMBOL    DATA     BYTE      bit_mask
      ---         BLOCKEND  ---      ---       LVL=1
      0100149BH   LINE      CODE     ---       #536
      0100149DH   LINE      CODE     ---       #537
      0100149DH   LINE      CODE     ---       #542
      010014A2H   LINE      CODE     ---       #543
      010014A2H   LINE      CODE     ---       #544
      010014A3H   LINE      CODE     ---       #545
      010014A3H   LINE      CODE     ---       #547
      010014B4H   LINE      CODE     ---       #549
      010014BBH   LINE      CODE     ---       #550
      010014BBH   LINE      CODE     ---       #551
      010014BFH   LINE      CODE     ---       #552
      010014BFH   LINE      CODE     ---       #553
      010014C4H   LINE      CODE     ---       #555
      010014C6H   LINE      CODE     ---       #557
      010014C6H   LINE      CODE     ---       #558
      010014D1H   LINE      CODE     ---       #560
      010014D1H   LINE      CODE     ---       #561
      010014D3H   LINE      CODE     ---       #565
      010014DAH   LINE      CODE     ---       #566
      010014DAH   LINE      CODE     ---       #567
      010014E2H   LINE      CODE     ---       #569
      010014EAH   LINE      CODE     ---       #570
      010014FBH   LINE      CODE     ---       #572
      01001503H   LINE      CODE     ---       #573
LX51 LINKER/LOCATER V4.66.30.0                                                        01/29/2020  13:56:08  PAGE 43


      01001503H   LINE      CODE     ---       #574
      01001505H   LINE      CODE     ---       #576
      01001507H   LINE      CODE     ---       #578
      01001507H   LINE      CODE     ---       #579
      0100150CH   LINE      CODE     ---       #581
      0100150CH   LINE      CODE     ---       #582
      0100150CH   LINE      CODE     ---       #583
      0100150DH   LINE      CODE     ---       #584
      ---         BLOCKEND  ---      ---       LVL=0

      01000026H   BLOCK     CODE     ---       LVL=0
      00000007H   SYMBOL    DATA     BYTE      address
      01000026H   BLOCK     CODE     NEAR LAB  LVL=1
      00000006H   SYMBOL    DATA     WORD      temp16
      ---         BLOCKEND  ---      ---       LVL=1
      01000026H   LINE      CODE     ---       #602
      01000026H   LINE      CODE     ---       #603
      01000026H   LINE      CODE     ---       #606
      01000037H   LINE      CODE     ---       #608
      0100004BH   LINE      CODE     ---       #610
      0100004BH   LINE      CODE     ---       #611
      01000057H   LINE      CODE     ---       #612
      01000059H   LINE      CODE     ---       #613
      01000059H   LINE      CODE     ---       #615
      0100005AH   LINE      CODE     ---       #616
      ---         BLOCKEND  ---      ---       LVL=0

      010018B9H   BLOCK     CODE     ---       LVL=0
      00000007H   SYMBOL    DATA     BYTE      address
      010018B9H   BLOCK     CODE     NEAR LAB  LVL=1
      00000006H   SYMBOL    DATA     BYTE      byte_num
      00000007H   SYMBOL    DATA     BYTE      bit_mask
      ---         BLOCKEND  ---      ---       LVL=1
      010018B9H   LINE      CODE     ---       #634
      010018B9H   LINE      CODE     ---       #635
      010018B9H   LINE      CODE     ---       #639
      010018BFH   LINE      CODE     ---       #641
      010018C7H   LINE      CODE     ---       #642
      010018D7H   LINE      CODE     ---       #644
      010018E7H   LINE      CODE     ---       #646
      010018E7H   LINE      CODE     ---       #647
      010018F1H   LINE      CODE     ---       #648
      010018F3H   LINE      CODE     ---       #649
      010018F3H   LINE      CODE     ---       #651
      010018F4H   LINE      CODE     ---       #652
      ---         BLOCKEND  ---      ---       LVL=0

      01001C5AH   BLOCK     CODE     ---       LVL=0
      00000007H   SYMBOL    DATA     BYTE      address
      01001C5AH   LINE      CODE     ---       #672
      01001C5AH   LINE      CODE     ---       #673
      01001C5AH   LINE      CODE     ---       #674
      01001C6CH   LINE      CODE     ---       #679
      01001C6CH   LINE      CODE     ---       #680
      01001C6EH   LINE      CODE     ---       #681
      01001C6EH   LINE      CODE     ---       #683
      01001C6FH   LINE      CODE     ---       #684
      ---         BLOCKEND  ---      ---       LVL=0

      ---         MODULE    ---      ---       ?C_STARTUP
      01000000H   PUBLIC    CODE     NEAR LAB  ?C_STARTUP
      000000E0H   SFRSYM    DATA     BYTE      ACC
LX51 LINKER/LOCATER V4.66.30.0                                                        01/29/2020  13:56:08  PAGE 44


      000000F0H   SFRSYM    DATA     BYTE      B
      00000083H   SFRSYM    DATA     BYTE      DPH
      00000082H   SFRSYM    DATA     BYTE      DPL
      000000A0H   SFRSYM    DATA     BYTE      PPAGE_SFR
      00000081H   SFRSYM    DATA     BYTE      SP
      00000000H   SYMBOL    NUMBER   ---       IBPSTACK
      00000100H   SYMBOL    NUMBER   ---       IBPSTACKTOP
      00000080H   SYMBOL    NUMBER   ---       IDATALEN
      01001281H   SYMBOL    CODE     NEAR LAB  IDATALOOP
      00000000H   SYMBOL    NUMBER   ---       PBPSTACK
      00000100H   SYMBOL    NUMBER   ---       PBPSTACKTOP
      00000000H   SYMBOL    NUMBER   ---       PDATALEN
      00000000H   SYMBOL    NUMBER   ---       PDATASTART
      00000000H   SYMBOL    NUMBER   ---       PPAGE
      00000000H   SYMBOL    NUMBER   ---       PPAGEENABLE
      0100127BH   SYMBOL    CODE     NEAR LAB  STARTUP1
      00000000H   SYMBOL    NUMBER   ---       XBPSTACK
      00010000H   SYMBOL    NUMBER   ---       XBPSTACKTOP
      00000000H   SYMBOL    NUMBER   ---       XDATALEN
      00000000H   SYMBOL    NUMBER   ---       XDATASTART

      01000000H   BLOCK     CODE     NEAR LAB  LVL=0
      01000000H   LINE      CODE     ---       #126
      ---         BLOCKEND  ---      ---       LVL=0

      0100127BH   BLOCK     CODE     NEAR LAB  LVL=0
      0100127BH   LINE      CODE     ---       #133
      0100127EH   LINE      CODE     ---       #137
      01001280H   LINE      CODE     ---       #138
      01001281H   LINE      CODE     ---       #139
      01001282H   LINE      CODE     ---       #140
      01001284H   LINE      CODE     ---       #189
      01001287H   LINE      CODE     ---       #200
      ---         BLOCKEND  ---      ---       LVL=0

      ---         MODULE    ---      ---       UART_DRIVER
      0000006CH   PUBLIC    DATA     ---       UART_tx_buffer_tail
      0000006BH   PUBLIC    DATA     ---       UART_rx_buffer_tail
      00000083H   PUBLIC    IDATA    ---       UART_tx_buffer
      00000073H   PUBLIC    IDATA    ---       UART_rx_buffer
      0000006AH   PUBLIC    DATA     ---       UART_tx_buffer_head
      00000069H   PUBLIC    DATA     ---       UART_rx_buffer_head
      00000022H.5 PUBLIC    BIT      BIT       UART_tx_busy
      0100168EH   PUBLIC    CODE     ---       UART0_ISR
      01001CABH   PUBLIC    CODE     ---       UART_get_tx_buffer_free_bytes
      01001A97H   PUBLIC    CODE     ---       _UART_receive_byte
      01001A69H   PUBLIC    CODE     ---       _UART_send_byte
      01001D1BH   PUBLIC    CODE     ---       UART_init_buffers
      01001C98H   PUBLIC    CODE     ---       UART_init
      000000A2H   SFRSYM    DATA     BYTE      SPI0CKR
      00000080H   SFRSYM    DATA     BYTE      P0
      000000D0H.2 SFRSYM    DATA     BIT       PSW_OV
      00000090H   SFRSYM    DATA     BYTE      P1
      00000097H   SFRSYM    DATA     BYTE      WDTCN
      000000A0H   SFRSYM    DATA     BYTE      P2
      000000BCH   SFRSYM    DATA     BYTE      ADC0CF
      000000C8H   SFRSYM    DATA     BIT       TMR2CN0_T2XCLK
      000000C0H.7 SFRSYM    DATA     BIT       SMB0CN0_MASTER
      000000F9H   SFRSYM    DATA     WORD      PCA0
      000000E6H   SFRSYM    DATA     BYTE      EIE1
      000000C0H.1 SFRSYM    DATA     BIT       SMB0CN0_ACK
      0000008FH   SFRSYM    DATA     BYTE      PSCTL
LX51 LINKER/LOCATER V4.66.30.0                                                        01/29/2020  13:56:08  PAGE 45


      000000E4H   SFRSYM    DATA     BYTE      IT01CF
      000000C0H.6 SFRSYM    DATA     BIT       SMB0CN0_TXMODE
      000000ADH   SFRSYM    DATA     BYTE      DERIVID
      000000A4H   SFRSYM    DATA     BYTE      P0MDOUT
      000000A5H   SFRSYM    DATA     BYTE      P1MDOUT
      000000E8H.5 SFRSYM    DATA     BIT       ADC0CN0_ADINT
      000000CBH   SFRSYM    DATA     BYTE      TMR2RLH
      000000A6H   SFRSYM    DATA     BYTE      P2MDOUT
      000000A8H   SFRSYM    DATA     BYTE      IE
      00000093H   SFRSYM    DATA     BYTE      TMR3RLH
      000000F3H   SFRSYM    DATA     BYTE      EIP1
      00000098H.2 SFRSYM    DATA     BIT       SCON0_RB8
      000000CAH   SFRSYM    DATA     BYTE      TMR2RLL
      000000FCH   SFRSYM    DATA     BYTE      PCA0CPH0
      00000092H   SFRSYM    DATA     BYTE      TMR3RLL
      000000EAH   SFRSYM    DATA     BYTE      PCA0CPH1
      00000098H.3 SFRSYM    DATA     BIT       SCON0_TB8
      000000F0H   SFRSYM    DATA     BIT       B_B0
      00000082H   SFRSYM    DATA     WORD      DP
      000000ECH   SFRSYM    DATA     BYTE      PCA0CPH2
      000000A0H.1 SFRSYM    DATA     BIT       BTN0
      000000F0H.1 SFRSYM    DATA     BIT       B_B1
      000000C3H   SFRSYM    DATA     WORD      ADC0GT
      00000090H.1 SFRSYM    DATA     BIT       BTN1
      000000F0H.2 SFRSYM    DATA     BIT       B_B2
      000000FBH   SFRSYM    DATA     BYTE      PCA0CPL0
      000000F0H.3 SFRSYM    DATA     BIT       B_B3
      000000D9H   SFRSYM    DATA     BYTE      PCA0MD
      000000DAH   SFRSYM    DATA     BYTE      PCA0CPM0
      000000E9H   SFRSYM    DATA     BYTE      PCA0CPL1
      000000F0H.4 SFRSYM    DATA     BIT       B_B4
      000000DBH   SFRSYM    DATA     BYTE      PCA0CPM1
      000000EBH   SFRSYM    DATA     BYTE      PCA0CPL2
      000000F0H.5 SFRSYM    DATA     BIT       B_B5
      000000DCH   SFRSYM    DATA     BYTE      PCA0CPM2
      000000B8H   SFRSYM    DATA     BYTE      IP
      000000B9H   SFRSYM    DATA     BYTE      ADC0TK
      000000F0H.6 SFRSYM    DATA     BIT       B_B6
      000000C5H   SFRSYM    DATA     WORD      ADC0LT
      00000098H.5 SFRSYM    DATA     BIT       SCON0_MCE
      000000F0H.7 SFRSYM    DATA     BIT       B_B7
      000000E1H   SFRSYM    DATA     BYTE      XBR0
      000000C1H   SFRSYM    DATA     BYTE      SMB0CF
      000000E2H   SFRSYM    DATA     BYTE      XBR1
      000000C0H.5 SFRSYM    DATA     BIT       SMB0CN0_STA
      000000E3H   SFRSYM    DATA     BYTE      XBR2
      000000BBH   SFRSYM    DATA     BYTE      ADC0MX
      000000E0H   SFRSYM    DATA     BIT       ACC_ACC0
      000000D1H   SFRSYM    DATA     BYTE      REF0CN
      0000008EH   SFRSYM    DATA     BYTE      CKCON0
      000000E0H.1 SFRSYM    DATA     BIT       ACC_ACC1
      000000C9H   SFRSYM    DATA     BYTE      REG0CN
      000000DDH   SFRSYM    DATA     BYTE      CRC0IN
      000000C8H.2 SFRSYM    DATA     BIT       TMR2CN0_TR2
      000000E0H.2 SFRSYM    DATA     BIT       ACC_ACC2
      000000E0H.3 SFRSYM    DATA     BIT       ACC_ACC3
      00000081H   SFRSYM    DATA     BYTE      SP
      0000009DH   SFRSYM    DATA     BYTE      CMP0MD
      000000E0H.4 SFRSYM    DATA     BIT       ACC_ACC4
      000000B1H   SFRSYM    DATA     BYTE      LFO0CN
      000000ABH   SFRSYM    DATA     BYTE      CMP1MD
      000000D8H   SFRSYM    DATA     BIT       PCA0CN0_CCF0
LX51 LINKER/LOCATER V4.66.30.0                                                        01/29/2020  13:56:08  PAGE 46


      000000E0H.5 SFRSYM    DATA     BIT       ACC_ACC5
      000000D8H.1 SFRSYM    DATA     BIT       PCA0CN0_CCF1
      000000E0H.6 SFRSYM    DATA     BIT       ACC_ACC6
      000000CCH   SFRSYM    DATA     WORD      TMR2
      000000D8H.2 SFRSYM    DATA     BIT       PCA0CN0_CCF2
      000000E0H.7 SFRSYM    DATA     BIT       ACC_ACC7
      00000094H   SFRSYM    DATA     WORD      TMR3
      000000C0H.3 SFRSYM    DATA     BIT       SMB0CN0_ACKRQ
      000000FFH   SFRSYM    DATA     BYTE      VDM0CN
      000000F1H   SFRSYM    DATA     BYTE      P0MDIN
      00000098H.4 SFRSYM    DATA     BIT       SCON0_REN
      000000ACH   SFRSYM    DATA     BYTE      SMB0TC
      000000F2H   SFRSYM    DATA     BYTE      P1MDIN
      000000C0H.4 SFRSYM    DATA     BIT       SMB0CN0_STO
      000000FEH   SFRSYM    DATA     BYTE      P0MASK
      000000EEH   SFRSYM    DATA     BYTE      P1MASK
      000000D0H.3 SFRSYM    DATA     BIT       PSW_RS0
      000000D8H.7 SFRSYM    DATA     BIT       PCA0CN0_CF
      0000009EH   SFRSYM    DATA     BYTE      PCA0CENT
      000000F8H.4 SFRSYM    DATA     BIT       SPI0CN0_RXOVRN
      000000D0H.4 SFRSYM    DATA     BIT       PSW_RS1
      000000E8H.7 SFRSYM    DATA     BIT       ADC0CN0_ADEN
      00000089H   SFRSYM    DATA     BYTE      TMOD
      00000088H   SFRSYM    DATA     BYTE      TCON
      000000CFH   SFRSYM    DATA     BYTE      CRC0FLIP
      000000D0H   SFRSYM    DATA     BIT       PSW_PARITY
      000000A8H.4 SFRSYM    DATA     BIT       IE_ES0
      0000009FH   SFRSYM    DATA     BYTE      CMP0MX
      000000A8H.1 SFRSYM    DATA     BIT       IE_ET0
      000000AAH   SFRSYM    DATA     BYTE      CMP1MX
      000000A8H.3 SFRSYM    DATA     BIT       IE_ET1
      000000D4H   SFRSYM    DATA     BYTE      P0SKIP
      000000A8H.5 SFRSYM    DATA     BIT       IE_ET2
      000000D5H   SFRSYM    DATA     BYTE      P1SKIP
      000000E8H   SFRSYM    DATA     BYTE      ADC0CN0
      000000A8H   SFRSYM    DATA     BIT       IE_EX0
      000000B2H   SFRSYM    DATA     BYTE      ADC0CN1
      000000D8H.6 SFRSYM    DATA     BIT       PCA0CN0_CR
      000000A8H.2 SFRSYM    DATA     BIT       IE_EX1
      00000098H.7 SFRSYM    DATA     BIT       SCON0_SMODE
      000000B5H   SFRSYM    DATA     BYTE      DEVICEID
      000000A9H   SFRSYM    DATA     BYTE      CLKSEL
      000000F8H   SFRSYM    DATA     BIT       SPI0CN0_SPIEN
      000000F0H   SFRSYM    DATA     BYTE      B
      000000BEH   SFRSYM    DATA     BYTE      ADC0H
      000000D2H   SFRSYM    DATA     BYTE      CRC0AUTO
      000000E8H.6 SFRSYM    DATA     BIT       ADC0CN0_ADBMEN
      000000CAH   SFRSYM    DATA     WORD      TMR2RL
      000000BDH   SFRSYM    DATA     BYTE      ADC0L
      00000092H   SFRSYM    DATA     WORD      TMR3RL
      000000D8H   SFRSYM    DATA     BYTE      PCA0CN0
      000000E0H   SFRSYM    DATA     BYTE      ACC
      000000FBH   SFRSYM    DATA     WORD      PCA0CP0
      000000E9H   SFRSYM    DATA     WORD      PCA0CP1
      000000EBH   SFRSYM    DATA     WORD      PCA0CP2
      000000CEH   SFRSYM    DATA     BYTE      CRC0CN0
      00000090H.4 SFRSYM    DATA     BIT       BSP_LED0
      0000008CH   SFRSYM    DATA     BYTE      TH0
      000000B8H.4 SFRSYM    DATA     BIT       IP_PS0
      0000008DH   SFRSYM    DATA     BYTE      TH1
      000000FAH   SFRSYM    DATA     BYTE      PCA0H
      000000B8H.1 SFRSYM    DATA     BIT       IP_PT0
LX51 LINKER/LOCATER V4.66.30.0                                                        01/29/2020  13:56:08  PAGE 47


      000000B8H.3 SFRSYM    DATA     BIT       IP_PT1
      000000C0H.2 SFRSYM    DATA     BIT       SMB0CN0_ARBLOST
      000000B8H.5 SFRSYM    DATA     BIT       IP_PT2
      0000008AH   SFRSYM    DATA     BYTE      TL0
      000000F8H.1 SFRSYM    DATA     BIT       SPI0CN0_TXBMT
      000000D0H.5 SFRSYM    DATA     BIT       PSW_F0
      000000A8H.6 SFRSYM    DATA     BIT       IE_ESPI0
      0000008BH   SFRSYM    DATA     BYTE      TL1
      000000F9H   SFRSYM    DATA     BYTE      PCA0L
      000000C0H   SFRSYM    DATA     BIT       SMB0CN0_SI
      000000D0H.1 SFRSYM    DATA     BIT       PSW_F1
      00000080H   SFRSYM    DATA     BIT       P0_B0
      000000B8H   SFRSYM    DATA     BIT       IP_PX0
      00000090H   SFRSYM    DATA     BIT       P1_B0
      00000080H.1 SFRSYM    DATA     BIT       P0_B1
      000000B8H.2 SFRSYM    DATA     BIT       IP_PX1
      0000009BH   SFRSYM    DATA     BYTE      CMP0CN0
      00000088H.1 SFRSYM    DATA     BIT       TCON_IE0
      000000A0H   SFRSYM    DATA     BIT       P2_B0
      00000090H.1 SFRSYM    DATA     BIT       P1_B1
      00000080H.2 SFRSYM    DATA     BIT       P0_B2
      000000BFH   SFRSYM    DATA     BYTE      CMP1CN0
      00000088H.3 SFRSYM    DATA     BIT       TCON_IE1
      000000A0H.1 SFRSYM    DATA     BIT       P2_B1
      00000090H.2 SFRSYM    DATA     BIT       P1_B2
      00000080H.3 SFRSYM    DATA     BIT       P0_B3
      000000C0H   SFRSYM    DATA     BYTE      SMB0CN0
      00000090H.3 SFRSYM    DATA     BIT       P1_B3
      00000080H.4 SFRSYM    DATA     BIT       P0_B4
      00000090H.4 SFRSYM    DATA     BIT       P1_B4
      00000080H.5 SFRSYM    DATA     BIT       P0_B5
      00000090H.5 SFRSYM    DATA     BIT       P1_B5
      00000080H.6 SFRSYM    DATA     BIT       P0_B6
      00000090H.6 SFRSYM    DATA     BIT       P1_B6
      00000080H.7 SFRSYM    DATA     BIT       P0_B7
      00000090H.7 SFRSYM    DATA     BIT       P1_B7
      00000080H.2 SFRSYM    DATA     BIT       BSP_BTN0
      00000083H   SFRSYM    DATA     BYTE      DPH
      000000C4H   SFRSYM    DATA     BYTE      ADC0GTH
      000000C8H.7 SFRSYM    DATA     BIT       TMR2CN0_TF2H
      000000C8H.3 SFRSYM    DATA     BIT       TMR2CN0_T2SPLIT
      000000D0H.6 SFRSYM    DATA     BIT       PSW_AC
      000000F8H   SFRSYM    DATA     BYTE      SPI0CN0
      000000C7H   SFRSYM    DATA     BYTE      HFO0CAL
      00000088H.5 SFRSYM    DATA     BIT       TCON_TF0
      00000098H   SFRSYM    DATA     BIT       SCON0_RI
      00000082H   SFRSYM    DATA     BYTE      DPL
      00000088H.7 SFRSYM    DATA     BIT       TCON_TF1
      00000099H   SFRSYM    DATA     BYTE      SBUF0
      00000087H   SFRSYM    DATA     BYTE      PCON0
      000000C3H   SFRSYM    DATA     BYTE      ADC0GTL
      000000C8H.6 SFRSYM    DATA     BIT       TMR2CN0_TF2L
      00000098H.1 SFRSYM    DATA     BIT       SCON0_TI
      000000E8H   SFRSYM    DATA     BIT       ADC0CN0_ADCM0
      000000C6H   SFRSYM    DATA     BYTE      ADC0LTH
      00000088H   SFRSYM    DATA     BIT       TCON_IT0
      000000E8H.1 SFRSYM    DATA     BIT       ADC0CN0_ADCM1
      000000EFH   SFRSYM    DATA     BYTE      RSTSRC
      000000FDH   SFRSYM    DATA     BYTE      P0MAT
      000000DEH   SFRSYM    DATA     BYTE      CRC0DAT
      00000088H.2 SFRSYM    DATA     BIT       TCON_IT1
      000000E8H.2 SFRSYM    DATA     BIT       ADC0CN0_ADCM2
LX51 LINKER/LOCATER V4.66.30.0                                                        01/29/2020  13:56:08  PAGE 48


      00000098H   SFRSYM    DATA     BYTE      SCON0
      000000F6H   SFRSYM    DATA     BYTE      PRTDRV
      000000EDH   SFRSYM    DATA     BYTE      P1MAT
      000000E8H.3 SFRSYM    DATA     BIT       ADC0CN0_ADWINT
      000000E8H.4 SFRSYM    DATA     BIT       ADC0CN0_ADBUSY
      000000D6H   SFRSYM    DATA     BYTE      SMB0ADM
      000000C5H   SFRSYM    DATA     BYTE      ADC0LTL
      000000F8H.5 SFRSYM    DATA     BIT       SPI0CN0_MODF
      000000B8H.6 SFRSYM    DATA     BIT       IP_PSPI0
      0000009CH   SFRSYM    DATA     BYTE      PCA0CLR
      000000C8H   SFRSYM    DATA     BYTE      TMR2CN0
      00000091H   SFRSYM    DATA     BYTE      TMR3CN0
      000000D7H   SFRSYM    DATA     BYTE      SMB0ADR
      00000088H.4 SFRSYM    DATA     BIT       TCON_TR0
      000000C8H.4 SFRSYM    DATA     BIT       TMR2CN0_TF2CEN
      00000088H.6 SFRSYM    DATA     BIT       TCON_TR1
      000000C2H   SFRSYM    DATA     BYTE      SMB0DAT
      000000CDH   SFRSYM    DATA     BYTE      TMR2H
      000000A1H   SFRSYM    DATA     BYTE      SPI0CFG
      00000095H   SFRSYM    DATA     BYTE      TMR3H
      000000D3H   SFRSYM    DATA     BYTE      CRC0CNT
      00000096H   SFRSYM    DATA     BYTE      PCA0POL
      000000CCH   SFRSYM    DATA     BYTE      TMR2L
      000000F8H.7 SFRSYM    DATA     BIT       SPI0CN0_SPIF
      00000094H   SFRSYM    DATA     BYTE      TMR3L
      000000DFH   SFRSYM    DATA     BYTE      ADC0PWR
      000000A8H.7 SFRSYM    DATA     BIT       IE_EA
      000000C8H.5 SFRSYM    DATA     BIT       TMR2CN0_TF2LEN
      000000F8H.6 SFRSYM    DATA     BIT       SPI0CN0_WCOL
      000000F8H.2 SFRSYM    DATA     BIT       SPI0CN0_NSSMD0
      000000D0H.7 SFRSYM    DATA     BIT       PSW_CY
      000000A3H   SFRSYM    DATA     BYTE      SPI0DAT
      000000F8H.3 SFRSYM    DATA     BIT       SPI0CN0_NSSMD1
      000000BDH   SFRSYM    DATA     WORD      ADC0
      000000D0H   SFRSYM    DATA     BYTE      PSW
      000000F7H   SFRSYM    DATA     BYTE      PCA0PWM
      000000B6H   SFRSYM    DATA     BYTE      REVID
      000000B7H   SFRSYM    DATA     BYTE      FLKEY
      000000B3H   SFRSYM    DATA     BYTE      ADC0AC
      01001C43H   SYMBOL    CODE     ---       UART_set_baud

      01001C98H   BLOCK     CODE     ---       LVL=0
      01001C98H   LINE      CODE     ---       #123
      01001C98H   LINE      CODE     ---       #124
      01001C98H   LINE      CODE     ---       #127
      01001C9BH   LINE      CODE     ---       #130
      01001C9EH   LINE      CODE     ---       #133
      01001CA1H   LINE      CODE     ---       #136
      01001CA3H   LINE      CODE     ---       #139
      01001CA6H   LINE      CODE     ---       #142
      01001CA8H   LINE      CODE     ---       #145
      01001CAAH   LINE      CODE     ---       #146
      ---         BLOCKEND  ---      ---       LVL=0

      01001D1BH   BLOCK     CODE     ---       LVL=0
      01001D1BH   LINE      CODE     ---       #166
      01001D1BH   LINE      CODE     ---       #167
      01001D1BH   LINE      CODE     ---       #168
      01001D1EH   LINE      CODE     ---       #169
      01001D21H   LINE      CODE     ---       #170
      01001D24H   LINE      CODE     ---       #171
      01001D27H   LINE      CODE     ---       #172
LX51 LINKER/LOCATER V4.66.30.0                                                        01/29/2020  13:56:08  PAGE 49


      ---         BLOCKEND  ---      ---       LVL=0

      01001A69H   BLOCK     CODE     ---       LVL=0
      00000007H   SYMBOL    DATA     BYTE      value
      01001A69H   LINE      CODE     ---       #192
      01001A69H   LINE      CODE     ---       #193
      01001A69H   LINE      CODE     ---       #195
      01001A7AH   LINE      CODE     ---       #196
      01001A7AH   LINE      CODE     ---       #197
      01001A7DH   LINE      CODE     ---       #198
      01001A7DH   LINE      CODE     ---       #201
      01001A81H   LINE      CODE     ---       #203
      01001A83H   LINE      CODE     ---       #204
      01001A8DH   LINE      CODE     ---       #205
      01001A8FH   LINE      CODE     ---       #207
      01001A92H   LINE      CODE     ---       #208
      01001A92H   LINE      CODE     ---       #210
      01001A94H   LINE      CODE     ---       #211
      01001A94H   LINE      CODE     ---       #213
      01001A96H   LINE      CODE     ---       #214
      ---         BLOCKEND  ---      ---       LVL=0

      01001A97H   BLOCK     CODE     ---       LVL=0
      00000007H   SYMBOL    DATA     ---       value
      01001A97H   LINE      CODE     ---       #234
      01001A97H   LINE      CODE     ---       #235
      01001A97H   LINE      CODE     ---       #237
      01001AA6H   LINE      CODE     ---       #238
      01001AA6H   LINE      CODE     ---       #239
      01001AA9H   LINE      CODE     ---       #240
      01001AA9H   LINE      CODE     ---       #243
      01001AAFH   LINE      CODE     ---       #245
      01001AB1H   LINE      CODE     ---       #246
      01001ABBH   LINE      CODE     ---       #247
      01001ABDH   LINE      CODE     ---       #249
      01001ABFH   LINE      CODE     ---       #250
      ---         BLOCKEND  ---      ---       LVL=0

      01001CABH   BLOCK     CODE     ---       LVL=0
      01001CABH   LINE      CODE     ---       #268
      01001CABH   LINE      CODE     ---       #269
      01001CABH   LINE      CODE     ---       #270
      01001CB1H   LINE      CODE     ---       #271
      01001CB1H   LINE      CODE     ---       #272
      01001CBAH   LINE      CODE     ---       #273
      01001CBAH   LINE      CODE     ---       #275
      01001CBAH   LINE      CODE     ---       #276
      01001CBCH   LINE      CODE     ---       #277
      01001CBCH   LINE      CODE     ---       #279
      ---         BLOCKEND  ---      ---       LVL=0

      0100168EH   BLOCK     CODE     ---       LVL=0
      0100168EH   LINE      CODE     ---       #292
      01001699H   LINE      CODE     ---       #294
      0100169CH   LINE      CODE     ---       #295
      0100169CH   LINE      CODE     ---       #297
      0100169EH   LINE      CODE     ---       #318
      010016AFH   LINE      CODE     ---       #319
      010016AFH   LINE      CODE     ---       #320
      010016B3H   LINE      CODE     ---       #321
      010016BDH   LINE      CODE     ---       #322
      010016BDH   LINE      CODE     ---       #325
LX51 LINKER/LOCATER V4.66.30.0                                                        01/29/2020  13:56:08  PAGE 50


      010016BDH   LINE      CODE     ---       #328
      010016C0H   LINE      CODE     ---       #329
      010016C0H   LINE      CODE     ---       #331
      010016C2H   LINE      CODE     ---       #334
      010016C4H   LINE      CODE     ---       #336
      010016CAH   LINE      CODE     ---       #337
      010016CAH   LINE      CODE     ---       #341
      010016CCH   LINE      CODE     ---       #342
      010016D1H   LINE      CODE     ---       #343
      010016DBH   LINE      CODE     ---       #344
      010016DBH   LINE      CODE     ---       #345
      010016DBH   LINE      CODE     ---       #346
      ---         BLOCKEND  ---      ---       LVL=0

      01001C43H   BLOCK     CODE     ---       LVL=0
      01001C43H   LINE      CODE     ---       #368
      01001C43H   LINE      CODE     ---       #369
      01001C43H   LINE      CODE     ---       #371
      01001C46H   LINE      CODE     ---       #372
      01001C49H   LINE      CODE     ---       #377
      01001C4CH   LINE      CODE     ---       #378
      01001C4FH   LINE      CODE     ---       #379
      01001C52H   LINE      CODE     ---       #393
      01001C55H   LINE      CODE     ---       #401
      01001C57H   LINE      CODE     ---       #402
      01001C59H   LINE      CODE     ---       #403
      ---         BLOCKEND  ---      ---       LVL=0

      ---         MODULE    ---      ---       ADC
      02000083H   PUBLIC    XDATA    ---       adc_result
      00000071H   PUBLIC    DATA     BYTE      adc_flags
      01001D81H   PUBLIC    CONST    ---       adc_mux
      0100187AH   PUBLIC    CODE     ---       ADC_task
      01001AC0H   PUBLIC    CODE     ---       ADC_initialize_adc
      000000A2H   SFRSYM    DATA     BYTE      SPI0CKR
      00000080H   SFRSYM    DATA     BYTE      P0
      000000D0H.2 SFRSYM    DATA     BIT       PSW_OV
      00000090H   SFRSYM    DATA     BYTE      P1
      00000097H   SFRSYM    DATA     BYTE      WDTCN
      000000A0H   SFRSYM    DATA     BYTE      P2
      000000BCH   SFRSYM    DATA     BYTE      ADC0CF
      000000C8H   SFRSYM    DATA     BIT       TMR2CN0_T2XCLK
      000000C0H.7 SFRSYM    DATA     BIT       SMB0CN0_MASTER
      000000F9H   SFRSYM    DATA     WORD      PCA0
      000000E6H   SFRSYM    DATA     BYTE      EIE1
      000000C0H.1 SFRSYM    DATA     BIT       SMB0CN0_ACK
      0000008FH   SFRSYM    DATA     BYTE      PSCTL
      000000E4H   SFRSYM    DATA     BYTE      IT01CF
      000000C0H.6 SFRSYM    DATA     BIT       SMB0CN0_TXMODE
      000000ADH   SFRSYM    DATA     BYTE      DERIVID
      000000A4H   SFRSYM    DATA     BYTE      P0MDOUT
      000000A5H   SFRSYM    DATA     BYTE      P1MDOUT
      000000E8H.5 SFRSYM    DATA     BIT       ADC0CN0_ADINT
      000000CBH   SFRSYM    DATA     BYTE      TMR2RLH
      000000A6H   SFRSYM    DATA     BYTE      P2MDOUT
      000000A8H   SFRSYM    DATA     BYTE      IE
      00000093H   SFRSYM    DATA     BYTE      TMR3RLH
      000000F3H   SFRSYM    DATA     BYTE      EIP1
      00000098H.2 SFRSYM    DATA     BIT       SCON0_RB8
      000000CAH   SFRSYM    DATA     BYTE      TMR2RLL
      000000FCH   SFRSYM    DATA     BYTE      PCA0CPH0
      00000092H   SFRSYM    DATA     BYTE      TMR3RLL
LX51 LINKER/LOCATER V4.66.30.0                                                        01/29/2020  13:56:08  PAGE 51


      000000EAH   SFRSYM    DATA     BYTE      PCA0CPH1
      00000098H.3 SFRSYM    DATA     BIT       SCON0_TB8
      000000F0H   SFRSYM    DATA     BIT       B_B0
      00000082H   SFRSYM    DATA     WORD      DP
      000000ECH   SFRSYM    DATA     BYTE      PCA0CPH2
      000000A0H.1 SFRSYM    DATA     BIT       BTN0
      000000F0H.1 SFRSYM    DATA     BIT       B_B1
      000000C3H   SFRSYM    DATA     WORD      ADC0GT
      00000090H.1 SFRSYM    DATA     BIT       BTN1
      000000F0H.2 SFRSYM    DATA     BIT       B_B2
      000000FBH   SFRSYM    DATA     BYTE      PCA0CPL0
      000000F0H.3 SFRSYM    DATA     BIT       B_B3
      000000D9H   SFRSYM    DATA     BYTE      PCA0MD
      000000DAH   SFRSYM    DATA     BYTE      PCA0CPM0
      000000E9H   SFRSYM    DATA     BYTE      PCA0CPL1
      000000F0H.4 SFRSYM    DATA     BIT       B_B4
      000000DBH   SFRSYM    DATA     BYTE      PCA0CPM1
      000000EBH   SFRSYM    DATA     BYTE      PCA0CPL2
      000000F0H.5 SFRSYM    DATA     BIT       B_B5
      000000DCH   SFRSYM    DATA     BYTE      PCA0CPM2
      000000B8H   SFRSYM    DATA     BYTE      IP
      000000B9H   SFRSYM    DATA     BYTE      ADC0TK
      000000F0H.6 SFRSYM    DATA     BIT       B_B6
      000000C5H   SFRSYM    DATA     WORD      ADC0LT
      00000098H.5 SFRSYM    DATA     BIT       SCON0_MCE
      000000F0H.7 SFRSYM    DATA     BIT       B_B7
      000000E1H   SFRSYM    DATA     BYTE      XBR0
      000000C1H   SFRSYM    DATA     BYTE      SMB0CF
      000000E2H   SFRSYM    DATA     BYTE      XBR1
      000000C0H.5 SFRSYM    DATA     BIT       SMB0CN0_STA
      000000E3H   SFRSYM    DATA     BYTE      XBR2
      000000BBH   SFRSYM    DATA     BYTE      ADC0MX
      000000E0H   SFRSYM    DATA     BIT       ACC_ACC0
      000000D1H   SFRSYM    DATA     BYTE      REF0CN
      0000008EH   SFRSYM    DATA     BYTE      CKCON0
      000000E0H.1 SFRSYM    DATA     BIT       ACC_ACC1
      000000C9H   SFRSYM    DATA     BYTE      REG0CN
      000000DDH   SFRSYM    DATA     BYTE      CRC0IN
      000000C8H.2 SFRSYM    DATA     BIT       TMR2CN0_TR2
      000000E0H.2 SFRSYM    DATA     BIT       ACC_ACC2
      000000E0H.3 SFRSYM    DATA     BIT       ACC_ACC3
      00000081H   SFRSYM    DATA     BYTE      SP
      0000009DH   SFRSYM    DATA     BYTE      CMP0MD
      000000E0H.4 SFRSYM    DATA     BIT       ACC_ACC4
      000000B1H   SFRSYM    DATA     BYTE      LFO0CN
      000000ABH   SFRSYM    DATA     BYTE      CMP1MD
      000000D8H   SFRSYM    DATA     BIT       PCA0CN0_CCF0
      000000E0H.5 SFRSYM    DATA     BIT       ACC_ACC5
      000000D8H.1 SFRSYM    DATA     BIT       PCA0CN0_CCF1
      000000E0H.6 SFRSYM    DATA     BIT       ACC_ACC6
      000000CCH   SFRSYM    DATA     WORD      TMR2
      000000D8H.2 SFRSYM    DATA     BIT       PCA0CN0_CCF2
      000000E0H.7 SFRSYM    DATA     BIT       ACC_ACC7
      00000094H   SFRSYM    DATA     WORD      TMR3
      000000C0H.3 SFRSYM    DATA     BIT       SMB0CN0_ACKRQ
      000000FFH   SFRSYM    DATA     BYTE      VDM0CN
      000000F1H   SFRSYM    DATA     BYTE      P0MDIN
      00000098H.4 SFRSYM    DATA     BIT       SCON0_REN
      000000ACH   SFRSYM    DATA     BYTE      SMB0TC
      000000F2H   SFRSYM    DATA     BYTE      P1MDIN
      000000C0H.4 SFRSYM    DATA     BIT       SMB0CN0_STO
      000000FEH   SFRSYM    DATA     BYTE      P0MASK
LX51 LINKER/LOCATER V4.66.30.0                                                        01/29/2020  13:56:08  PAGE 52


      000000EEH   SFRSYM    DATA     BYTE      P1MASK
      000000D0H.3 SFRSYM    DATA     BIT       PSW_RS0
      000000D8H.7 SFRSYM    DATA     BIT       PCA0CN0_CF
      0000009EH   SFRSYM    DATA     BYTE      PCA0CENT
      000000F8H.4 SFRSYM    DATA     BIT       SPI0CN0_RXOVRN
      000000D0H.4 SFRSYM    DATA     BIT       PSW_RS1
      000000E8H.7 SFRSYM    DATA     BIT       ADC0CN0_ADEN
      00000089H   SFRSYM    DATA     BYTE      TMOD
      00000088H   SFRSYM    DATA     BYTE      TCON
      000000CFH   SFRSYM    DATA     BYTE      CRC0FLIP
      000000D0H   SFRSYM    DATA     BIT       PSW_PARITY
      000000A8H.4 SFRSYM    DATA     BIT       IE_ES0
      0000009FH   SFRSYM    DATA     BYTE      CMP0MX
      000000A8H.1 SFRSYM    DATA     BIT       IE_ET0
      000000AAH   SFRSYM    DATA     BYTE      CMP1MX
      000000A8H.3 SFRSYM    DATA     BIT       IE_ET1
      000000D4H   SFRSYM    DATA     BYTE      P0SKIP
      000000A8H.5 SFRSYM    DATA     BIT       IE_ET2
      000000D5H   SFRSYM    DATA     BYTE      P1SKIP
      000000E8H   SFRSYM    DATA     BYTE      ADC0CN0
      000000A8H   SFRSYM    DATA     BIT       IE_EX0
      000000B2H   SFRSYM    DATA     BYTE      ADC0CN1
      000000D8H.6 SFRSYM    DATA     BIT       PCA0CN0_CR
      000000A8H.2 SFRSYM    DATA     BIT       IE_EX1
      00000098H.7 SFRSYM    DATA     BIT       SCON0_SMODE
      000000B5H   SFRSYM    DATA     BYTE      DEVICEID
      000000A9H   SFRSYM    DATA     BYTE      CLKSEL
      000000F8H   SFRSYM    DATA     BIT       SPI0CN0_SPIEN
      000000F0H   SFRSYM    DATA     BYTE      B
      000000BEH   SFRSYM    DATA     BYTE      ADC0H
      000000D2H   SFRSYM    DATA     BYTE      CRC0AUTO
      000000E8H.6 SFRSYM    DATA     BIT       ADC0CN0_ADBMEN
      000000CAH   SFRSYM    DATA     WORD      TMR2RL
      000000BDH   SFRSYM    DATA     BYTE      ADC0L
      00000092H   SFRSYM    DATA     WORD      TMR3RL
      000000D8H   SFRSYM    DATA     BYTE      PCA0CN0
      000000E0H   SFRSYM    DATA     BYTE      ACC
      000000FBH   SFRSYM    DATA     WORD      PCA0CP0
      000000E9H   SFRSYM    DATA     WORD      PCA0CP1
      000000EBH   SFRSYM    DATA     WORD      PCA0CP2
      000000CEH   SFRSYM    DATA     BYTE      CRC0CN0
      00000090H.4 SFRSYM    DATA     BIT       BSP_LED0
      0000008CH   SFRSYM    DATA     BYTE      TH0
      000000B8H.4 SFRSYM    DATA     BIT       IP_PS0
      0000008DH   SFRSYM    DATA     BYTE      TH1
      000000FAH   SFRSYM    DATA     BYTE      PCA0H
      000000B8H.1 SFRSYM    DATA     BIT       IP_PT0
      000000B8H.3 SFRSYM    DATA     BIT       IP_PT1
      000000C0H.2 SFRSYM    DATA     BIT       SMB0CN0_ARBLOST
      000000B8H.5 SFRSYM    DATA     BIT       IP_PT2
      0000008AH   SFRSYM    DATA     BYTE      TL0
      000000F8H.1 SFRSYM    DATA     BIT       SPI0CN0_TXBMT
      000000D0H.5 SFRSYM    DATA     BIT       PSW_F0
      000000A8H.6 SFRSYM    DATA     BIT       IE_ESPI0
      0000008BH   SFRSYM    DATA     BYTE      TL1
      000000F9H   SFRSYM    DATA     BYTE      PCA0L
      000000C0H   SFRSYM    DATA     BIT       SMB0CN0_SI
      000000D0H.1 SFRSYM    DATA     BIT       PSW_F1
      00000080H   SFRSYM    DATA     BIT       P0_B0
      000000B8H   SFRSYM    DATA     BIT       IP_PX0
      00000090H   SFRSYM    DATA     BIT       P1_B0
      00000080H.1 SFRSYM    DATA     BIT       P0_B1
LX51 LINKER/LOCATER V4.66.30.0                                                        01/29/2020  13:56:08  PAGE 53


      000000B8H.2 SFRSYM    DATA     BIT       IP_PX1
      0000009BH   SFRSYM    DATA     BYTE      CMP0CN0
      00000088H.1 SFRSYM    DATA     BIT       TCON_IE0
      000000A0H   SFRSYM    DATA     BIT       P2_B0
      00000090H.1 SFRSYM    DATA     BIT       P1_B1
      00000080H.2 SFRSYM    DATA     BIT       P0_B2
      000000BFH   SFRSYM    DATA     BYTE      CMP1CN0
      00000088H.3 SFRSYM    DATA     BIT       TCON_IE1
      000000A0H.1 SFRSYM    DATA     BIT       P2_B1
      00000090H.2 SFRSYM    DATA     BIT       P1_B2
      00000080H.3 SFRSYM    DATA     BIT       P0_B3
      000000C0H   SFRSYM    DATA     BYTE      SMB0CN0
      00000090H.3 SFRSYM    DATA     BIT       P1_B3
      00000080H.4 SFRSYM    DATA     BIT       P0_B4
      00000090H.4 SFRSYM    DATA     BIT       P1_B4
      00000080H.5 SFRSYM    DATA     BIT       P0_B5
      00000090H.5 SFRSYM    DATA     BIT       P1_B5
      00000080H.6 SFRSYM    DATA     BIT       P0_B6
      00000090H.6 SFRSYM    DATA     BIT       P1_B6
      00000080H.7 SFRSYM    DATA     BIT       P0_B7
      00000090H.7 SFRSYM    DATA     BIT       P1_B7
      00000080H.2 SFRSYM    DATA     BIT       BSP_BTN0
      00000083H   SFRSYM    DATA     BYTE      DPH
      000000C4H   SFRSYM    DATA     BYTE      ADC0GTH
      000000C8H.7 SFRSYM    DATA     BIT       TMR2CN0_TF2H
      000000C8H.3 SFRSYM    DATA     BIT       TMR2CN0_T2SPLIT
      000000D0H.6 SFRSYM    DATA     BIT       PSW_AC
      000000F8H   SFRSYM    DATA     BYTE      SPI0CN0
      000000C7H   SFRSYM    DATA     BYTE      HFO0CAL
      00000088H.5 SFRSYM    DATA     BIT       TCON_TF0
      00000098H   SFRSYM    DATA     BIT       SCON0_RI
      00000082H   SFRSYM    DATA     BYTE      DPL
      00000088H.7 SFRSYM    DATA     BIT       TCON_TF1
      00000099H   SFRSYM    DATA     BYTE      SBUF0
      00000087H   SFRSYM    DATA     BYTE      PCON0
      000000C3H   SFRSYM    DATA     BYTE      ADC0GTL
      000000C8H.6 SFRSYM    DATA     BIT       TMR2CN0_TF2L
      00000098H.1 SFRSYM    DATA     BIT       SCON0_TI
      000000E8H   SFRSYM    DATA     BIT       ADC0CN0_ADCM0
      000000C6H   SFRSYM    DATA     BYTE      ADC0LTH
      00000088H   SFRSYM    DATA     BIT       TCON_IT0
      000000E8H.1 SFRSYM    DATA     BIT       ADC0CN0_ADCM1
      000000EFH   SFRSYM    DATA     BYTE      RSTSRC
      000000FDH   SFRSYM    DATA     BYTE      P0MAT
      000000DEH   SFRSYM    DATA     BYTE      CRC0DAT
      00000088H.2 SFRSYM    DATA     BIT       TCON_IT1
      000000E8H.2 SFRSYM    DATA     BIT       ADC0CN0_ADCM2
      00000098H   SFRSYM    DATA     BYTE      SCON0
      000000F6H   SFRSYM    DATA     BYTE      PRTDRV
      000000EDH   SFRSYM    DATA     BYTE      P1MAT
      000000E8H.3 SFRSYM    DATA     BIT       ADC0CN0_ADWINT
      000000E8H.4 SFRSYM    DATA     BIT       ADC0CN0_ADBUSY
      000000D6H   SFRSYM    DATA     BYTE      SMB0ADM
      000000C5H   SFRSYM    DATA     BYTE      ADC0LTL
      000000F8H.5 SFRSYM    DATA     BIT       SPI0CN0_MODF
      000000B8H.6 SFRSYM    DATA     BIT       IP_PSPI0
      0000009CH   SFRSYM    DATA     BYTE      PCA0CLR
      000000C8H   SFRSYM    DATA     BYTE      TMR2CN0
      00000091H   SFRSYM    DATA     BYTE      TMR3CN0
      000000D7H   SFRSYM    DATA     BYTE      SMB0ADR
      00000088H.4 SFRSYM    DATA     BIT       TCON_TR0
      000000C8H.4 SFRSYM    DATA     BIT       TMR2CN0_TF2CEN
LX51 LINKER/LOCATER V4.66.30.0                                                        01/29/2020  13:56:08  PAGE 54


      00000088H.6 SFRSYM    DATA     BIT       TCON_TR1
      000000C2H   SFRSYM    DATA     BYTE      SMB0DAT
      000000CDH   SFRSYM    DATA     BYTE      TMR2H
      000000A1H   SFRSYM    DATA     BYTE      SPI0CFG
      00000095H   SFRSYM    DATA     BYTE      TMR3H
      000000D3H   SFRSYM    DATA     BYTE      CRC0CNT
      00000096H   SFRSYM    DATA     BYTE      PCA0POL
      000000CCH   SFRSYM    DATA     BYTE      TMR2L
      000000F8H.7 SFRSYM    DATA     BIT       SPI0CN0_SPIF
      00000094H   SFRSYM    DATA     BYTE      TMR3L
      000000DFH   SFRSYM    DATA     BYTE      ADC0PWR
      000000A8H.7 SFRSYM    DATA     BIT       IE_EA
      000000C8H.5 SFRSYM    DATA     BIT       TMR2CN0_TF2LEN
      000000F8H.6 SFRSYM    DATA     BIT       SPI0CN0_WCOL
      000000F8H.2 SFRSYM    DATA     BIT       SPI0CN0_NSSMD0
      000000D0H.7 SFRSYM    DATA     BIT       PSW_CY
      000000A3H   SFRSYM    DATA     BYTE      SPI0DAT
      000000F8H.3 SFRSYM    DATA     BIT       SPI0CN0_NSSMD1
      000000BDH   SFRSYM    DATA     WORD      ADC0
      000000D0H   SFRSYM    DATA     BYTE      PSW
      000000F7H   SFRSYM    DATA     BYTE      PCA0PWM
      000000B6H   SFRSYM    DATA     BYTE      REVID
      000000B7H   SFRSYM    DATA     BYTE      FLKEY
      000000B3H   SFRSYM    DATA     BYTE      ADC0AC
      000000B1H   SYMBOL    IDATA    BYTE      adc_index

      01001AC0H   BLOCK     CODE     ---       LVL=0
      01001AC0H   LINE      CODE     ---       #80
      01001AC0H   LINE      CODE     ---       #81
      01001AC0H   LINE      CODE     ---       #83
      01001AC3H   LINE      CODE     ---       #87
      01001AC6H   LINE      CODE     ---       #91
      01001AC9H   LINE      CODE     ---       #94
      01001ACCH   LINE      CODE     ---       #97
      01001ACFH   LINE      CODE     ---       #100
      01001AD2H   LINE      CODE     ---       #104
      01001AD5H   LINE      CODE     ---       #107
      01001AD7H   LINE      CODE     ---       #108
      01001ADBH   LINE      CODE     ---       #109
      01001AE2H   LINE      CODE     ---       #110
      01001AE4H   LINE      CODE     ---       #111
      01001AE7H   LINE      CODE     ---       #112
      ---         BLOCKEND  ---      ---       LVL=0

      0100187AH   BLOCK     CODE     ---       LVL=0
      0100187AH   LINE      CODE     ---       #126
      0100187AH   LINE      CODE     ---       #127
      0100187AH   LINE      CODE     ---       #128
      0100187DH   LINE      CODE     ---       #129
      0100187DH   LINE      CODE     ---       #130
      01001893H   LINE      CODE     ---       #131
      01001895H   LINE      CODE     ---       #133
      010018A2H   LINE      CODE     ---       #134
      010018A5H   LINE      CODE     ---       #135
      010018ABH   LINE      CODE     ---       #136
      010018ABH   LINE      CODE     ---       #137
      010018ADH   LINE      CODE     ---       #138
      010018ADH   LINE      CODE     ---       #139
      010018B6H   LINE      CODE     ---       #141
      010018B8H   LINE      CODE     ---       #142
      010018B8H   LINE      CODE     ---       #143
      ---         BLOCKEND  ---      ---       LVL=0
LX51 LINKER/LOCATER V4.66.30.0                                                        01/29/2020  13:56:08  PAGE 55



      ---         MODULE    ---      ---       BTN
      00000072H   PUBLIC    DATA     BYTE      btn_released_time
      01001A3AH   PUBLIC    CODE     ---       btn_process
      01001BCDH   PUBLIC    CODE     ---       is_btn1_pressed
      000000A2H   SFRSYM    DATA     BYTE      SPI0CKR
      00000080H   SFRSYM    DATA     BYTE      P0
      000000D0H.2 SFRSYM    DATA     BIT       PSW_OV
      00000090H   SFRSYM    DATA     BYTE      P1
      00000097H   SFRSYM    DATA     BYTE      WDTCN
      000000A0H   SFRSYM    DATA     BYTE      P2
      000000BCH   SFRSYM    DATA     BYTE      ADC0CF
      000000C8H   SFRSYM    DATA     BIT       TMR2CN0_T2XCLK
      000000C0H.7 SFRSYM    DATA     BIT       SMB0CN0_MASTER
      000000F9H   SFRSYM    DATA     WORD      PCA0
      000000E6H   SFRSYM    DATA     BYTE      EIE1
      000000C0H.1 SFRSYM    DATA     BIT       SMB0CN0_ACK
      0000008FH   SFRSYM    DATA     BYTE      PSCTL
      000000E4H   SFRSYM    DATA     BYTE      IT01CF
      000000C0H.6 SFRSYM    DATA     BIT       SMB0CN0_TXMODE
      000000ADH   SFRSYM    DATA     BYTE      DERIVID
      000000A4H   SFRSYM    DATA     BYTE      P0MDOUT
      000000A5H   SFRSYM    DATA     BYTE      P1MDOUT
      000000E8H.5 SFRSYM    DATA     BIT       ADC0CN0_ADINT
      000000CBH   SFRSYM    DATA     BYTE      TMR2RLH
      000000A6H   SFRSYM    DATA     BYTE      P2MDOUT
      000000A8H   SFRSYM    DATA     BYTE      IE
      00000093H   SFRSYM    DATA     BYTE      TMR3RLH
      000000F3H   SFRSYM    DATA     BYTE      EIP1
      00000098H.2 SFRSYM    DATA     BIT       SCON0_RB8
      000000CAH   SFRSYM    DATA     BYTE      TMR2RLL
      000000FCH   SFRSYM    DATA     BYTE      PCA0CPH0
      00000092H   SFRSYM    DATA     BYTE      TMR3RLL
      000000EAH   SFRSYM    DATA     BYTE      PCA0CPH1
      00000098H.3 SFRSYM    DATA     BIT       SCON0_TB8
      000000F0H   SFRSYM    DATA     BIT       B_B0
      00000082H   SFRSYM    DATA     WORD      DP
      000000ECH   SFRSYM    DATA     BYTE      PCA0CPH2
      000000A0H.1 SFRSYM    DATA     BIT       BTN0
      000000F0H.1 SFRSYM    DATA     BIT       B_B1
      000000C3H   SFRSYM    DATA     WORD      ADC0GT
      00000090H.1 SFRSYM    DATA     BIT       BTN1
      000000F0H.2 SFRSYM    DATA     BIT       B_B2
      000000FBH   SFRSYM    DATA     BYTE      PCA0CPL0
      000000F0H.3 SFRSYM    DATA     BIT       B_B3
      000000D9H   SFRSYM    DATA     BYTE      PCA0MD
      000000DAH   SFRSYM    DATA     BYTE      PCA0CPM0
      000000E9H   SFRSYM    DATA     BYTE      PCA0CPL1
      000000F0H.4 SFRSYM    DATA     BIT       B_B4
      000000DBH   SFRSYM    DATA     BYTE      PCA0CPM1
      000000EBH   SFRSYM    DATA     BYTE      PCA0CPL2
      000000F0H.5 SFRSYM    DATA     BIT       B_B5
      000000DCH   SFRSYM    DATA     BYTE      PCA0CPM2
      000000B8H   SFRSYM    DATA     BYTE      IP
      000000B9H   SFRSYM    DATA     BYTE      ADC0TK
      000000F0H.6 SFRSYM    DATA     BIT       B_B6
      000000C5H   SFRSYM    DATA     WORD      ADC0LT
      00000098H.5 SFRSYM    DATA     BIT       SCON0_MCE
      000000F0H.7 SFRSYM    DATA     BIT       B_B7
      000000E1H   SFRSYM    DATA     BYTE      XBR0
      000000C1H   SFRSYM    DATA     BYTE      SMB0CF
      000000E2H   SFRSYM    DATA     BYTE      XBR1
LX51 LINKER/LOCATER V4.66.30.0                                                        01/29/2020  13:56:08  PAGE 56


      000000C0H.5 SFRSYM    DATA     BIT       SMB0CN0_STA
      000000E3H   SFRSYM    DATA     BYTE      XBR2
      000000BBH   SFRSYM    DATA     BYTE      ADC0MX
      000000E0H   SFRSYM    DATA     BIT       ACC_ACC0
      000000D1H   SFRSYM    DATA     BYTE      REF0CN
      0000008EH   SFRSYM    DATA     BYTE      CKCON0
      000000E0H.1 SFRSYM    DATA     BIT       ACC_ACC1
      000000C9H   SFRSYM    DATA     BYTE      REG0CN
      000000DDH   SFRSYM    DATA     BYTE      CRC0IN
      000000C8H.2 SFRSYM    DATA     BIT       TMR2CN0_TR2
      000000E0H.2 SFRSYM    DATA     BIT       ACC_ACC2
      000000E0H.3 SFRSYM    DATA     BIT       ACC_ACC3
      00000081H   SFRSYM    DATA     BYTE      SP
      0000009DH   SFRSYM    DATA     BYTE      CMP0MD
      000000E0H.4 SFRSYM    DATA     BIT       ACC_ACC4
      000000B1H   SFRSYM    DATA     BYTE      LFO0CN
      000000ABH   SFRSYM    DATA     BYTE      CMP1MD
      000000D8H   SFRSYM    DATA     BIT       PCA0CN0_CCF0
      000000E0H.5 SFRSYM    DATA     BIT       ACC_ACC5
      000000D8H.1 SFRSYM    DATA     BIT       PCA0CN0_CCF1
      000000E0H.6 SFRSYM    DATA     BIT       ACC_ACC6
      000000CCH   SFRSYM    DATA     WORD      TMR2
      000000D8H.2 SFRSYM    DATA     BIT       PCA0CN0_CCF2
      000000E0H.7 SFRSYM    DATA     BIT       ACC_ACC7
      00000094H   SFRSYM    DATA     WORD      TMR3
      000000C0H.3 SFRSYM    DATA     BIT       SMB0CN0_ACKRQ
      000000FFH   SFRSYM    DATA     BYTE      VDM0CN
      000000F1H   SFRSYM    DATA     BYTE      P0MDIN
      00000098H.4 SFRSYM    DATA     BIT       SCON0_REN
      000000ACH   SFRSYM    DATA     BYTE      SMB0TC
      000000F2H   SFRSYM    DATA     BYTE      P1MDIN
      000000C0H.4 SFRSYM    DATA     BIT       SMB0CN0_STO
      000000FEH   SFRSYM    DATA     BYTE      P0MASK
      000000EEH   SFRSYM    DATA     BYTE      P1MASK
      000000D0H.3 SFRSYM    DATA     BIT       PSW_RS0
      000000D8H.7 SFRSYM    DATA     BIT       PCA0CN0_CF
      0000009EH   SFRSYM    DATA     BYTE      PCA0CENT
      000000F8H.4 SFRSYM    DATA     BIT       SPI0CN0_RXOVRN
      000000D0H.4 SFRSYM    DATA     BIT       PSW_RS1
      000000E8H.7 SFRSYM    DATA     BIT       ADC0CN0_ADEN
      00000089H   SFRSYM    DATA     BYTE      TMOD
      00000088H   SFRSYM    DATA     BYTE      TCON
      000000CFH   SFRSYM    DATA     BYTE      CRC0FLIP
      000000D0H   SFRSYM    DATA     BIT       PSW_PARITY
      000000A8H.4 SFRSYM    DATA     BIT       IE_ES0
      0000009FH   SFRSYM    DATA     BYTE      CMP0MX
      000000A8H.1 SFRSYM    DATA     BIT       IE_ET0
      000000AAH   SFRSYM    DATA     BYTE      CMP1MX
      000000A8H.3 SFRSYM    DATA     BIT       IE_ET1
      000000D4H   SFRSYM    DATA     BYTE      P0SKIP
      000000A8H.5 SFRSYM    DATA     BIT       IE_ET2
      000000D5H   SFRSYM    DATA     BYTE      P1SKIP
      000000E8H   SFRSYM    DATA     BYTE      ADC0CN0
      000000A8H   SFRSYM    DATA     BIT       IE_EX0
      000000B2H   SFRSYM    DATA     BYTE      ADC0CN1
      000000D8H.6 SFRSYM    DATA     BIT       PCA0CN0_CR
      000000A8H.2 SFRSYM    DATA     BIT       IE_EX1
      00000098H.7 SFRSYM    DATA     BIT       SCON0_SMODE
      000000B5H   SFRSYM    DATA     BYTE      DEVICEID
      000000A9H   SFRSYM    DATA     BYTE      CLKSEL
      000000F8H   SFRSYM    DATA     BIT       SPI0CN0_SPIEN
      000000F0H   SFRSYM    DATA     BYTE      B
LX51 LINKER/LOCATER V4.66.30.0                                                        01/29/2020  13:56:08  PAGE 57


      000000BEH   SFRSYM    DATA     BYTE      ADC0H
      000000D2H   SFRSYM    DATA     BYTE      CRC0AUTO
      000000E8H.6 SFRSYM    DATA     BIT       ADC0CN0_ADBMEN
      000000CAH   SFRSYM    DATA     WORD      TMR2RL
      000000BDH   SFRSYM    DATA     BYTE      ADC0L
      00000092H   SFRSYM    DATA     WORD      TMR3RL
      000000D8H   SFRSYM    DATA     BYTE      PCA0CN0
      000000E0H   SFRSYM    DATA     BYTE      ACC
      000000FBH   SFRSYM    DATA     WORD      PCA0CP0
      000000E9H   SFRSYM    DATA     WORD      PCA0CP1
      000000EBH   SFRSYM    DATA     WORD      PCA0CP2
      000000CEH   SFRSYM    DATA     BYTE      CRC0CN0
      00000090H.4 SFRSYM    DATA     BIT       BSP_LED0
      0000008CH   SFRSYM    DATA     BYTE      TH0
      000000B8H.4 SFRSYM    DATA     BIT       IP_PS0
      0000008DH   SFRSYM    DATA     BYTE      TH1
      000000FAH   SFRSYM    DATA     BYTE      PCA0H
      000000B8H.1 SFRSYM    DATA     BIT       IP_PT0
      000000B8H.3 SFRSYM    DATA     BIT       IP_PT1
      000000C0H.2 SFRSYM    DATA     BIT       SMB0CN0_ARBLOST
      000000B8H.5 SFRSYM    DATA     BIT       IP_PT2
      0000008AH   SFRSYM    DATA     BYTE      TL0
      000000F8H.1 SFRSYM    DATA     BIT       SPI0CN0_TXBMT
      000000D0H.5 SFRSYM    DATA     BIT       PSW_F0
      000000A8H.6 SFRSYM    DATA     BIT       IE_ESPI0
      0000008BH   SFRSYM    DATA     BYTE      TL1
      000000F9H   SFRSYM    DATA     BYTE      PCA0L
      000000C0H   SFRSYM    DATA     BIT       SMB0CN0_SI
      000000D0H.1 SFRSYM    DATA     BIT       PSW_F1
      00000080H   SFRSYM    DATA     BIT       P0_B0
      000000B8H   SFRSYM    DATA     BIT       IP_PX0
      00000090H   SFRSYM    DATA     BIT       P1_B0
      00000080H.1 SFRSYM    DATA     BIT       P0_B1
      000000B8H.2 SFRSYM    DATA     BIT       IP_PX1
      0000009BH   SFRSYM    DATA     BYTE      CMP0CN0
      00000088H.1 SFRSYM    DATA     BIT       TCON_IE0
      000000A0H   SFRSYM    DATA     BIT       P2_B0
      00000090H.1 SFRSYM    DATA     BIT       P1_B1
      00000080H.2 SFRSYM    DATA     BIT       P0_B2
      000000BFH   SFRSYM    DATA     BYTE      CMP1CN0
      00000088H.3 SFRSYM    DATA     BIT       TCON_IE1
      000000A0H.1 SFRSYM    DATA     BIT       P2_B1
      00000090H.2 SFRSYM    DATA     BIT       P1_B2
      00000080H.3 SFRSYM    DATA     BIT       P0_B3
      000000C0H   SFRSYM    DATA     BYTE      SMB0CN0
      00000090H.3 SFRSYM    DATA     BIT       P1_B3
      00000080H.4 SFRSYM    DATA     BIT       P0_B4
      00000090H.4 SFRSYM    DATA     BIT       P1_B4
      00000080H.5 SFRSYM    DATA     BIT       P0_B5
      00000090H.5 SFRSYM    DATA     BIT       P1_B5
      00000080H.6 SFRSYM    DATA     BIT       P0_B6
      00000090H.6 SFRSYM    DATA     BIT       P1_B6
      00000080H.7 SFRSYM    DATA     BIT       P0_B7
      00000090H.7 SFRSYM    DATA     BIT       P1_B7
      00000080H.2 SFRSYM    DATA     BIT       BSP_BTN0
      00000083H   SFRSYM    DATA     BYTE      DPH
      000000C4H   SFRSYM    DATA     BYTE      ADC0GTH
      000000C8H.7 SFRSYM    DATA     BIT       TMR2CN0_TF2H
      000000C8H.3 SFRSYM    DATA     BIT       TMR2CN0_T2SPLIT
      000000D0H.6 SFRSYM    DATA     BIT       PSW_AC
      000000F8H   SFRSYM    DATA     BYTE      SPI0CN0
      000000C7H   SFRSYM    DATA     BYTE      HFO0CAL
LX51 LINKER/LOCATER V4.66.30.0                                                        01/29/2020  13:56:08  PAGE 58


      00000088H.5 SFRSYM    DATA     BIT       TCON_TF0
      00000098H   SFRSYM    DATA     BIT       SCON0_RI
      00000082H   SFRSYM    DATA     BYTE      DPL
      00000088H.7 SFRSYM    DATA     BIT       TCON_TF1
      00000099H   SFRSYM    DATA     BYTE      SBUF0
      00000087H   SFRSYM    DATA     BYTE      PCON0
      000000C3H   SFRSYM    DATA     BYTE      ADC0GTL
      000000C8H.6 SFRSYM    DATA     BIT       TMR2CN0_TF2L
      00000098H.1 SFRSYM    DATA     BIT       SCON0_TI
      000000E8H   SFRSYM    DATA     BIT       ADC0CN0_ADCM0
      000000C6H   SFRSYM    DATA     BYTE      ADC0LTH
      00000088H   SFRSYM    DATA     BIT       TCON_IT0
      000000E8H.1 SFRSYM    DATA     BIT       ADC0CN0_ADCM1
      000000EFH   SFRSYM    DATA     BYTE      RSTSRC
      000000FDH   SFRSYM    DATA     BYTE      P0MAT
      000000DEH   SFRSYM    DATA     BYTE      CRC0DAT
      00000088H.2 SFRSYM    DATA     BIT       TCON_IT1
      000000E8H.2 SFRSYM    DATA     BIT       ADC0CN0_ADCM2
      00000098H   SFRSYM    DATA     BYTE      SCON0
      000000F6H   SFRSYM    DATA     BYTE      PRTDRV
      000000EDH   SFRSYM    DATA     BYTE      P1MAT
      000000E8H.3 SFRSYM    DATA     BIT       ADC0CN0_ADWINT
      000000E8H.4 SFRSYM    DATA     BIT       ADC0CN0_ADBUSY
      000000D6H   SFRSYM    DATA     BYTE      SMB0ADM
      000000C5H   SFRSYM    DATA     BYTE      ADC0LTL
      000000F8H.5 SFRSYM    DATA     BIT       SPI0CN0_MODF
      000000B8H.6 SFRSYM    DATA     BIT       IP_PSPI0
      0000009CH   SFRSYM    DATA     BYTE      PCA0CLR
      000000C8H   SFRSYM    DATA     BYTE      TMR2CN0
      00000091H   SFRSYM    DATA     BYTE      TMR3CN0
      000000D7H   SFRSYM    DATA     BYTE      SMB0ADR
      00000088H.4 SFRSYM    DATA     BIT       TCON_TR0
      000000C8H.4 SFRSYM    DATA     BIT       TMR2CN0_TF2CEN
      00000088H.6 SFRSYM    DATA     BIT       TCON_TR1
      000000C2H   SFRSYM    DATA     BYTE      SMB0DAT
      000000CDH   SFRSYM    DATA     BYTE      TMR2H
      000000A1H   SFRSYM    DATA     BYTE      SPI0CFG
      00000095H   SFRSYM    DATA     BYTE      TMR3H
      000000D3H   SFRSYM    DATA     BYTE      CRC0CNT
      00000096H   SFRSYM    DATA     BYTE      PCA0POL
      000000CCH   SFRSYM    DATA     BYTE      TMR2L
      000000F8H.7 SFRSYM    DATA     BIT       SPI0CN0_SPIF
      00000094H   SFRSYM    DATA     BYTE      TMR3L
      000000DFH   SFRSYM    DATA     BYTE      ADC0PWR
      000000A8H.7 SFRSYM    DATA     BIT       IE_EA
      000000C8H.5 SFRSYM    DATA     BIT       TMR2CN0_TF2LEN
      000000F8H.6 SFRSYM    DATA     BIT       SPI0CN0_WCOL
      000000F8H.2 SFRSYM    DATA     BIT       SPI0CN0_NSSMD0
      000000D0H.7 SFRSYM    DATA     BIT       PSW_CY
      000000A3H   SFRSYM    DATA     BYTE      SPI0DAT
      000000F8H.3 SFRSYM    DATA     BIT       SPI0CN0_NSSMD1
      000000BDH   SFRSYM    DATA     WORD      ADC0
      000000D0H   SFRSYM    DATA     BYTE      PSW
      000000F7H   SFRSYM    DATA     BYTE      PCA0PWM
      000000B6H   SFRSYM    DATA     BYTE      REVID
      000000B7H   SFRSYM    DATA     BYTE      FLKEY
      000000B3H   SFRSYM    DATA     BYTE      ADC0AC
      0200008DH   SYMBOL    XDATA    BYTE      api_btn1_state
      0200008EH   SYMBOL    XDATA    BYTE      btn1_state

      01001BCDH   BLOCK     CODE     ---       LVL=0
      01001BCDH   LINE      CODE     ---       #57
LX51 LINKER/LOCATER V4.66.30.0                                                        01/29/2020  13:56:08  PAGE 59


      01001BCDH   LINE      CODE     ---       #58
      01001BCDH   LINE      CODE     ---       #59
      01001BD0H   LINE      CODE     ---       #61
      01001BDEH   LINE      CODE     ---       #62
      01001BDEH   LINE      CODE     ---       #63
      01001BE0H   LINE      CODE     ---       #64
      01001BE3H   LINE      CODE     ---       #65
      01001BE3H   LINE      CODE     ---       #66
      01001BEBH   LINE      CODE     ---       #67
      01001BEDH   LINE      CODE     ---       #68
      ---         BLOCKEND  ---      ---       LVL=0

      01001A3AH   BLOCK     CODE     ---       LVL=0
      01001A3AH   BLOCK     CODE     NEAR LAB  LVL=1
      00000007H   SYMBOL    DATA     BYTE      curtime
      ---         BLOCKEND  ---      ---       LVL=1
      01001A3AH   LINE      CODE     ---       #80
      01001A3AH   LINE      CODE     ---       #81
      01001A3AH   LINE      CODE     ---       #84
      01001A3DH   LINE      CODE     ---       #85
      01001A3DH   LINE      CODE     ---       #86
      01001A43H   LINE      CODE     ---       #87
      01001A44H   LINE      CODE     ---       #88
      01001A4AH   LINE      CODE     ---       #89
      01001A4AH   LINE      CODE     ---       #90
      01001A4DH   LINE      CODE     ---       #93
      01001A54H   LINE      CODE     ---       #94
      01001A54H   LINE      CODE     ---       #95
      01001A57H   LINE      CODE     ---       #96
      01001A59H   LINE      CODE     ---       #97
      01001A5AH   LINE      CODE     ---       #99
      01001A5AH   LINE      CODE     ---       #100
      01001A63H   LINE      CODE     ---       #101
      01001A63H   LINE      CODE     ---       #103
      01001A68H   LINE      CODE     ---       #104
      01001A68H   LINE      CODE     ---       #105
      01001A68H   LINE      CODE     ---       #106
      01001A68H   LINE      CODE     ---       #107
      ---         BLOCKEND  ---      ---       LVL=0

      ---         MODULE    ---      ---       COMP
      01001D28H   PUBLIC    CODE     ---       COMP_initialize_comp
      000000A2H   SFRSYM    DATA     BYTE      SPI0CKR
      00000080H   SFRSYM    DATA     BYTE      P0
      000000D0H.2 SFRSYM    DATA     BIT       PSW_OV
      00000090H   SFRSYM    DATA     BYTE      P1
      00000097H   SFRSYM    DATA     BYTE      WDTCN
      000000A0H   SFRSYM    DATA     BYTE      P2
      000000BCH   SFRSYM    DATA     BYTE      ADC0CF
      000000C8H   SFRSYM    DATA     BIT       TMR2CN0_T2XCLK
      000000C0H.7 SFRSYM    DATA     BIT       SMB0CN0_MASTER
      000000F9H   SFRSYM    DATA     WORD      PCA0
      000000E6H   SFRSYM    DATA     BYTE      EIE1
      000000C0H.1 SFRSYM    DATA     BIT       SMB0CN0_ACK
      0000008FH   SFRSYM    DATA     BYTE      PSCTL
      000000E4H   SFRSYM    DATA     BYTE      IT01CF
      000000C0H.6 SFRSYM    DATA     BIT       SMB0CN0_TXMODE
      000000ADH   SFRSYM    DATA     BYTE      DERIVID
      000000A4H   SFRSYM    DATA     BYTE      P0MDOUT
      000000A5H   SFRSYM    DATA     BYTE      P1MDOUT
      000000E8H.5 SFRSYM    DATA     BIT       ADC0CN0_ADINT
      000000CBH   SFRSYM    DATA     BYTE      TMR2RLH
LX51 LINKER/LOCATER V4.66.30.0                                                        01/29/2020  13:56:08  PAGE 60


      000000A6H   SFRSYM    DATA     BYTE      P2MDOUT
      000000A8H   SFRSYM    DATA     BYTE      IE
      00000093H   SFRSYM    DATA     BYTE      TMR3RLH
      000000F3H   SFRSYM    DATA     BYTE      EIP1
      00000098H.2 SFRSYM    DATA     BIT       SCON0_RB8
      000000CAH   SFRSYM    DATA     BYTE      TMR2RLL
      000000FCH   SFRSYM    DATA     BYTE      PCA0CPH0
      00000092H   SFRSYM    DATA     BYTE      TMR3RLL
      000000EAH   SFRSYM    DATA     BYTE      PCA0CPH1
      00000098H.3 SFRSYM    DATA     BIT       SCON0_TB8
      000000F0H   SFRSYM    DATA     BIT       B_B0
      00000082H   SFRSYM    DATA     WORD      DP
      000000ECH   SFRSYM    DATA     BYTE      PCA0CPH2
      000000A0H.1 SFRSYM    DATA     BIT       BTN0
      000000F0H.1 SFRSYM    DATA     BIT       B_B1
      000000C3H   SFRSYM    DATA     WORD      ADC0GT
      00000090H.1 SFRSYM    DATA     BIT       BTN1
      000000F0H.2 SFRSYM    DATA     BIT       B_B2
      000000FBH   SFRSYM    DATA     BYTE      PCA0CPL0
      000000F0H.3 SFRSYM    DATA     BIT       B_B3
      000000D9H   SFRSYM    DATA     BYTE      PCA0MD
      000000DAH   SFRSYM    DATA     BYTE      PCA0CPM0
      000000E9H   SFRSYM    DATA     BYTE      PCA0CPL1
      000000F0H.4 SFRSYM    DATA     BIT       B_B4
      000000DBH   SFRSYM    DATA     BYTE      PCA0CPM1
      000000EBH   SFRSYM    DATA     BYTE      PCA0CPL2
      000000F0H.5 SFRSYM    DATA     BIT       B_B5
      000000DCH   SFRSYM    DATA     BYTE      PCA0CPM2
      000000B8H   SFRSYM    DATA     BYTE      IP
      000000B9H   SFRSYM    DATA     BYTE      ADC0TK
      000000F0H.6 SFRSYM    DATA     BIT       B_B6
      000000C5H   SFRSYM    DATA     WORD      ADC0LT
      00000098H.5 SFRSYM    DATA     BIT       SCON0_MCE
      000000F0H.7 SFRSYM    DATA     BIT       B_B7
      000000E1H   SFRSYM    DATA     BYTE      XBR0
      000000C1H   SFRSYM    DATA     BYTE      SMB0CF
      000000E2H   SFRSYM    DATA     BYTE      XBR1
      000000C0H.5 SFRSYM    DATA     BIT       SMB0CN0_STA
      000000E3H   SFRSYM    DATA     BYTE      XBR2
      000000BBH   SFRSYM    DATA     BYTE      ADC0MX
      000000E0H   SFRSYM    DATA     BIT       ACC_ACC0
      000000D1H   SFRSYM    DATA     BYTE      REF0CN
      0000008EH   SFRSYM    DATA     BYTE      CKCON0
      000000E0H.1 SFRSYM    DATA     BIT       ACC_ACC1
      000000C9H   SFRSYM    DATA     BYTE      REG0CN
      000000DDH   SFRSYM    DATA     BYTE      CRC0IN
      000000C8H.2 SFRSYM    DATA     BIT       TMR2CN0_TR2
      000000E0H.2 SFRSYM    DATA     BIT       ACC_ACC2
      000000E0H.3 SFRSYM    DATA     BIT       ACC_ACC3
      00000081H   SFRSYM    DATA     BYTE      SP
      0000009DH   SFRSYM    DATA     BYTE      CMP0MD
      000000E0H.4 SFRSYM    DATA     BIT       ACC_ACC4
      000000B1H   SFRSYM    DATA     BYTE      LFO0CN
      000000ABH   SFRSYM    DATA     BYTE      CMP1MD
      000000D8H   SFRSYM    DATA     BIT       PCA0CN0_CCF0
      000000E0H.5 SFRSYM    DATA     BIT       ACC_ACC5
      000000D8H.1 SFRSYM    DATA     BIT       PCA0CN0_CCF1
      000000E0H.6 SFRSYM    DATA     BIT       ACC_ACC6
      000000CCH   SFRSYM    DATA     WORD      TMR2
      000000D8H.2 SFRSYM    DATA     BIT       PCA0CN0_CCF2
      000000E0H.7 SFRSYM    DATA     BIT       ACC_ACC7
      00000094H   SFRSYM    DATA     WORD      TMR3
LX51 LINKER/LOCATER V4.66.30.0                                                        01/29/2020  13:56:08  PAGE 61


      000000C0H.3 SFRSYM    DATA     BIT       SMB0CN0_ACKRQ
      000000FFH   SFRSYM    DATA     BYTE      VDM0CN
      000000F1H   SFRSYM    DATA     BYTE      P0MDIN
      00000098H.4 SFRSYM    DATA     BIT       SCON0_REN
      000000ACH   SFRSYM    DATA     BYTE      SMB0TC
      000000F2H   SFRSYM    DATA     BYTE      P1MDIN
      000000C0H.4 SFRSYM    DATA     BIT       SMB0CN0_STO
      000000FEH   SFRSYM    DATA     BYTE      P0MASK
      000000EEH   SFRSYM    DATA     BYTE      P1MASK
      000000D0H.3 SFRSYM    DATA     BIT       PSW_RS0
      000000D8H.7 SFRSYM    DATA     BIT       PCA0CN0_CF
      0000009EH   SFRSYM    DATA     BYTE      PCA0CENT
      000000F8H.4 SFRSYM    DATA     BIT       SPI0CN0_RXOVRN
      000000D0H.4 SFRSYM    DATA     BIT       PSW_RS1
      000000E8H.7 SFRSYM    DATA     BIT       ADC0CN0_ADEN
      00000089H   SFRSYM    DATA     BYTE      TMOD
      00000088H   SFRSYM    DATA     BYTE      TCON
      000000CFH   SFRSYM    DATA     BYTE      CRC0FLIP
      000000D0H   SFRSYM    DATA     BIT       PSW_PARITY
      000000A8H.4 SFRSYM    DATA     BIT       IE_ES0
      0000009FH   SFRSYM    DATA     BYTE      CMP0MX
      000000A8H.1 SFRSYM    DATA     BIT       IE_ET0
      000000AAH   SFRSYM    DATA     BYTE      CMP1MX
      000000A8H.3 SFRSYM    DATA     BIT       IE_ET1
      000000D4H   SFRSYM    DATA     BYTE      P0SKIP
      000000A8H.5 SFRSYM    DATA     BIT       IE_ET2
      000000D5H   SFRSYM    DATA     BYTE      P1SKIP
      000000E8H   SFRSYM    DATA     BYTE      ADC0CN0
      000000A8H   SFRSYM    DATA     BIT       IE_EX0
      000000B2H   SFRSYM    DATA     BYTE      ADC0CN1
      000000D8H.6 SFRSYM    DATA     BIT       PCA0CN0_CR
      000000A8H.2 SFRSYM    DATA     BIT       IE_EX1
      00000098H.7 SFRSYM    DATA     BIT       SCON0_SMODE
      000000B5H   SFRSYM    DATA     BYTE      DEVICEID
      000000A9H   SFRSYM    DATA     BYTE      CLKSEL
      000000F8H   SFRSYM    DATA     BIT       SPI0CN0_SPIEN
      000000F0H   SFRSYM    DATA     BYTE      B
      000000BEH   SFRSYM    DATA     BYTE      ADC0H
      000000D2H   SFRSYM    DATA     BYTE      CRC0AUTO
      000000E8H.6 SFRSYM    DATA     BIT       ADC0CN0_ADBMEN
      000000CAH   SFRSYM    DATA     WORD      TMR2RL
      000000BDH   SFRSYM    DATA     BYTE      ADC0L
      00000092H   SFRSYM    DATA     WORD      TMR3RL
      000000D8H   SFRSYM    DATA     BYTE      PCA0CN0
      000000E0H   SFRSYM    DATA     BYTE      ACC
      000000FBH   SFRSYM    DATA     WORD      PCA0CP0
      000000E9H   SFRSYM    DATA     WORD      PCA0CP1
      000000EBH   SFRSYM    DATA     WORD      PCA0CP2
      000000CEH   SFRSYM    DATA     BYTE      CRC0CN0
      00000090H.4 SFRSYM    DATA     BIT       BSP_LED0
      0000008CH   SFRSYM    DATA     BYTE      TH0
      000000B8H.4 SFRSYM    DATA     BIT       IP_PS0
      0000008DH   SFRSYM    DATA     BYTE      TH1
      000000FAH   SFRSYM    DATA     BYTE      PCA0H
      000000B8H.1 SFRSYM    DATA     BIT       IP_PT0
      000000B8H.3 SFRSYM    DATA     BIT       IP_PT1
      000000C0H.2 SFRSYM    DATA     BIT       SMB0CN0_ARBLOST
      000000B8H.5 SFRSYM    DATA     BIT       IP_PT2
      0000008AH   SFRSYM    DATA     BYTE      TL0
      000000F8H.1 SFRSYM    DATA     BIT       SPI0CN0_TXBMT
      000000D0H.5 SFRSYM    DATA     BIT       PSW_F0
      000000A8H.6 SFRSYM    DATA     BIT       IE_ESPI0
LX51 LINKER/LOCATER V4.66.30.0                                                        01/29/2020  13:56:08  PAGE 62


      0000008BH   SFRSYM    DATA     BYTE      TL1
      000000F9H   SFRSYM    DATA     BYTE      PCA0L
      000000C0H   SFRSYM    DATA     BIT       SMB0CN0_SI
      000000D0H.1 SFRSYM    DATA     BIT       PSW_F1
      00000080H   SFRSYM    DATA     BIT       P0_B0
      000000B8H   SFRSYM    DATA     BIT       IP_PX0
      00000090H   SFRSYM    DATA     BIT       P1_B0
      00000080H.1 SFRSYM    DATA     BIT       P0_B1
      000000B8H.2 SFRSYM    DATA     BIT       IP_PX1
      0000009BH   SFRSYM    DATA     BYTE      CMP0CN0
      00000088H.1 SFRSYM    DATA     BIT       TCON_IE0
      000000A0H   SFRSYM    DATA     BIT       P2_B0
      00000090H.1 SFRSYM    DATA     BIT       P1_B1
      00000080H.2 SFRSYM    DATA     BIT       P0_B2
      000000BFH   SFRSYM    DATA     BYTE      CMP1CN0
      00000088H.3 SFRSYM    DATA     BIT       TCON_IE1
      000000A0H.1 SFRSYM    DATA     BIT       P2_B1
      00000090H.2 SFRSYM    DATA     BIT       P1_B2
      00000080H.3 SFRSYM    DATA     BIT       P0_B3
      000000C0H   SFRSYM    DATA     BYTE      SMB0CN0
      00000090H.3 SFRSYM    DATA     BIT       P1_B3
      00000080H.4 SFRSYM    DATA     BIT       P0_B4
      00000090H.4 SFRSYM    DATA     BIT       P1_B4
      00000080H.5 SFRSYM    DATA     BIT       P0_B5
      00000090H.5 SFRSYM    DATA     BIT       P1_B5
      00000080H.6 SFRSYM    DATA     BIT       P0_B6
      00000090H.6 SFRSYM    DATA     BIT       P1_B6
      00000080H.7 SFRSYM    DATA     BIT       P0_B7
      00000090H.7 SFRSYM    DATA     BIT       P1_B7
      00000080H.2 SFRSYM    DATA     BIT       BSP_BTN0
      00000083H   SFRSYM    DATA     BYTE      DPH
      000000C4H   SFRSYM    DATA     BYTE      ADC0GTH
      000000C8H.7 SFRSYM    DATA     BIT       TMR2CN0_TF2H
      000000C8H.3 SFRSYM    DATA     BIT       TMR2CN0_T2SPLIT
      000000D0H.6 SFRSYM    DATA     BIT       PSW_AC
      000000F8H   SFRSYM    DATA     BYTE      SPI0CN0
      000000C7H   SFRSYM    DATA     BYTE      HFO0CAL
      00000088H.5 SFRSYM    DATA     BIT       TCON_TF0
      00000098H   SFRSYM    DATA     BIT       SCON0_RI
      00000082H   SFRSYM    DATA     BYTE      DPL
      00000088H.7 SFRSYM    DATA     BIT       TCON_TF1
      00000099H   SFRSYM    DATA     BYTE      SBUF0
      00000087H   SFRSYM    DATA     BYTE      PCON0
      000000C3H   SFRSYM    DATA     BYTE      ADC0GTL
      000000C8H.6 SFRSYM    DATA     BIT       TMR2CN0_TF2L
      00000098H.1 SFRSYM    DATA     BIT       SCON0_TI
      000000E8H   SFRSYM    DATA     BIT       ADC0CN0_ADCM0
      000000C6H   SFRSYM    DATA     BYTE      ADC0LTH
      00000088H   SFRSYM    DATA     BIT       TCON_IT0
      000000E8H.1 SFRSYM    DATA     BIT       ADC0CN0_ADCM1
      000000EFH   SFRSYM    DATA     BYTE      RSTSRC
      000000FDH   SFRSYM    DATA     BYTE      P0MAT
      000000DEH   SFRSYM    DATA     BYTE      CRC0DAT
      00000088H.2 SFRSYM    DATA     BIT       TCON_IT1
      000000E8H.2 SFRSYM    DATA     BIT       ADC0CN0_ADCM2
      00000098H   SFRSYM    DATA     BYTE      SCON0
      000000F6H   SFRSYM    DATA     BYTE      PRTDRV
      000000EDH   SFRSYM    DATA     BYTE      P1MAT
      000000E8H.3 SFRSYM    DATA     BIT       ADC0CN0_ADWINT
      000000E8H.4 SFRSYM    DATA     BIT       ADC0CN0_ADBUSY
      000000D6H   SFRSYM    DATA     BYTE      SMB0ADM
      000000C5H   SFRSYM    DATA     BYTE      ADC0LTL
LX51 LINKER/LOCATER V4.66.30.0                                                        01/29/2020  13:56:08  PAGE 63


      000000F8H.5 SFRSYM    DATA     BIT       SPI0CN0_MODF
      000000B8H.6 SFRSYM    DATA     BIT       IP_PSPI0
      0000009CH   SFRSYM    DATA     BYTE      PCA0CLR
      000000C8H   SFRSYM    DATA     BYTE      TMR2CN0
      00000091H   SFRSYM    DATA     BYTE      TMR3CN0
      000000D7H   SFRSYM    DATA     BYTE      SMB0ADR
      00000088H.4 SFRSYM    DATA     BIT       TCON_TR0
      000000C8H.4 SFRSYM    DATA     BIT       TMR2CN0_TF2CEN
      00000088H.6 SFRSYM    DATA     BIT       TCON_TR1
      000000C2H   SFRSYM    DATA     BYTE      SMB0DAT
      000000CDH   SFRSYM    DATA     BYTE      TMR2H
      000000A1H   SFRSYM    DATA     BYTE      SPI0CFG
      00000095H   SFRSYM    DATA     BYTE      TMR3H
      000000D3H   SFRSYM    DATA     BYTE      CRC0CNT
      00000096H   SFRSYM    DATA     BYTE      PCA0POL
      000000CCH   SFRSYM    DATA     BYTE      TMR2L
      000000F8H.7 SFRSYM    DATA     BIT       SPI0CN0_SPIF
      00000094H   SFRSYM    DATA     BYTE      TMR3L
      000000DFH   SFRSYM    DATA     BYTE      ADC0PWR
      000000A8H.7 SFRSYM    DATA     BIT       IE_EA
      000000C8H.5 SFRSYM    DATA     BIT       TMR2CN0_TF2LEN
      000000F8H.6 SFRSYM    DATA     BIT       SPI0CN0_WCOL
      000000F8H.2 SFRSYM    DATA     BIT       SPI0CN0_NSSMD0
      000000D0H.7 SFRSYM    DATA     BIT       PSW_CY
      000000A3H   SFRSYM    DATA     BYTE      SPI0DAT
      000000F8H.3 SFRSYM    DATA     BIT       SPI0CN0_NSSMD1
      000000BDH   SFRSYM    DATA     WORD      ADC0
      000000D0H   SFRSYM    DATA     BYTE      PSW
      000000F7H   SFRSYM    DATA     BYTE      PCA0PWM
      000000B6H   SFRSYM    DATA     BYTE      REVID
      000000B7H   SFRSYM    DATA     BYTE      FLKEY
      000000B3H   SFRSYM    DATA     BYTE      ADC0AC

      01001D28H   BLOCK     CODE     ---       LVL=0
      01001D28H   LINE      CODE     ---       #45
      01001D28H   LINE      CODE     ---       #46
      01001D28H   LINE      CODE     ---       #47
      01001D2FH   LINE      CODE     ---       #51
      01001D32H   LINE      CODE     ---       #52
      ---         BLOCKEND  ---      ---       LVL=0

      ---         MODULE    ---      ---       MOTOR
      00000044H   PUBLIC    DATA     ---       SLR_minimum_duty
      00000021H.2 PUBLIC    BIT      BIT       SLW_pwm_updated
      00000021H.1 PUBLIC    BIT      BIT       SLW_rpm_updated
      02000056H   PUBLIC    XDATA    BYTE      zc_total_count
      00000040H   PUBLIC    DATA     ---       zc_time
      02000052H   PUBLIC    XDATA    WORD      SLR_motor_current
      0000003FH   PUBLIC    DATA     BYTE      zc_count
      0200004DH   PUBLIC    XDATA    WORD      SLW_motor_max_rpm
      02000049H   PUBLIC    XDATA    DWORD     zc_total_per_mech_rotation
      02000048H   PUBLIC    XDATA    BYTE      SLW_current_limit
      00000021H.0 PUBLIC    BIT      BIT       speed_updated
      02000046H   PUBLIC    XDATA    WORD      SLR_motor_voltage
      02000045H   PUBLIC    XDATA    BYTE      num_poles
      00000020H.6 PUBLIC    BIT      BIT       SLR_motor_stalled
      02000044H   PUBLIC    XDATA    BYTE      SLW_oc_debounce
      0000003DH   PUBLIC    DATA     WORD      SLR_pwm_duty
      00000039H   PUBLIC    DATA     ---       time_per_rotate
      02000042H   PUBLIC    XDATA    WORD      error_event_time
      02000040H   PUBLIC    XDATA    WORD      SLW_target_pwm_duty
      00000020H.5 PUBLIC    BIT      BIT       SLW_user_direction
LX51 LINKER/LOCATER V4.66.30.0                                                        01/29/2020  13:56:08  PAGE 64


      00000020H.4 PUBLIC    BIT      BIT       pid_flag
      00000038H   PUBLIC    DATA     BYTE      commutation_index
      00000037H   PUBLIC    DATA     BYTE      open_phase
      00000033H   PUBLIC    DATA     ---       zc_commutate_time
      0200003FH   PUBLIC    XDATA    BYTE      pre_port1
      0200003DH   PUBLIC    XDATA    WORD      SLR_motor_current_rpm
      00000020H.3 PUBLIC    BIT      BIT       last_motor_stalled
      00000031H   PUBLIC    DATA     WORD      SLW_target_rpm
      00000020H.2 PUBLIC    BIT      BIT       handle_motor_error
      0000002DH   PUBLIC    DATA     ---       prev_zc_time
      000000B2H   PUBLIC    IDATA    BYTE      SLR_motor_state
      0000002BH   PUBLIC    DATA     WORD      SLR_minimum_rpm
      02000034H   PUBLIC    XDATA    BYTE      pre_p1skip
      02000033H   PUBLIC    XDATA    BYTE      pre_p0skip
      02000032H   PUBLIC    XDATA    BYTE      pid_calc_interval
      01001D75H   PUBLIC    CONST    ---       active_gpio
      01001D6FH   PUBLIC    CONST    ---       freeterminal
      01001D63H   PUBLIC    CONST    ---       skipPattern
      01001D57H   PUBLIC    CONST    ---       compMux
      01001D51H   PUBLIC    CONST    ---       start_delay
      01001088H   PUBLIC    CODE     ---       TIMER0_ISR
      0100096DH   PUBLIC    CODE     ---       CMP0_ISR
      01001C70H   PUBLIC    CODE     ---       _SL_MTR_change_num_poles
      01001CF1H   PUBLIC    CODE     ---       SL_MTR_time
      01001D33H   PUBLIC    CODE     ---       MTR_calculate_pid
      010018F5H   PUBLIC    CODE     ---       MTR_save_zero_crossing_time
      0100172CH   PUBLIC    CODE     ---       MTR_calculate_motor_rpm
      01000663H   PUBLIC    CODE     ---       MTR_do_quickstart
      010004D2H   PUBLIC    CODE     ---       MTR_start_spinning
      0100177CH   PUBLIC    CODE     ---       MTR_commutate
      010016E4H   PUBLIC    CODE     ---       MTR_pre_commutation
      01001574H   PUBLIC    CODE     ---       MTR_check_motor_spinning
      010017F9H   PUBLIC    CODE     ---       SL_MTR_stop_motor
      01001B10H   PUBLIC    CODE     ---       SL_MTR_start_motor
      0100199BH   PUBLIC    CODE     ---       SL_MTR_motor
      01001964H   PUBLIC    CODE     ---       SL_MTR_init
      000000A2H   SFRSYM    DATA     BYTE      SPI0CKR
      00000080H   SFRSYM    DATA     BYTE      P0
      000000D0H.2 SFRSYM    DATA     BIT       PSW_OV
      00000090H   SFRSYM    DATA     BYTE      P1
      00000097H   SFRSYM    DATA     BYTE      WDTCN
      000000A0H   SFRSYM    DATA     BYTE      P2
      000000BCH   SFRSYM    DATA     BYTE      ADC0CF
      000000C8H   SFRSYM    DATA     BIT       TMR2CN0_T2XCLK
      000000C0H.7 SFRSYM    DATA     BIT       SMB0CN0_MASTER
      000000F9H   SFRSYM    DATA     WORD      PCA0
      000000E6H   SFRSYM    DATA     BYTE      EIE1
      000000C0H.1 SFRSYM    DATA     BIT       SMB0CN0_ACK
      0000008FH   SFRSYM    DATA     BYTE      PSCTL
      000000E4H   SFRSYM    DATA     BYTE      IT01CF
      000000C0H.6 SFRSYM    DATA     BIT       SMB0CN0_TXMODE
      000000ADH   SFRSYM    DATA     BYTE      DERIVID
      000000A4H   SFRSYM    DATA     BYTE      P0MDOUT
      000000A5H   SFRSYM    DATA     BYTE      P1MDOUT
      000000E8H.5 SFRSYM    DATA     BIT       ADC0CN0_ADINT
      000000CBH   SFRSYM    DATA     BYTE      TMR2RLH
      000000A6H   SFRSYM    DATA     BYTE      P2MDOUT
      000000A8H   SFRSYM    DATA     BYTE      IE
      00000093H   SFRSYM    DATA     BYTE      TMR3RLH
      000000F3H   SFRSYM    DATA     BYTE      EIP1
      00000098H.2 SFRSYM    DATA     BIT       SCON0_RB8
      000000CAH   SFRSYM    DATA     BYTE      TMR2RLL
LX51 LINKER/LOCATER V4.66.30.0                                                        01/29/2020  13:56:08  PAGE 65


      000000FCH   SFRSYM    DATA     BYTE      PCA0CPH0
      00000092H   SFRSYM    DATA     BYTE      TMR3RLL
      000000EAH   SFRSYM    DATA     BYTE      PCA0CPH1
      00000098H.3 SFRSYM    DATA     BIT       SCON0_TB8
      000000F0H   SFRSYM    DATA     BIT       B_B0
      00000082H   SFRSYM    DATA     WORD      DP
      000000ECH   SFRSYM    DATA     BYTE      PCA0CPH2
      000000A0H.1 SFRSYM    DATA     BIT       BTN0
      000000F0H.1 SFRSYM    DATA     BIT       B_B1
      000000C3H   SFRSYM    DATA     WORD      ADC0GT
      00000090H.1 SFRSYM    DATA     BIT       BTN1
      000000F0H.2 SFRSYM    DATA     BIT       B_B2
      000000FBH   SFRSYM    DATA     BYTE      PCA0CPL0
      000000F0H.3 SFRSYM    DATA     BIT       B_B3
      000000D9H   SFRSYM    DATA     BYTE      PCA0MD
      000000DAH   SFRSYM    DATA     BYTE      PCA0CPM0
      000000E9H   SFRSYM    DATA     BYTE      PCA0CPL1
      000000F0H.4 SFRSYM    DATA     BIT       B_B4
      000000DBH   SFRSYM    DATA     BYTE      PCA0CPM1
      000000EBH   SFRSYM    DATA     BYTE      PCA0CPL2
      000000F0H.5 SFRSYM    DATA     BIT       B_B5
      000000DCH   SFRSYM    DATA     BYTE      PCA0CPM2
      000000B8H   SFRSYM    DATA     BYTE      IP
      000000B9H   SFRSYM    DATA     BYTE      ADC0TK
      000000F0H.6 SFRSYM    DATA     BIT       B_B6
      000000C5H   SFRSYM    DATA     WORD      ADC0LT
      00000098H.5 SFRSYM    DATA     BIT       SCON0_MCE
      000000F0H.7 SFRSYM    DATA     BIT       B_B7
      000000E1H   SFRSYM    DATA     BYTE      XBR0
      000000C1H   SFRSYM    DATA     BYTE      SMB0CF
      000000E2H   SFRSYM    DATA     BYTE      XBR1
      000000C0H.5 SFRSYM    DATA     BIT       SMB0CN0_STA
      000000E3H   SFRSYM    DATA     BYTE      XBR2
      000000BBH   SFRSYM    DATA     BYTE      ADC0MX
      000000E0H   SFRSYM    DATA     BIT       ACC_ACC0
      000000D1H   SFRSYM    DATA     BYTE      REF0CN
      0000008EH   SFRSYM    DATA     BYTE      CKCON0
      000000E0H.1 SFRSYM    DATA     BIT       ACC_ACC1
      000000C9H   SFRSYM    DATA     BYTE      REG0CN
      000000DDH   SFRSYM    DATA     BYTE      CRC0IN
      000000C8H.2 SFRSYM    DATA     BIT       TMR2CN0_TR2
      000000E0H.2 SFRSYM    DATA     BIT       ACC_ACC2
      000000E0H.3 SFRSYM    DATA     BIT       ACC_ACC3
      00000081H   SFRSYM    DATA     BYTE      SP
      0000009DH   SFRSYM    DATA     BYTE      CMP0MD
      000000E0H.4 SFRSYM    DATA     BIT       ACC_ACC4
      000000B1H   SFRSYM    DATA     BYTE      LFO0CN
      000000ABH   SFRSYM    DATA     BYTE      CMP1MD
      000000D8H   SFRSYM    DATA     BIT       PCA0CN0_CCF0
      000000E0H.5 SFRSYM    DATA     BIT       ACC_ACC5
      000000D8H.1 SFRSYM    DATA     BIT       PCA0CN0_CCF1
      000000E0H.6 SFRSYM    DATA     BIT       ACC_ACC6
      000000CCH   SFRSYM    DATA     WORD      TMR2
      000000D8H.2 SFRSYM    DATA     BIT       PCA0CN0_CCF2
      000000E0H.7 SFRSYM    DATA     BIT       ACC_ACC7
      00000094H   SFRSYM    DATA     WORD      TMR3
      000000C0H.3 SFRSYM    DATA     BIT       SMB0CN0_ACKRQ
      000000FFH   SFRSYM    DATA     BYTE      VDM0CN
      000000F1H   SFRSYM    DATA     BYTE      P0MDIN
      00000098H.4 SFRSYM    DATA     BIT       SCON0_REN
      000000ACH   SFRSYM    DATA     BYTE      SMB0TC
      000000F2H   SFRSYM    DATA     BYTE      P1MDIN
LX51 LINKER/LOCATER V4.66.30.0                                                        01/29/2020  13:56:08  PAGE 66


      000000C0H.4 SFRSYM    DATA     BIT       SMB0CN0_STO
      000000FEH   SFRSYM    DATA     BYTE      P0MASK
      000000EEH   SFRSYM    DATA     BYTE      P1MASK
      000000D0H.3 SFRSYM    DATA     BIT       PSW_RS0
      000000D8H.7 SFRSYM    DATA     BIT       PCA0CN0_CF
      0000009EH   SFRSYM    DATA     BYTE      PCA0CENT
      000000F8H.4 SFRSYM    DATA     BIT       SPI0CN0_RXOVRN
      000000D0H.4 SFRSYM    DATA     BIT       PSW_RS1
      000000E8H.7 SFRSYM    DATA     BIT       ADC0CN0_ADEN
      00000089H   SFRSYM    DATA     BYTE      TMOD
      00000088H   SFRSYM    DATA     BYTE      TCON
      000000CFH   SFRSYM    DATA     BYTE      CRC0FLIP
      000000D0H   SFRSYM    DATA     BIT       PSW_PARITY
      000000A8H.4 SFRSYM    DATA     BIT       IE_ES0
      0000009FH   SFRSYM    DATA     BYTE      CMP0MX
      000000A8H.1 SFRSYM    DATA     BIT       IE_ET0
      000000AAH   SFRSYM    DATA     BYTE      CMP1MX
      000000A8H.3 SFRSYM    DATA     BIT       IE_ET1
      000000D4H   SFRSYM    DATA     BYTE      P0SKIP
      000000A8H.5 SFRSYM    DATA     BIT       IE_ET2
      000000D5H   SFRSYM    DATA     BYTE      P1SKIP
      000000E8H   SFRSYM    DATA     BYTE      ADC0CN0
      000000A8H   SFRSYM    DATA     BIT       IE_EX0
      000000B2H   SFRSYM    DATA     BYTE      ADC0CN1
      000000D8H.6 SFRSYM    DATA     BIT       PCA0CN0_CR
      000000A8H.2 SFRSYM    DATA     BIT       IE_EX1
      00000098H.7 SFRSYM    DATA     BIT       SCON0_SMODE
      000000B5H   SFRSYM    DATA     BYTE      DEVICEID
      000000A9H   SFRSYM    DATA     BYTE      CLKSEL
      000000F8H   SFRSYM    DATA     BIT       SPI0CN0_SPIEN
      000000F0H   SFRSYM    DATA     BYTE      B
      000000BEH   SFRSYM    DATA     BYTE      ADC0H
      000000D2H   SFRSYM    DATA     BYTE      CRC0AUTO
      000000E8H.6 SFRSYM    DATA     BIT       ADC0CN0_ADBMEN
      000000CAH   SFRSYM    DATA     WORD      TMR2RL
      000000BDH   SFRSYM    DATA     BYTE      ADC0L
      00000092H   SFRSYM    DATA     WORD      TMR3RL
      000000D8H   SFRSYM    DATA     BYTE      PCA0CN0
      000000E0H   SFRSYM    DATA     BYTE      ACC
      000000FBH   SFRSYM    DATA     WORD      PCA0CP0
      000000E9H   SFRSYM    DATA     WORD      PCA0CP1
      000000EBH   SFRSYM    DATA     WORD      PCA0CP2
      000000CEH   SFRSYM    DATA     BYTE      CRC0CN0
      00000090H.4 SFRSYM    DATA     BIT       BSP_LED0
      0000008CH   SFRSYM    DATA     BYTE      TH0
      000000B8H.4 SFRSYM    DATA     BIT       IP_PS0
      0000008DH   SFRSYM    DATA     BYTE      TH1
      000000FAH   SFRSYM    DATA     BYTE      PCA0H
      000000B8H.1 SFRSYM    DATA     BIT       IP_PT0
      000000B8H.3 SFRSYM    DATA     BIT       IP_PT1
      000000C0H.2 SFRSYM    DATA     BIT       SMB0CN0_ARBLOST
      000000B8H.5 SFRSYM    DATA     BIT       IP_PT2
      0000008AH   SFRSYM    DATA     BYTE      TL0
      000000F8H.1 SFRSYM    DATA     BIT       SPI0CN0_TXBMT
      000000D0H.5 SFRSYM    DATA     BIT       PSW_F0
      000000A8H.6 SFRSYM    DATA     BIT       IE_ESPI0
      0000008BH   SFRSYM    DATA     BYTE      TL1
      000000F9H   SFRSYM    DATA     BYTE      PCA0L
      000000C0H   SFRSYM    DATA     BIT       SMB0CN0_SI
      000000D0H.1 SFRSYM    DATA     BIT       PSW_F1
      00000080H   SFRSYM    DATA     BIT       P0_B0
      000000B8H   SFRSYM    DATA     BIT       IP_PX0
LX51 LINKER/LOCATER V4.66.30.0                                                        01/29/2020  13:56:08  PAGE 67


      00000090H   SFRSYM    DATA     BIT       P1_B0
      00000080H.1 SFRSYM    DATA     BIT       P0_B1
      000000B8H.2 SFRSYM    DATA     BIT       IP_PX1
      0000009BH   SFRSYM    DATA     BYTE      CMP0CN0
      00000088H.1 SFRSYM    DATA     BIT       TCON_IE0
      000000A0H   SFRSYM    DATA     BIT       P2_B0
      00000090H.1 SFRSYM    DATA     BIT       P1_B1
      00000080H.2 SFRSYM    DATA     BIT       P0_B2
      000000BFH   SFRSYM    DATA     BYTE      CMP1CN0
      00000088H.3 SFRSYM    DATA     BIT       TCON_IE1
      000000A0H.1 SFRSYM    DATA     BIT       P2_B1
      00000090H.2 SFRSYM    DATA     BIT       P1_B2
      00000080H.3 SFRSYM    DATA     BIT       P0_B3
      000000C0H   SFRSYM    DATA     BYTE      SMB0CN0
      00000090H.3 SFRSYM    DATA     BIT       P1_B3
      00000080H.4 SFRSYM    DATA     BIT       P0_B4
      00000090H.4 SFRSYM    DATA     BIT       P1_B4
      00000080H.5 SFRSYM    DATA     BIT       P0_B5
      00000090H.5 SFRSYM    DATA     BIT       P1_B5
      00000080H.6 SFRSYM    DATA     BIT       P0_B6
      00000090H.6 SFRSYM    DATA     BIT       P1_B6
      00000080H.7 SFRSYM    DATA     BIT       P0_B7
      00000090H.7 SFRSYM    DATA     BIT       P1_B7
      00000080H.2 SFRSYM    DATA     BIT       BSP_BTN0
      00000083H   SFRSYM    DATA     BYTE      DPH
      000000C4H   SFRSYM    DATA     BYTE      ADC0GTH
      000000C8H.7 SFRSYM    DATA     BIT       TMR2CN0_TF2H
      000000C8H.3 SFRSYM    DATA     BIT       TMR2CN0_T2SPLIT
      000000D0H.6 SFRSYM    DATA     BIT       PSW_AC
      000000F8H   SFRSYM    DATA     BYTE      SPI0CN0
      000000C7H   SFRSYM    DATA     BYTE      HFO0CAL
      00000088H.5 SFRSYM    DATA     BIT       TCON_TF0
      00000098H   SFRSYM    DATA     BIT       SCON0_RI
      00000082H   SFRSYM    DATA     BYTE      DPL
      00000088H.7 SFRSYM    DATA     BIT       TCON_TF1
      00000099H   SFRSYM    DATA     BYTE      SBUF0
      00000087H   SFRSYM    DATA     BYTE      PCON0
      000000C3H   SFRSYM    DATA     BYTE      ADC0GTL
      000000C8H.6 SFRSYM    DATA     BIT       TMR2CN0_TF2L
      00000098H.1 SFRSYM    DATA     BIT       SCON0_TI
      000000E8H   SFRSYM    DATA     BIT       ADC0CN0_ADCM0
      000000C6H   SFRSYM    DATA     BYTE      ADC0LTH
      00000088H   SFRSYM    DATA     BIT       TCON_IT0
      000000E8H.1 SFRSYM    DATA     BIT       ADC0CN0_ADCM1
      000000EFH   SFRSYM    DATA     BYTE      RSTSRC
      000000FDH   SFRSYM    DATA     BYTE      P0MAT
      000000DEH   SFRSYM    DATA     BYTE      CRC0DAT
      00000088H.2 SFRSYM    DATA     BIT       TCON_IT1
      000000E8H.2 SFRSYM    DATA     BIT       ADC0CN0_ADCM2
      00000098H   SFRSYM    DATA     BYTE      SCON0
      000000F6H   SFRSYM    DATA     BYTE      PRTDRV
      000000EDH   SFRSYM    DATA     BYTE      P1MAT
      000000E8H.3 SFRSYM    DATA     BIT       ADC0CN0_ADWINT
      000000E8H.4 SFRSYM    DATA     BIT       ADC0CN0_ADBUSY
      000000D6H   SFRSYM    DATA     BYTE      SMB0ADM
      000000C5H   SFRSYM    DATA     BYTE      ADC0LTL
      000000F8H.5 SFRSYM    DATA     BIT       SPI0CN0_MODF
      000000B8H.6 SFRSYM    DATA     BIT       IP_PSPI0
      0000009CH   SFRSYM    DATA     BYTE      PCA0CLR
      000000C8H   SFRSYM    DATA     BYTE      TMR2CN0
      00000091H   SFRSYM    DATA     BYTE      TMR3CN0
      000000D7H   SFRSYM    DATA     BYTE      SMB0ADR
LX51 LINKER/LOCATER V4.66.30.0                                                        01/29/2020  13:56:08  PAGE 68


      00000088H.4 SFRSYM    DATA     BIT       TCON_TR0
      000000C8H.4 SFRSYM    DATA     BIT       TMR2CN0_TF2CEN
      00000088H.6 SFRSYM    DATA     BIT       TCON_TR1
      000000C2H   SFRSYM    DATA     BYTE      SMB0DAT
      000000CDH   SFRSYM    DATA     BYTE      TMR2H
      000000A1H   SFRSYM    DATA     BYTE      SPI0CFG
      00000095H   SFRSYM    DATA     BYTE      TMR3H
      000000D3H   SFRSYM    DATA     BYTE      CRC0CNT
      00000096H   SFRSYM    DATA     BYTE      PCA0POL
      000000CCH   SFRSYM    DATA     BYTE      TMR2L
      000000F8H.7 SFRSYM    DATA     BIT       SPI0CN0_SPIF
      00000094H   SFRSYM    DATA     BYTE      TMR3L
      000000DFH   SFRSYM    DATA     BYTE      ADC0PWR
      000000A8H.7 SFRSYM    DATA     BIT       IE_EA
      000000C8H.5 SFRSYM    DATA     BIT       TMR2CN0_TF2LEN
      000000F8H.6 SFRSYM    DATA     BIT       SPI0CN0_WCOL
      000000F8H.2 SFRSYM    DATA     BIT       SPI0CN0_NSSMD0
      000000D0H.7 SFRSYM    DATA     BIT       PSW_CY
      000000A3H   SFRSYM    DATA     BYTE      SPI0DAT
      000000F8H.3 SFRSYM    DATA     BIT       SPI0CN0_NSSMD1
      000000BDH   SFRSYM    DATA     WORD      ADC0
      000000D0H   SFRSYM    DATA     BYTE      PSW
      000000F7H   SFRSYM    DATA     BYTE      PCA0PWM
      000000B6H   SFRSYM    DATA     BYTE      REVID
      000000B7H   SFRSYM    DATA     BYTE      FLKEY
      000000B3H   SFRSYM    DATA     BYTE      ADC0AC
      00000020H.0 SYMBOL    BIT      BIT       motor_spinning
      02000035H   SYMBOL    XDATA    DWORD     accum_motor_current
      02000039H   SYMBOL    XDATA    WORD      opamp_offset
      00000020H.1 SYMBOL    BIT      BIT       rising_bemf
      0200003BH   SYMBOL    XDATA    BYTE      stall_check_count
      0200003CH   SYMBOL    XDATA    BYTE      accum_motor_current_count
      01000C18H   SYMBOL    CODE     ---       MTR_process_errors
      00000020H.7 SYMBOL    BIT      BIT       motor_direction
      01000AC5H   SYMBOL    CODE     ---       MTR_process_adc
      0200004FH   SYMBOL    XDATA    BYTE      average_motor_current_adc
      02000050H   SYMBOL    XDATA    WORD      prev_I
      02000054H   SYMBOL    XDATA    WORD      prev_rpm

      01001964H   BLOCK     CODE     ---       LVL=0
      01001964H   LINE      CODE     ---       #273
      01001964H   LINE      CODE     ---       #274
      01001964H   LINE      CODE     ---       #275
      01001967H   LINE      CODE     ---       #276
      0100196AH   LINE      CODE     ---       #277
      0100196DH   LINE      CODE     ---       #278
      01001970H   LINE      CODE     ---       #279
      01001973H   LINE      CODE     ---       #280
      01001975H   LINE      CODE     ---       #282
      01001978H   LINE      CODE     ---       #283
      0100197AH   LINE      CODE     ---       #284
      0100197CH   LINE      CODE     ---       #285
      01001982H   LINE      CODE     ---       #286
      01001984H   LINE      CODE     ---       #291
      0100198AH   LINE      CODE     ---       #292
      0100198CH   LINE      CODE     ---       #293
      01001990H   LINE      CODE     ---       #294
      01001994H   LINE      CODE     ---       #295
      0100199AH   LINE      CODE     ---       #305
      ---         BLOCKEND  ---      ---       LVL=0

      0100199BH   BLOCK     CODE     ---       LVL=0
LX51 LINKER/LOCATER V4.66.30.0                                                        01/29/2020  13:56:08  PAGE 69


      0100199BH   LINE      CODE     ---       #319
      0100199BH   LINE      CODE     ---       #320
      0100199BH   LINE      CODE     ---       #321
      0100199EH   LINE      CODE     ---       #322
      010019A1H   LINE      CODE     ---       #323
      010019A7H   LINE      CODE     ---       #324
      010019A7H   LINE      CODE     ---       #326
      010019ADH   LINE      CODE     ---       #327
      010019B7H   LINE      CODE     ---       #328
      010019BCH   LINE      CODE     ---       #329
      010019C2H   LINE      CODE     ---       #330
      010019C4H   LINE      CODE     ---       #331
      010019C8H   LINE      CODE     ---       #332
      010019C8H   LINE      CODE     ---       #333
      010019CBH   LINE      CODE     ---       #336
      010019CEH   LINE      CODE     ---       #339
      010019CEH   LINE      CODE     ---       #342
      010019D1H   LINE      CODE     ---       #347
      ---         BLOCKEND  ---      ---       LVL=0

      01001B10H   BLOCK     CODE     ---       LVL=0
      01001B10H   LINE      CODE     ---       #363
      01001B10H   LINE      CODE     ---       #364
      01001B10H   LINE      CODE     ---       #365
      01001B18H   LINE      CODE     ---       #366
      01001B18H   LINE      CODE     ---       #368
      01001B18H   LINE      CODE     ---       #370
      01001B1CH   LINE      CODE     ---       #371
      01001B1FH   LINE      CODE     ---       #372
      01001B22H   LINE      CODE     ---       #373
      01001B22H   LINE      CODE     ---       #374
      01001B25H   LINE      CODE     ---       #375
      01001B25H   LINE      CODE     ---       #376
      01001B28H   LINE      CODE     ---       #380
      01001B2EH   LINE      CODE     ---       #381
      01001B30H   LINE      CODE     ---       #382
      01001B32H   LINE      CODE     ---       #385
      01001B36H   LINE      CODE     ---       #386
      ---         BLOCKEND  ---      ---       LVL=0

      010017F9H   BLOCK     CODE     ---       LVL=0
      010017F9H   BLOCK     CODE     NEAR LAB  LVL=1
      00000021H.4 SYMBOL    BIT      BIT       saved_ea
      ---         BLOCKEND  ---      ---       LVL=1
      010017F9H   LINE      CODE     ---       #406
      010017F9H   LINE      CODE     ---       #407
      010017F9H   LINE      CODE     ---       #411
      010017FBH   LINE      CODE     ---       #413
      010017FEH   LINE      CODE     ---       #414
      01001805H   LINE      CODE     ---       #415
      01001805H   LINE      CODE     ---       #417
      01001805H   LINE      CODE     ---       #421
      0100180BH   LINE      CODE     ---       #422
      01001813H   LINE      CODE     ---       #423
      01001816H   LINE      CODE     ---       #424
      0100181AH   LINE      CODE     ---       #426
      0100181DH   LINE      CODE     ---       #429
      01001820H   LINE      CODE     ---       #431
      01001824H   LINE      CODE     ---       #432
      0100182AH   LINE      CODE     ---       #433
      0100182CH   LINE      CODE     ---       #434
      01001832H   LINE      CODE     ---       #435
LX51 LINKER/LOCATER V4.66.30.0                                                        01/29/2020  13:56:08  PAGE 70


      01001839H   LINE      CODE     ---       #436
      ---         BLOCKEND  ---      ---       LVL=0

      01001574H   BLOCK     CODE     ---       LVL=0
      01001574H   BLOCK     CODE     NEAR LAB  LVL=1
      0000005EH   SYMBOL    DATA     BYTE      t1
      00000007H   SYMBOL    DATA     BYTE      t2
      00000006H   SYMBOL    DATA     BYTE      gap
      00000021H.4 SYMBOL    BIT      BIT       rising_zc_done
      00000021H.5 SYMBOL    BIT      BIT       cptout
      010015AFH   SYMBOL    CODE     VOID      check_direction
      010015CFH   SYMBOL    CODE     VOID      exit_check_spinning
      ---         BLOCKEND  ---      ---       LVL=1
      01001574H   LINE      CODE     ---       #449
      01001574H   LINE      CODE     ---       #450
      01001574H   LINE      CODE     ---       #456
      01001577H   LINE      CODE     ---       #458
      0100157AH   LINE      CODE     ---       #461
      0100157DH   LINE      CODE     ---       #462
      01001582H   LINE      CODE     ---       #463
      01001582H   LINE      CODE     ---       #464
      01001584H   LINE      CODE     ---       #465
      01001586H   LINE      CODE     ---       #467
      01001586H   LINE      CODE     ---       #468
      01001589H   LINE      CODE     ---       #469
      0100158EH   LINE      CODE     ---       #471
      01001596H   LINE      CODE     ---       #472
      01001596H   LINE      CODE     ---       #473
      01001598H   LINE      CODE     ---       #474
      0100159AH   LINE      CODE     ---       #475
      0100159DH   LINE      CODE     ---       #476
      0100159FH   LINE      CODE     ---       #478
      010015A7H   LINE      CODE     ---       #479
      010015A7H   LINE      CODE     ---       #480
      010015A7H   LINE      CODE     ---       #481
      010015A7H   LINE      CODE     ---       #482
      010015ADH   LINE      CODE     ---       #484
      010015AFH   LINE      CODE     ---       #486
      010015AFH   LINE      CODE     ---       #489
      010015B2H   LINE      CODE     ---       #492
      010015B5H   LINE      CODE     ---       #493
      010015B8H   LINE      CODE     ---       #494
      010015C1H   LINE      CODE     ---       #495
      010015C9H   LINE      CODE     ---       #496
      010015C9H   LINE      CODE     ---       #497
      010015CBH   LINE      CODE     ---       #498
      010015CDH   LINE      CODE     ---       #500
      010015CDH   LINE      CODE     ---       #501
      010015CFH   LINE      CODE     ---       #502
      010015CFH   LINE      CODE     ---       #503
      010015CFH   LINE      CODE     ---       #504
      010015D2H   LINE      CODE     ---       #505
      010015D5H   LINE      CODE     ---       #506
      ---         BLOCKEND  ---      ---       LVL=0

      010016E4H   BLOCK     CODE     ---       LVL=0
      010016E4H   LINE      CODE     ---       #521
      010016E4H   LINE      CODE     ---       #522
      010016E4H   LINE      CODE     ---       #523
      010016EEH   LINE      CODE     ---       #525
      01001715H   LINE      CODE     ---       #529
      01001718H   LINE      CODE     ---       #530
LX51 LINKER/LOCATER V4.66.30.0                                                        01/29/2020  13:56:08  PAGE 71


      01001718H   LINE      CODE     ---       #534
      0100171EH   LINE      CODE     ---       #535
      0100171FH   LINE      CODE     ---       #537
      0100171FH   LINE      CODE     ---       #538
      0100172BH   LINE      CODE     ---       #539
      0100172BH   LINE      CODE     ---       #540
      ---         BLOCKEND  ---      ---       LVL=0

      01001773H   BLOCK     CODE     VOID      LVL=0
      ---         BLOCKEND  ---      ---       LVL=0

      0100177CH   BLOCK     CODE     ---       LVL=0
      0100177CH   LINE      CODE     ---       #577
      0100177CH   LINE      CODE     ---       #578
      0100177CH   LINE      CODE     ---       #582
      01001789H   LINE      CODE     ---       #584
      0100178EH   LINE      CODE     ---       #585
      01001794H   LINE      CODE     ---       #586
      01001798H   LINE      CODE     ---       #588
      0100179BH   LINE      CODE     ---       #590
      0100179EH   LINE      CODE     ---       #591
      0100179EH   LINE      CODE     ---       #592
      010017A0H   LINE      CODE     ---       #593
      010017A7H   LINE      CODE     ---       #594
      010017AAH   LINE      CODE     ---       #595
      010017ABH   LINE      CODE     ---       #598
      010017ABH   LINE      CODE     ---       #599
      010017ADH   LINE      CODE     ---       #600
      010017B4H   LINE      CODE     ---       #601
      010017B7H   LINE      CODE     ---       #602
      010017B7H   LINE      CODE     ---       #603
      ---         BLOCKEND  ---      ---       LVL=0

      010004D2H   BLOCK     CODE     ---       LVL=0
      010004D2H   BLOCK     CODE     NEAR LAB  LVL=1
      0000005EH   SYMBOL    DATA     BYTE      idx
      0000005FH   SYMBOL    DATA     BYTE      tmp
      00000021H.4 SYMBOL    BIT      BIT       saved_ea
      02000071H   SYMBOL    XDATA    DWORD     SIG_k_1
      02000075H   SYMBOL    XDATA    DWORD     SIG_k
      00000060H   SYMBOL    DATA     WORD      T_k
      ---         BLOCKEND  ---      ---       LVL=1
      010004D2H   LINE      CODE     ---       #622
      010004D2H   LINE      CODE     ---       #623
      010004D2H   LINE      CODE     ---       #631
      010004D5H   LINE      CODE     ---       #633
      010004DEH   LINE      CODE     ---       #634
      010004E6H   LINE      CODE     ---       #636
      010004E8H   LINE      CODE     ---       #638
      010004F2H   LINE      CODE     ---       #642
      010004F5H   LINE      CODE     ---       #645
      010004FAH   LINE      CODE     ---       #648
      01000500H   LINE      CODE     ---       #649
      01000507H   LINE      CODE     ---       #652
      0100050AH   LINE      CODE     ---       #655
      0100050DH   LINE      CODE     ---       #656
      0100050FH   LINE      CODE     ---       #659
      0100050FH   LINE      CODE     ---       #660
      0100050FH   LINE      CODE     ---       #661
      01000512H   LINE      CODE     ---       #662
      01000516H   LINE      CODE     ---       #663
      01000519H   LINE      CODE     ---       #664
LX51 LINKER/LOCATER V4.66.30.0                                                        01/29/2020  13:56:08  PAGE 72


      01000522H   LINE      CODE     ---       #665
      01000522H   LINE      CODE     ---       #666
      01000527H   LINE      CODE     ---       #667
      01000529H   LINE      CODE     ---       #670
      0100052CH   LINE      CODE     ---       #671
      0100052EH   LINE      CODE     ---       #673
      0100052EH   LINE      CODE     ---       #675
      0100052EH   LINE      CODE     ---       #676
      0100052EH   LINE      CODE     ---       #677
      01000531H   LINE      CODE     ---       #678
      01000535H   LINE      CODE     ---       #680
      0100053CH   LINE      CODE     ---       #681
      0100053CH   LINE      CODE     ---       #682
      01000555H   LINE      CODE     ---       #683
      01000557H   LINE      CODE     ---       #685
      01000557H   LINE      CODE     ---       #689
      01000584H   LINE      CODE     ---       #690
      01000584H   LINE      CODE     ---       #691
      01000598H   LINE      CODE     ---       #692
      010005BDH   LINE      CODE     ---       #694
      010005C9H   LINE      CODE     ---       #695
      010005CFH   LINE      CODE     ---       #696
      010005D2H   LINE      CODE     ---       #698
      010005D5H   LINE      CODE     ---       #700
      010005D8H   LINE      CODE     ---       #701
      010005DBH   LINE      CODE     ---       #702
      010005E2H   LINE      CODE     ---       #703
      010005E2H   LINE      CODE     ---       #704
      010005E7H   LINE      CODE     ---       #705
      010005E7H   LINE      CODE     ---       #706
      010005EAH   LINE      CODE     ---       #707
      010005ECH   LINE      CODE     ---       #708
      010005ECH   LINE      CODE     ---       #709
      010005F1H   LINE      CODE     ---       #710
      010005F1H   LINE      CODE     ---       #711
      010005F4H   LINE      CODE     ---       #712
      010005FAH   LINE      CODE     ---       #713
      010005FDH   LINE      CODE     ---       #714
      01000600H   LINE      CODE     ---       #715
      01000604H   LINE      CODE     ---       #716
      01000604H   LINE      CODE     ---       #717
      01000606H   LINE      CODE     ---       #719
      01000609H   LINE      CODE     ---       #720
      01000617H   LINE      CODE     ---       #721
      01000617H   LINE      CODE     ---       #722
      01000617H   LINE      CODE     ---       #723
      01000617H   LINE      CODE     ---       #726
      01000628H   LINE      CODE     ---       #727
      01000633H   LINE      CODE     ---       #728
      01000645H   LINE      CODE     ---       #729
      01000645H   LINE      CODE     ---       #730
      0100064BH   LINE      CODE     ---       #731
      0100064BH   LINE      CODE     ---       #732
      01000651H   LINE      CODE     ---       #735
      01000654H   LINE      CODE     ---       #736
      01000657H   LINE      CODE     ---       #739
      0100065FH   LINE      CODE     ---       #740
      01000662H   LINE      CODE     ---       #741
      ---         BLOCKEND  ---      ---       LVL=0

      01000663H   BLOCK     CODE     ---       LVL=0
      01000663H   BLOCK     CODE     NEAR LAB  LVL=1
LX51 LINKER/LOCATER V4.66.30.0                                                        01/29/2020  13:56:08  PAGE 73


      00000021H.4 SYMBOL    BIT      BIT       saved_ea
      00000021H.5 SYMBOL    BIT      BIT       is_1st_crossing
      0000005EH   SYMBOL    DATA     ---       ticks
      ---         BLOCKEND  ---      ---       LVL=1
      01000663H   LINE      CODE     ---       #755
      01000663H   LINE      CODE     ---       #756
      01000663H   LINE      CODE     ---       #764
      01000666H   LINE      CODE     ---       #768
      01000669H   LINE      CODE     ---       #770
      0100066EH   LINE      CODE     ---       #772
      01000671H   LINE      CODE     ---       #775
      01000676H   LINE      CODE     ---       #776
      0100067AH   LINE      CODE     ---       #778
      0100067DH   LINE      CODE     ---       #782
      01000681H   LINE      CODE     ---       #783
      01000683H   LINE      CODE     ---       #784
      01000688H   LINE      CODE     ---       #785
      01000688H   LINE      CODE     ---       #786
      0100068EH   LINE      CODE     ---       #787
      0100068EH   LINE      CODE     ---       #789
      01000691H   LINE      CODE     ---       #790
      01000691H   LINE      CODE     ---       #792
      01000697H   LINE      CODE     ---       #793
      0100069AH   LINE      CODE     ---       #794
      0100069AH   LINE      CODE     ---       #795
      0100069AH   LINE      CODE     ---       #796
      0100069AH   LINE      CODE     ---       #797
      0100069CH   LINE      CODE     ---       #799
      0100069CH   LINE      CODE     ---       #801
      010006A2H   LINE      CODE     ---       #802
      010006A5H   LINE      CODE     ---       #803
      010006ABH   LINE      CODE     ---       #805
      010006B0H   LINE      CODE     ---       #806
      010006B3H   LINE      CODE     ---       #807
      010006B7H   LINE      CODE     ---       #808
      010006B7H   LINE      CODE     ---       #812
      010006BCH   LINE      CODE     ---       #813
      010006BCH   LINE      CODE     ---       #815
      010006BFH   LINE      CODE     ---       #816
      010006BFH   LINE      CODE     ---       #817
      010006C2H   LINE      CODE     ---       #818
      010006C5H   LINE      CODE     ---       #819
      010006C7H   LINE      CODE     ---       #822
      010006C7H   LINE      CODE     ---       #823
      010006CAH   LINE      CODE     ---       #824
      010006CDH   LINE      CODE     ---       #825
      010006CDH   LINE      CODE     ---       #826
      010006CFH   LINE      CODE     ---       #827
      010006D1H   LINE      CODE     ---       #829
      010006D6H   LINE      CODE     ---       #830
      010006D6H   LINE      CODE     ---       #832
      010006D9H   LINE      CODE     ---       #833
      010006D9H   LINE      CODE     ---       #834
      010006DCH   LINE      CODE     ---       #835
      010006DFH   LINE      CODE     ---       #836
      010006E1H   LINE      CODE     ---       #839
      010006E1H   LINE      CODE     ---       #840
      010006E4H   LINE      CODE     ---       #841
      010006E7H   LINE      CODE     ---       #842
      010006E7H   LINE      CODE     ---       #843
      010006E9H   LINE      CODE     ---       #844
      010006E9H   LINE      CODE     ---       #846
LX51 LINKER/LOCATER V4.66.30.0                                                        01/29/2020  13:56:08  PAGE 74


      010006ECH   LINE      CODE     ---       #848
      010006EFH   LINE      CODE     ---       #849
      010006EFH   LINE      CODE     ---       #850
      010006F1H   LINE      CODE     ---       #851
      010006F3H   LINE      CODE     ---       #853
      010006F3H   LINE      CODE     ---       #854
      010006F3H   LINE      CODE     ---       #855
      010006F3H   LINE      CODE     ---       #856
      010006F3H   LINE      CODE     ---       #857
      010006F3H   LINE      CODE     ---       #859
      010006F8H   LINE      CODE     ---       #860
      010006F8H   LINE      CODE     ---       #861
      010006FBH   LINE      CODE     ---       #863
      010006FBH   LINE      CODE     ---       #864
      010006FDH   LINE      CODE     ---       #873
      01000710H   LINE      CODE     ---       #878
      01000713H   LINE      CODE     ---       #879
      0100072CH   LINE      CODE     ---       #881
      01000732H   LINE      CODE     ---       #883
      01000735H   LINE      CODE     ---       #884
      0100075BH   LINE      CODE     ---       #885
      0100075EH   LINE      CODE     ---       #886
      01000768H   LINE      CODE     ---       #888
      0100076AH   LINE      CODE     ---       #889
      0100076DH   LINE      CODE     ---       #890
      01000770H   LINE      CODE     ---       #892
      01000772H   LINE      CODE     ---       #893
      01000774H   LINE      CODE     ---       #894
      01000778H   LINE      CODE     ---       #898
      0100077BH   LINE      CODE     ---       #899
      0100077EH   LINE      CODE     ---       #900
      0100078DH   LINE      CODE     ---       #901
      0100078FH   LINE      CODE     ---       #904
      01000792H   LINE      CODE     ---       #905
      01000795H   LINE      CODE     ---       #907
      01000798H   LINE      CODE     ---       #909
      0100079AH   LINE      CODE     ---       #912
      0100079DH   LINE      CODE     ---       #918
      010007C7H   LINE      CODE     ---       #919
      010007C9H   LINE      CODE     ---       #920
      010007CBH   LINE      CODE     ---       #921
      010007D4H   LINE      CODE     ---       #922
      010007DEH   LINE      CODE     ---       #924
      010007E0H   LINE      CODE     ---       #925
      010007E7H   LINE      CODE     ---       #928
      010007EAH   LINE      CODE     ---       #930
      ---         BLOCKEND  ---      ---       LVL=0

      0100172CH   BLOCK     CODE     ---       LVL=0
      0100172CH   BLOCK     CODE     NEAR LAB  LVL=1
      02000071H   SYMBOL    XDATA    DWORD     t0
      00000021H.4 SYMBOL    BIT      BIT       saved_ea
      ---         BLOCKEND  ---      ---       LVL=1
      0100172CH   LINE      CODE     ---       #944
      0100172CH   LINE      CODE     ---       #945
      0100172CH   LINE      CODE     ---       #952
      0100172FH   LINE      CODE     ---       #953
      0100172FH   LINE      CODE     ---       #954
      01001731H   LINE      CODE     ---       #955
      01001737H   LINE      CODE     ---       #956
      0100174BH   LINE      CODE     ---       #957
      0100174FH   LINE      CODE     ---       #958
LX51 LINKER/LOCATER V4.66.30.0                                                        01/29/2020  13:56:08  PAGE 75


      01001770H   LINE      CODE     ---       #960
      01001772H   LINE      CODE     ---       #961
      01001772H   LINE      CODE     ---       #962
      ---         BLOCKEND  ---      ---       LVL=0

      010018F5H   BLOCK     CODE     ---       LVL=0
      010018F5H   BLOCK     CODE     NEAR LAB  LVL=1
      00000023H   SYMBOL    DATA     BYTE      ovf
      ---         BLOCKEND  ---      ---       LVL=1
      010018F5H   LINE      CODE     ---       #975
      010018F5H   LINE      CODE     ---       #976
      010018F5H   LINE      CODE     ---       #979
      01001905H   LINE      CODE     ---       #980
      01001907H   LINE      CODE     ---       #981
      0100190AH   LINE      CODE     ---       #982
      0100190DH   LINE      CODE     ---       #983
      01001913H   LINE      CODE     ---       #984
      01001919H   LINE      CODE     ---       #985
      0100191BH   LINE      CODE     ---       #987
      01001924H   LINE      CODE     ---       #988
      01001924H   LINE      CODE     ---       #989
      0100192CH   LINE      CODE     ---       #990
      0100192CH   LINE      CODE     ---       #991
      ---         BLOCKEND  ---      ---       LVL=0

      01001D33H   BLOCK     CODE     ---       LVL=0
      01001D33H   LINE      CODE     ---       #1006
      01001D33H   LINE      CODE     ---       #1007
      01001D33H   LINE      CODE     ---       #1017
      01001D3AH   LINE      CODE     ---       #1093
      ---         BLOCKEND  ---      ---       LVL=0

      01001CF1H   BLOCK     CODE     ---       LVL=0
      01001CF1H   BLOCK     CODE     NEAR LAB  LVL=1
      00000021H.6 SYMBOL    BIT      BIT       saved_ea
      00000006H   SYMBOL    DATA     WORD      xtime
      ---         BLOCKEND  ---      ---       LVL=1
      01001CF1H   LINE      CODE     ---       #1111
      01001CF1H   LINE      CODE     ---       #1112
      01001CF1H   LINE      CODE     ---       #1116
      01001CF7H   LINE      CODE     ---       #1117
      01001CFBH   LINE      CODE     ---       #1118
      01001CFFH   LINE      CODE     ---       #1120
      01001CFFH   LINE      CODE     ---       #1121
      ---         BLOCKEND  ---      ---       LVL=0

      01001C70H   BLOCK     CODE     ---       LVL=0
      00000007H   SYMBOL    DATA     BYTE      poles
      01001C70H   LINE      CODE     ---       #1134
      01001C70H   LINE      CODE     ---       #1135
      01001C70H   LINE      CODE     ---       #1136
      01001C75H   LINE      CODE     ---       #1138
      01001C83H   LINE      CODE     ---       #1139
      ---         BLOCKEND  ---      ---       LVL=0

      01000AC5H   BLOCK     CODE     ---       LVL=0
      01000AC5H   BLOCK     CODE     NEAR LAB  LVL=1
      02000030H   SYMBOL    XDATA    WORD      prev_opamp_offset
      02000071H   SYMBOL    XDATA    ---       tmp
      ---         BLOCKEND  ---      ---       LVL=1
      01000AC5H   LINE      CODE     ---       #1150
      01000AC5H   LINE      CODE     ---       #1151
LX51 LINKER/LOCATER V4.66.30.0                                                        01/29/2020  13:56:08  PAGE 76


      01000AC5H   LINE      CODE     ---       #1155
      01000ACDH   LINE      CODE     ---       #1156
      01000ACDH   LINE      CODE     ---       #1158
      01000ADDH   LINE      CODE     ---       #1161
      01000AE2H   LINE      CODE     ---       #1162
      01000AE2H   LINE      CODE     ---       #1163
      01000AEAH   LINE      CODE     ---       #1164
      01000B1EH   LINE      CODE     ---       #1166
      01000B26H   LINE      CODE     ---       #1167
      01000B29H   LINE      CODE     ---       #1169
      01000B29H   LINE      CODE     ---       #1170
      01000B3FH   LINE      CODE     ---       #1171
      01000B3FH   LINE      CODE     ---       #1172
      01000B46H   LINE      CODE     ---       #1173
      01000B48H   LINE      CODE     ---       #1175
      01000B48H   LINE      CODE     ---       #1176
      01000B55H   LINE      CODE     ---       #1177
      01000B55H   LINE      CODE     ---       #1179
      01000B80H   LINE      CODE     ---       #1180
      01000B88H   LINE      CODE     ---       #1181
      01000B88H   LINE      CODE     ---       #1182
      01000BA3H   LINE      CODE     ---       #1183
      01000BB7H   LINE      CODE     ---       #1184
      01000BC1H   LINE      CODE     ---       #1185
      01000BC7H   LINE      CODE     ---       #1191
      01000BE7H   LINE      CODE     ---       #1192
      01000BE7H   LINE      CODE     ---       #1193
      01000BE7H   LINE      CODE     ---       #1194
      01000BE7H   LINE      CODE     ---       #1197
      01000BECH   LINE      CODE     ---       #1198
      01000BECH   LINE      CODE     ---       #1200
      01000BFBH   LINE      CODE     ---       #1203
      01000C17H   LINE      CODE     ---       #1206
      01000C17H   LINE      CODE     ---       #1208
      ---         BLOCKEND  ---      ---       LVL=0

      01000C18H   BLOCK     CODE     ---       LVL=0
      01000C18H   BLOCK     CODE     NEAR LAB  LVL=1
      00000024H   SYMBOL    DATA     BYTE      oc_count
      00000006H   SYMBOL    DATA     WORD      gap
      0000005EH   SYMBOL    DATA     WORD      delta_I
      00000060H   SYMBOL    DATA     WORD      rpm_changes
      00000006H   SYMBOL    DATA     WORD      i_changes
      ---         BLOCKEND  ---      ---       LVL=1
      01000C18H   LINE      CODE     ---       #1219
      01000C18H   LINE      CODE     ---       #1220
      01000C18H   LINE      CODE     ---       #1226
      01000C1EH   LINE      CODE     ---       #1227
      01000C1EH   LINE      CODE     ---       #1228
      01000C20H   LINE      CODE     ---       #1229
      01000C2BH   LINE      CODE     ---       #1232
      01000C2BH   LINE      CODE     ---       #1234
      01000C2EH   LINE      CODE     ---       #1235
      01000C2EH   LINE      CODE     ---       #1236
      01000C40H   LINE      CODE     ---       #1237
      01000C4CH   LINE      CODE     ---       #1238
      01000C4CH   LINE      CODE     ---       #1239
      01000C4EH   LINE      CODE     ---       #1240
      01000C50H   LINE      CODE     ---       #1242
      01000C51H   LINE      CODE     ---       #1244
      01000C51H   LINE      CODE     ---       #1246
      01000C59H   LINE      CODE     ---       #1247
LX51 LINKER/LOCATER V4.66.30.0                                                        01/29/2020  13:56:08  PAGE 77


      01000C59H   LINE      CODE     ---       #1249
      01000C67H   LINE      CODE     ---       #1250
      01000C67H   LINE      CODE     ---       #1251
      01000C75H   LINE      CODE     ---       #1253
      01000C75H   LINE      CODE     ---       #1254
      01000C77H   LINE      CODE     ---       #1255
      01000C7CH   LINE      CODE     ---       #1256
      01000C7CH   LINE      CODE     ---       #1257
      01000C7EH   LINE      CODE     ---       #1258
      01000C7EH   LINE      CODE     ---       #1259
      01000C80H   LINE      CODE     ---       #1261
      01000C80H   LINE      CODE     ---       #1262
      01000C83H   LINE      CODE     ---       #1263
      01000C83H   LINE      CODE     ---       #1264
      01000C83H   LINE      CODE     ---       #1268
      01000C8EH   LINE      CODE     ---       #1269
      01000C8EH   LINE      CODE     ---       #1273
      01000CB6H   LINE      CODE     ---       #1274
      01000CB6H   LINE      CODE     ---       #1275
      01000CBFH   LINE      CODE     ---       #1279
      01000CD7H   LINE      CODE     ---       #1280
      01000CF2H   LINE      CODE     ---       #1282
      01000D05H   LINE      CODE     ---       #1283
      01000D2BH   LINE      CODE     ---       #1285
      01000D34H   LINE      CODE     ---       #1286
      01000D34H   LINE      CODE     ---       #1287
      01000D36H   LINE      CODE     ---       #1288
      01000D36H   LINE      CODE     ---       #1289
      01000D36H   LINE      CODE     ---       #1290
      01000D3CH   LINE      CODE     ---       #1291
      01000D4BH   LINE      CODE     ---       #1292
      01000D5AH   LINE      CODE     ---       #1293
      01000D5AH   LINE      CODE     ---       #1295
      01000D5AH   LINE      CODE     ---       #1297
      01000D5DH   LINE      CODE     ---       #1298
      01000D5DH   LINE      CODE     ---       #1299
      01000D60H   LINE      CODE     ---       #1300
      01000D62H   LINE      CODE     ---       #1301
      01000D64H   LINE      CODE     ---       #1302
      01000D64H   LINE      CODE     ---       #1304
      ---         BLOCKEND  ---      ---       LVL=0

      0100096DH   BLOCK     CODE     ---       LVL=0
      0100098AH   BLOCK     CODE     NEAR LAB  LVL=1
      00000025H   SYMBOL    DATA     ---       ticks
      ---         BLOCKEND  ---      ---       LVL=1
      0100096DH   LINE      CODE     ---       #1316
      0100098AH   LINE      CODE     ---       #1321
      0100098DH   LINE      CODE     ---       #1322
      010009A6H   LINE      CODE     ---       #1325
      010009ECH   LINE      CODE     ---       #1329
      01000A04H   LINE      CODE     ---       #1330
      01000A07H   LINE      CODE     ---       #1331
      01000A07H   LINE      CODE     ---       #1332
      01000A15H   LINE      CODE     ---       #1333
      01000A21H   LINE      CODE     ---       #1334
      01000A27H   LINE      CODE     ---       #1335
      01000A29H   LINE      CODE     ---       #1336
      01000A29H   LINE      CODE     ---       #1339
      01000A3EH   LINE      CODE     ---       #1340
      01000A53H   LINE      CODE     ---       #1341
      01000A53H   LINE      CODE     ---       #1342
LX51 LINKER/LOCATER V4.66.30.0                                                        01/29/2020  13:56:08  PAGE 78


      01000A6BH   LINE      CODE     ---       #1343
      01000A6DH   LINE      CODE     ---       #1345
      01000A6DH   LINE      CODE     ---       #1346
      01000A79H   LINE      CODE     ---       #1347
      01000A79H   LINE      CODE     ---       #1350
      01000A7CH   LINE      CODE     ---       #1351
      01000A82H   LINE      CODE     ---       #1352
      01000A85H   LINE      CODE     ---       #1395
      01000A85H   LINE      CODE     ---       #1396
      01000A88H   LINE      CODE     ---       #1397
      01000A88H   LINE      CODE     ---       #1398
      01000A93H   LINE      CODE     ---       #1400
      01000A96H   LINE      CODE     ---       #1401
      01000A99H   LINE      CODE     ---       #1402
      01000A9BH   LINE      CODE     ---       #1405
      01000A9EH   LINE      CODE     ---       #1406
      01000AA1H   LINE      CODE     ---       #1416
      01000AA4H   LINE      CODE     ---       #1418
      01000AA7H   LINE      CODE     ---       #1420
      01000AAAH   LINE      CODE     ---       #1421
      ---         BLOCKEND  ---      ---       LVL=0

      01001088H   BLOCK     CODE     ---       LVL=0
      01001099H   BLOCK     CODE     NEAR LAB  LVL=1
      00000029H   SYMBOL    DATA     ---       hyt
      ---         BLOCKEND  ---      ---       LVL=1
      01001088H   LINE      CODE     ---       #1432
      01001099H   LINE      CODE     ---       #1435
      0100109BH   LINE      CODE     ---       #1438
      010010A1H   LINE      CODE     ---       #1439
      010010A1H   LINE      CODE     ---       #1440
      010010A5H   LINE      CODE     ---       #1441
      010010A5H   LINE      CODE     ---       #1442
      010010A8H   LINE      CODE     ---       #1445
      010010ABH   LINE      CODE     ---       #1447
      010010ADH   LINE      CODE     ---       #1448
      010010B2H   LINE      CODE     ---       #1449
      010010B2H   LINE      CODE     ---       #1450
      010010B5H   LINE      CODE     ---       #1451
      010010B7H   LINE      CODE     ---       #1453
      010010B7H   LINE      CODE     ---       #1454
      010010BDH   LINE      CODE     ---       #1455
      010010BDH   LINE      CODE     ---       #1456
      010010C0H   LINE      CODE     ---       #1458
      010010D7H   LINE      CODE     ---       #1459
      010010DAH   LINE      CODE     ---       #1460
      010010DDH   LINE      CODE     ---       #1461
      010010E0H   LINE      CODE     ---       #1462
      010010E2H   LINE      CODE     ---       #1463
      010010E5H   LINE      CODE     ---       #1464
      010010E8H   LINE      CODE     ---       #1465
      010010EBH   LINE      CODE     ---       #1467
      010010EEH   LINE      CODE     ---       #1468
      010010F1H   LINE      CODE     ---       #1469
      010010F3H   LINE      CODE     ---       #1471
      010010F3H   LINE      CODE     ---       #1472
      010010F5H   LINE      CODE     ---       #1473
      010010F8H   LINE      CODE     ---       #1474
      010010FBH   LINE      CODE     ---       #1475
      010010FEH   LINE      CODE     ---       #1476
      01001100H   LINE      CODE     ---       #1477
      01001100H   LINE      CODE     ---       #1478
LX51 LINKER/LOCATER V4.66.30.0                                                        01/29/2020  13:56:08  PAGE 79


      01001102H   LINE      CODE     ---       #1498
      01001106H   LINE      CODE     ---       #1499
      01001106H   LINE      CODE     ---       #1502
      01001109H   LINE      CODE     ---       #1503
      0100110BH   LINE      CODE     ---       #1504
      0100110EH   LINE      CODE     ---       #1508
      01001111H   LINE      CODE     ---       #1509
      01001114H   LINE      CODE     ---       #1510
      01001116H   LINE      CODE     ---       #1511
      01001118H   LINE      CODE     ---       #1512
      0100111AH   LINE      CODE     ---       #1513
      0100111DH   LINE      CODE     ---       #1514
      01001120H   LINE      CODE     ---       #1515
      01001123H   LINE      CODE     ---       #1516
      01001125H   LINE      CODE     ---       #1517
      0100112AH   LINE      CODE     ---       #1518
      0100112AH   LINE      CODE     ---       #1519
      0100112CH   LINE      CODE     ---       #1522
      01001133H   LINE      CODE     ---       #1523
      01001133H   LINE      CODE     ---       #1524
      01001135H   LINE      CODE     ---       #1525
      01001135H   LINE      CODE     ---       #1526
      01001135H   LINE      CODE     ---       #1527
      ---         BLOCKEND  ---      ---       LVL=0

      ---         MODULE    ---      ---       MTRAPP
      01000FA8H   PUBLIC    CODE     ---       MTRAPP_read_target_speed
      01001A08H   PUBLIC    CODE     ---       MTRAPP_read_direction
      01000E9CH   PUBLIC    CODE     ---       MTRAPP_task
      0100183AH   PUBLIC    CODE     ---       MTRAPP_init
      000000A2H   SFRSYM    DATA     BYTE      SPI0CKR
      00000080H   SFRSYM    DATA     BYTE      P0
      000000D0H.2 SFRSYM    DATA     BIT       PSW_OV
      00000090H   SFRSYM    DATA     BYTE      P1
      00000097H   SFRSYM    DATA     BYTE      WDTCN
      000000A0H   SFRSYM    DATA     BYTE      P2
      000000BCH   SFRSYM    DATA     BYTE      ADC0CF
      000000C8H   SFRSYM    DATA     BIT       TMR2CN0_T2XCLK
      000000C0H.7 SFRSYM    DATA     BIT       SMB0CN0_MASTER
      000000F9H   SFRSYM    DATA     WORD      PCA0
      000000E6H   SFRSYM    DATA     BYTE      EIE1
      000000C0H.1 SFRSYM    DATA     BIT       SMB0CN0_ACK
      0000008FH   SFRSYM    DATA     BYTE      PSCTL
      000000E4H   SFRSYM    DATA     BYTE      IT01CF
      000000C0H.6 SFRSYM    DATA     BIT       SMB0CN0_TXMODE
      000000ADH   SFRSYM    DATA     BYTE      DERIVID
      000000A4H   SFRSYM    DATA     BYTE      P0MDOUT
      000000A5H   SFRSYM    DATA     BYTE      P1MDOUT
      000000E8H.5 SFRSYM    DATA     BIT       ADC0CN0_ADINT
      000000CBH   SFRSYM    DATA     BYTE      TMR2RLH
      000000A6H   SFRSYM    DATA     BYTE      P2MDOUT
      000000A8H   SFRSYM    DATA     BYTE      IE
      00000093H   SFRSYM    DATA     BYTE      TMR3RLH
      000000F3H   SFRSYM    DATA     BYTE      EIP1
      00000098H.2 SFRSYM    DATA     BIT       SCON0_RB8
      000000CAH   SFRSYM    DATA     BYTE      TMR2RLL
      000000FCH   SFRSYM    DATA     BYTE      PCA0CPH0
      00000092H   SFRSYM    DATA     BYTE      TMR3RLL
      000000EAH   SFRSYM    DATA     BYTE      PCA0CPH1
      00000098H.3 SFRSYM    DATA     BIT       SCON0_TB8
      000000F0H   SFRSYM    DATA     BIT       B_B0
      00000082H   SFRSYM    DATA     WORD      DP
LX51 LINKER/LOCATER V4.66.30.0                                                        01/29/2020  13:56:08  PAGE 80


      000000ECH   SFRSYM    DATA     BYTE      PCA0CPH2
      000000A0H.1 SFRSYM    DATA     BIT       BTN0
      000000F0H.1 SFRSYM    DATA     BIT       B_B1
      000000C3H   SFRSYM    DATA     WORD      ADC0GT
      00000090H.1 SFRSYM    DATA     BIT       BTN1
      000000F0H.2 SFRSYM    DATA     BIT       B_B2
      000000FBH   SFRSYM    DATA     BYTE      PCA0CPL0
      000000F0H.3 SFRSYM    DATA     BIT       B_B3
      000000D9H   SFRSYM    DATA     BYTE      PCA0MD
      000000DAH   SFRSYM    DATA     BYTE      PCA0CPM0
      000000E9H   SFRSYM    DATA     BYTE      PCA0CPL1
      000000F0H.4 SFRSYM    DATA     BIT       B_B4
      000000DBH   SFRSYM    DATA     BYTE      PCA0CPM1
      000000EBH   SFRSYM    DATA     BYTE      PCA0CPL2
      000000F0H.5 SFRSYM    DATA     BIT       B_B5
      000000DCH   SFRSYM    DATA     BYTE      PCA0CPM2
      000000B8H   SFRSYM    DATA     BYTE      IP
      000000B9H   SFRSYM    DATA     BYTE      ADC0TK
      000000F0H.6 SFRSYM    DATA     BIT       B_B6
      000000C5H   SFRSYM    DATA     WORD      ADC0LT
      00000098H.5 SFRSYM    DATA     BIT       SCON0_MCE
      000000F0H.7 SFRSYM    DATA     BIT       B_B7
      000000E1H   SFRSYM    DATA     BYTE      XBR0
      000000C1H   SFRSYM    DATA     BYTE      SMB0CF
      000000E2H   SFRSYM    DATA     BYTE      XBR1
      000000C0H.5 SFRSYM    DATA     BIT       SMB0CN0_STA
      000000E3H   SFRSYM    DATA     BYTE      XBR2
      000000BBH   SFRSYM    DATA     BYTE      ADC0MX
      000000E0H   SFRSYM    DATA     BIT       ACC_ACC0
      000000D1H   SFRSYM    DATA     BYTE      REF0CN
      0000008EH   SFRSYM    DATA     BYTE      CKCON0
      000000E0H.1 SFRSYM    DATA     BIT       ACC_ACC1
      000000C9H   SFRSYM    DATA     BYTE      REG0CN
      000000DDH   SFRSYM    DATA     BYTE      CRC0IN
      000000C8H.2 SFRSYM    DATA     BIT       TMR2CN0_TR2
      000000E0H.2 SFRSYM    DATA     BIT       ACC_ACC2
      000000E0H.3 SFRSYM    DATA     BIT       ACC_ACC3
      00000081H   SFRSYM    DATA     BYTE      SP
      0000009DH   SFRSYM    DATA     BYTE      CMP0MD
      000000E0H.4 SFRSYM    DATA     BIT       ACC_ACC4
      000000B1H   SFRSYM    DATA     BYTE      LFO0CN
      000000ABH   SFRSYM    DATA     BYTE      CMP1MD
      000000D8H   SFRSYM    DATA     BIT       PCA0CN0_CCF0
      000000E0H.5 SFRSYM    DATA     BIT       ACC_ACC5
      000000D8H.1 SFRSYM    DATA     BIT       PCA0CN0_CCF1
      000000E0H.6 SFRSYM    DATA     BIT       ACC_ACC6
      000000CCH   SFRSYM    DATA     WORD      TMR2
      000000D8H.2 SFRSYM    DATA     BIT       PCA0CN0_CCF2
      000000E0H.7 SFRSYM    DATA     BIT       ACC_ACC7
      00000094H   SFRSYM    DATA     WORD      TMR3
      000000C0H.3 SFRSYM    DATA     BIT       SMB0CN0_ACKRQ
      000000FFH   SFRSYM    DATA     BYTE      VDM0CN
      000000F1H   SFRSYM    DATA     BYTE      P0MDIN
      00000098H.4 SFRSYM    DATA     BIT       SCON0_REN
      000000ACH   SFRSYM    DATA     BYTE      SMB0TC
      000000F2H   SFRSYM    DATA     BYTE      P1MDIN
      000000C0H.4 SFRSYM    DATA     BIT       SMB0CN0_STO
      000000FEH   SFRSYM    DATA     BYTE      P0MASK
      000000EEH   SFRSYM    DATA     BYTE      P1MASK
      000000D0H.3 SFRSYM    DATA     BIT       PSW_RS0
      000000D8H.7 SFRSYM    DATA     BIT       PCA0CN0_CF
      0000009EH   SFRSYM    DATA     BYTE      PCA0CENT
LX51 LINKER/LOCATER V4.66.30.0                                                        01/29/2020  13:56:08  PAGE 81


      000000F8H.4 SFRSYM    DATA     BIT       SPI0CN0_RXOVRN
      000000D0H.4 SFRSYM    DATA     BIT       PSW_RS1
      000000E8H.7 SFRSYM    DATA     BIT       ADC0CN0_ADEN
      00000089H   SFRSYM    DATA     BYTE      TMOD
      00000088H   SFRSYM    DATA     BYTE      TCON
      000000CFH   SFRSYM    DATA     BYTE      CRC0FLIP
      000000D0H   SFRSYM    DATA     BIT       PSW_PARITY
      000000A8H.4 SFRSYM    DATA     BIT       IE_ES0
      0000009FH   SFRSYM    DATA     BYTE      CMP0MX
      000000A8H.1 SFRSYM    DATA     BIT       IE_ET0
      000000AAH   SFRSYM    DATA     BYTE      CMP1MX
      000000A8H.3 SFRSYM    DATA     BIT       IE_ET1
      000000D4H   SFRSYM    DATA     BYTE      P0SKIP
      000000A8H.5 SFRSYM    DATA     BIT       IE_ET2
      000000D5H   SFRSYM    DATA     BYTE      P1SKIP
      000000E8H   SFRSYM    DATA     BYTE      ADC0CN0
      000000A8H   SFRSYM    DATA     BIT       IE_EX0
      000000B2H   SFRSYM    DATA     BYTE      ADC0CN1
      000000D8H.6 SFRSYM    DATA     BIT       PCA0CN0_CR
      000000A8H.2 SFRSYM    DATA     BIT       IE_EX1
      00000098H.7 SFRSYM    DATA     BIT       SCON0_SMODE
      000000B5H   SFRSYM    DATA     BYTE      DEVICEID
      000000A9H   SFRSYM    DATA     BYTE      CLKSEL
      000000F8H   SFRSYM    DATA     BIT       SPI0CN0_SPIEN
      000000F0H   SFRSYM    DATA     BYTE      B
      000000BEH   SFRSYM    DATA     BYTE      ADC0H
      000000D2H   SFRSYM    DATA     BYTE      CRC0AUTO
      000000E8H.6 SFRSYM    DATA     BIT       ADC0CN0_ADBMEN
      000000CAH   SFRSYM    DATA     WORD      TMR2RL
      000000BDH   SFRSYM    DATA     BYTE      ADC0L
      00000092H   SFRSYM    DATA     WORD      TMR3RL
      000000D8H   SFRSYM    DATA     BYTE      PCA0CN0
      000000E0H   SFRSYM    DATA     BYTE      ACC
      000000FBH   SFRSYM    DATA     WORD      PCA0CP0
      000000E9H   SFRSYM    DATA     WORD      PCA0CP1
      000000EBH   SFRSYM    DATA     WORD      PCA0CP2
      000000CEH   SFRSYM    DATA     BYTE      CRC0CN0
      00000090H.4 SFRSYM    DATA     BIT       BSP_LED0
      0000008CH   SFRSYM    DATA     BYTE      TH0
      000000B8H.4 SFRSYM    DATA     BIT       IP_PS0
      0000008DH   SFRSYM    DATA     BYTE      TH1
      000000FAH   SFRSYM    DATA     BYTE      PCA0H
      000000B8H.1 SFRSYM    DATA     BIT       IP_PT0
      000000B8H.3 SFRSYM    DATA     BIT       IP_PT1
      000000C0H.2 SFRSYM    DATA     BIT       SMB0CN0_ARBLOST
      000000B8H.5 SFRSYM    DATA     BIT       IP_PT2
      0000008AH   SFRSYM    DATA     BYTE      TL0
      000000F8H.1 SFRSYM    DATA     BIT       SPI0CN0_TXBMT
      000000D0H.5 SFRSYM    DATA     BIT       PSW_F0
      000000A8H.6 SFRSYM    DATA     BIT       IE_ESPI0
      0000008BH   SFRSYM    DATA     BYTE      TL1
      000000F9H   SFRSYM    DATA     BYTE      PCA0L
      000000C0H   SFRSYM    DATA     BIT       SMB0CN0_SI
      000000D0H.1 SFRSYM    DATA     BIT       PSW_F1
      00000080H   SFRSYM    DATA     BIT       P0_B0
      000000B8H   SFRSYM    DATA     BIT       IP_PX0
      00000090H   SFRSYM    DATA     BIT       P1_B0
      00000080H.1 SFRSYM    DATA     BIT       P0_B1
      000000B8H.2 SFRSYM    DATA     BIT       IP_PX1
      0000009BH   SFRSYM    DATA     BYTE      CMP0CN0
      00000088H.1 SFRSYM    DATA     BIT       TCON_IE0
      000000A0H   SFRSYM    DATA     BIT       P2_B0
LX51 LINKER/LOCATER V4.66.30.0                                                        01/29/2020  13:56:08  PAGE 82


      00000090H.1 SFRSYM    DATA     BIT       P1_B1
      00000080H.2 SFRSYM    DATA     BIT       P0_B2
      000000BFH   SFRSYM    DATA     BYTE      CMP1CN0
      00000088H.3 SFRSYM    DATA     BIT       TCON_IE1
      000000A0H.1 SFRSYM    DATA     BIT       P2_B1
      00000090H.2 SFRSYM    DATA     BIT       P1_B2
      00000080H.3 SFRSYM    DATA     BIT       P0_B3
      000000C0H   SFRSYM    DATA     BYTE      SMB0CN0
      00000090H.3 SFRSYM    DATA     BIT       P1_B3
      00000080H.4 SFRSYM    DATA     BIT       P0_B4
      00000090H.4 SFRSYM    DATA     BIT       P1_B4
      00000080H.5 SFRSYM    DATA     BIT       P0_B5
      00000090H.5 SFRSYM    DATA     BIT       P1_B5
      00000080H.6 SFRSYM    DATA     BIT       P0_B6
      00000090H.6 SFRSYM    DATA     BIT       P1_B6
      00000080H.7 SFRSYM    DATA     BIT       P0_B7
      00000090H.7 SFRSYM    DATA     BIT       P1_B7
      00000080H.2 SFRSYM    DATA     BIT       BSP_BTN0
      00000083H   SFRSYM    DATA     BYTE      DPH
      000000C4H   SFRSYM    DATA     BYTE      ADC0GTH
      000000C8H.7 SFRSYM    DATA     BIT       TMR2CN0_TF2H
      000000C8H.3 SFRSYM    DATA     BIT       TMR2CN0_T2SPLIT
      000000D0H.6 SFRSYM    DATA     BIT       PSW_AC
      000000F8H   SFRSYM    DATA     BYTE      SPI0CN0
      000000C7H   SFRSYM    DATA     BYTE      HFO0CAL
      00000088H.5 SFRSYM    DATA     BIT       TCON_TF0
      00000098H   SFRSYM    DATA     BIT       SCON0_RI
      00000082H   SFRSYM    DATA     BYTE      DPL
      00000088H.7 SFRSYM    DATA     BIT       TCON_TF1
      00000099H   SFRSYM    DATA     BYTE      SBUF0
      00000087H   SFRSYM    DATA     BYTE      PCON0
      000000C3H   SFRSYM    DATA     BYTE      ADC0GTL
      000000C8H.6 SFRSYM    DATA     BIT       TMR2CN0_TF2L
      00000098H.1 SFRSYM    DATA     BIT       SCON0_TI
      000000E8H   SFRSYM    DATA     BIT       ADC0CN0_ADCM0
      000000C6H   SFRSYM    DATA     BYTE      ADC0LTH
      00000088H   SFRSYM    DATA     BIT       TCON_IT0
      000000E8H.1 SFRSYM    DATA     BIT       ADC0CN0_ADCM1
      000000EFH   SFRSYM    DATA     BYTE      RSTSRC
      000000FDH   SFRSYM    DATA     BYTE      P0MAT
      000000DEH   SFRSYM    DATA     BYTE      CRC0DAT
      00000088H.2 SFRSYM    DATA     BIT       TCON_IT1
      000000E8H.2 SFRSYM    DATA     BIT       ADC0CN0_ADCM2
      00000098H   SFRSYM    DATA     BYTE      SCON0
      000000F6H   SFRSYM    DATA     BYTE      PRTDRV
      000000EDH   SFRSYM    DATA     BYTE      P1MAT
      000000E8H.3 SFRSYM    DATA     BIT       ADC0CN0_ADWINT
      000000E8H.4 SFRSYM    DATA     BIT       ADC0CN0_ADBUSY
      000000D6H   SFRSYM    DATA     BYTE      SMB0ADM
      000000C5H   SFRSYM    DATA     BYTE      ADC0LTL
      000000F8H.5 SFRSYM    DATA     BIT       SPI0CN0_MODF
      000000B8H.6 SFRSYM    DATA     BIT       IP_PSPI0
      0000009CH   SFRSYM    DATA     BYTE      PCA0CLR
      000000C8H   SFRSYM    DATA     BYTE      TMR2CN0
      00000091H   SFRSYM    DATA     BYTE      TMR3CN0
      000000D7H   SFRSYM    DATA     BYTE      SMB0ADR
      00000088H.4 SFRSYM    DATA     BIT       TCON_TR0
      000000C8H.4 SFRSYM    DATA     BIT       TMR2CN0_TF2CEN
      00000088H.6 SFRSYM    DATA     BIT       TCON_TR1
      000000C2H   SFRSYM    DATA     BYTE      SMB0DAT
      000000CDH   SFRSYM    DATA     BYTE      TMR2H
      000000A1H   SFRSYM    DATA     BYTE      SPI0CFG
LX51 LINKER/LOCATER V4.66.30.0                                                        01/29/2020  13:56:08  PAGE 83


      00000095H   SFRSYM    DATA     BYTE      TMR3H
      000000D3H   SFRSYM    DATA     BYTE      CRC0CNT
      00000096H   SFRSYM    DATA     BYTE      PCA0POL
      000000CCH   SFRSYM    DATA     BYTE      TMR2L
      000000F8H.7 SFRSYM    DATA     BIT       SPI0CN0_SPIF
      00000094H   SFRSYM    DATA     BYTE      TMR3L
      000000DFH   SFRSYM    DATA     BYTE      ADC0PWR
      000000A8H.7 SFRSYM    DATA     BIT       IE_EA
      000000C8H.5 SFRSYM    DATA     BIT       TMR2CN0_TF2LEN
      000000F8H.6 SFRSYM    DATA     BIT       SPI0CN0_WCOL
      000000F8H.2 SFRSYM    DATA     BIT       SPI0CN0_NSSMD0
      000000D0H.7 SFRSYM    DATA     BIT       PSW_CY
      000000A3H   SFRSYM    DATA     BYTE      SPI0DAT
      000000F8H.3 SFRSYM    DATA     BIT       SPI0CN0_NSSMD1
      000000BDH   SFRSYM    DATA     WORD      ADC0
      000000D0H   SFRSYM    DATA     BYTE      PSW
      000000F7H   SFRSYM    DATA     BYTE      PCA0PWM
      000000B6H   SFRSYM    DATA     BYTE      REVID
      000000B7H   SFRSYM    DATA     BYTE      FLKEY
      000000B3H   SFRSYM    DATA     BYTE      ADC0AC
      02000089H   SYMBOL    XDATA    WORD      pot_reading
      00000022H.3 SYMBOL    BIT      BIT       speed_ctrl_by_pc
      00000022H.4 SYMBOL    BIT      BIT       start_by_pc
      00000067H   SYMBOL    DATA     WORD      prev_target_rpm
      0200008BH   SYMBOL    XDATA    WORD      read_speed_interval

      0100183AH   BLOCK     CODE     ---       LVL=0
      0100183AH   LINE      CODE     ---       #64
      0100183AH   LINE      CODE     ---       #65
      0100183AH   LINE      CODE     ---       #66
      01001843H   LINE      CODE     ---       #67
      0100184DH   LINE      CODE     ---       #68
      01001857H   LINE      CODE     ---       #69
      01001864H   LINE      CODE     ---       #70
      01001866H   LINE      CODE     ---       #71
      01001868H   LINE      CODE     ---       #73
      0100186DH   LINE      CODE     ---       #75
      01001873H   LINE      CODE     ---       #76
      01001879H   LINE      CODE     ---       #81
      ---         BLOCKEND  ---      ---       LVL=0

      01000E9CH   BLOCK     CODE     ---       LVL=0
      01000E9CH   BLOCK     CODE     NEAR LAB  LVL=1
      0200006DH   SYMBOL    XDATA    WORD      Pg
      0200006FH   SYMBOL    XDATA    WORD      Ig
      00000064H   SYMBOL    DATA     BYTE      last_report
      0000005DH   SYMBOL    DATA     BYTE      tmp
      00000021H.3 SYMBOL    BIT      BIT       run_dir
      ---         BLOCKEND  ---      ---       LVL=1
      01000E9CH   LINE      CODE     ---       #94
      01000E9CH   LINE      CODE     ---       #95
      01000E9CH   LINE      CODE     ---       #105
      01000E9FH   LINE      CODE     ---       #107
      01000EA4H   LINE      CODE     ---       #108
      01000EACH   LINE      CODE     ---       #109
      01000EACH   LINE      CODE     ---       #110
      01000EB3H   LINE      CODE     ---       #111
      01000EB3H   LINE      CODE     ---       #112
      01000EB6H   LINE      CODE     ---       #113
      01000EB6H   LINE      CODE     ---       #114
      01000EBCH   LINE      CODE     ---       #115
      01000EBCH   LINE      CODE     ---       #119
LX51 LINKER/LOCATER V4.66.30.0                                                        01/29/2020  13:56:08  PAGE 84


      01000EBFH   LINE      CODE     ---       #121
      01000EC2H   LINE      CODE     ---       #122
      01000EC2H   LINE      CODE     ---       #124
      01000EC6H   LINE      CODE     ---       #125
      01000EC6H   LINE      CODE     ---       #127
      01000EC8H   LINE      CODE     ---       #128
      01000EC8H   LINE      CODE     ---       #130
      01000ECBH   LINE      CODE     ---       #137
      01000ED7H   LINE      CODE     ---       #139
      01000ED7H   LINE      CODE     ---       #140
      01000ED9H   LINE      CODE     ---       #141
      01000ED9H   LINE      CODE     ---       #145
      01000EDCH   LINE      CODE     ---       #150
      01000EE6H   LINE      CODE     ---       #151
      01000EF0H   LINE      CODE     ---       #152
      01000EFDH   LINE      CODE     ---       #153
      01000F09H   LINE      CODE     ---       #163
      01000F16H   LINE      CODE     ---       #164
      01000F25H   LINE      CODE     ---       #165
      01000F30H   LINE      CODE     ---       #167
      01000F32H   LINE      CODE     ---       #168
      01000F38H   LINE      CODE     ---       #169
      01000F38H   LINE      CODE     ---       #171
      01000F42H   LINE      CODE     ---       #176
      01000F42H   LINE      CODE     ---       #177
      01000F45H   LINE      CODE     ---       #185
      01000F45H   LINE      CODE     ---       #186
      01000F45H   LINE      CODE     ---       #188
      01000F4AH   LINE      CODE     ---       #189
      01000F55H   LINE      CODE     ---       #190
      01000F55H   LINE      CODE     ---       #191
      01000F57H   LINE      CODE     ---       #192
      01000F66H   LINE      CODE     ---       #194
      01000F71H   LINE      CODE     ---       #195
      01000F7BH   LINE      CODE     ---       #196
      01000F87H   LINE      CODE     ---       #198
      01000F87H   LINE      CODE     ---       #202
      01000F8AH   LINE      CODE     ---       #206
      01000F99H   LINE      CODE     ---       #212
      ---         BLOCKEND  ---      ---       LVL=0

      01001A08H   BLOCK     CODE     ---       LVL=0
      01001A08H   BLOCK     CODE     NEAR LAB  LVL=1
      00000022H.2 SYMBOL    BIT      BIT       wait_release
      ---         BLOCKEND  ---      ---       LVL=1
      01001A08H   LINE      CODE     ---       #227
      01001A08H   LINE      CODE     ---       #228
      01001A08H   LINE      CODE     ---       #231
      01001A0BH   LINE      CODE     ---       #232
      01001A0BH   LINE      CODE     ---       #233
      01001A0EH   LINE      CODE     ---       #234
      01001A0EH   LINE      CODE     ---       #235
      01001A10H   LINE      CODE     ---       #236
      01001A10H   LINE      CODE     ---       #237
      01001A12H   LINE      CODE     ---       #238
      01001A1FH   LINE      CODE     ---       #239
      01001A1FH   LINE      CODE     ---       #240
      01001A21H   LINE      CODE     ---       #241
      01001A2DH   LINE      CODE     ---       #243
      01001A2FH   LINE      CODE     ---       #244
      01001A2FH   LINE      CODE     ---       #246
      01001A39H   LINE      CODE     ---       #247
LX51 LINKER/LOCATER V4.66.30.0                                                        01/29/2020  13:56:08  PAGE 85


      ---         BLOCKEND  ---      ---       LVL=0

      01000FA8H   BLOCK     CODE     ---       LVL=0
      01000FA8H   BLOCK     CODE     NEAR LAB  LVL=1
      00000065H   SYMBOL    DATA     WORD      last_read_speed_time
      0000005EH   SYMBOL    DATA     WORD      temp
      ---         BLOCKEND  ---      ---       LVL=1
      01000FA8H   LINE      CODE     ---       #262
      01000FA8H   LINE      CODE     ---       #263
      01000FA8H   LINE      CODE     ---       #269
      01000FC4H   LINE      CODE     ---       #270
      01000FC4H   LINE      CODE     ---       #272
      01000FC4H   LINE      CODE     ---       #273
      01000FCBH   LINE      CODE     ---       #275
      01000FD3H   LINE      CODE     ---       #276
      01000FD3H   LINE      CODE     ---       #278
      01000FDCH   LINE      CODE     ---       #279
      01000FE8H   LINE      CODE     ---       #280
      01000FE8H   LINE      CODE     ---       #281
      01000FF0H   LINE      CODE     ---       #282
      01000FF0H   LINE      CODE     ---       #284
      01000FF2H   LINE      CODE     ---       #287
      01000FFDH   LINE      CODE     ---       #288
      01000FFFH   LINE      CODE     ---       #290
      01000FFFH   LINE      CODE     ---       #291
      01001005H   LINE      CODE     ---       #292
      01001005H   LINE      CODE     ---       #293
      01001007H   LINE      CODE     ---       #294
      01001007H   LINE      CODE     ---       #295
      01001007H   LINE      CODE     ---       #298
      01001011H   LINE      CODE     ---       #300
      0100101EH   LINE      CODE     ---       #302
      0100102AH   LINE      CODE     ---       #304
      01001045H   LINE      CODE     ---       #305
      01001059H   LINE      CODE     ---       #306
      0100105DH   LINE      CODE     ---       #307
      01001065H   LINE      CODE     ---       #308
      01001065H   LINE      CODE     ---       #309
      0100106FH   LINE      CODE     ---       #310
      0100106FH   LINE      CODE     ---       #312
      01001072H   LINE      CODE     ---       #313
      01001072H   LINE      CODE     ---       #315
      0100107CH   LINE      CODE     ---       #317
      01001087H   LINE      CODE     ---       #318
      01001087H   LINE      CODE     ---       #382
      ---         BLOCKEND  ---      ---       LVL=0

      ---         MODULE    ---      ---       MTRPID
      00000022H.6 PUBLIC    BIT      BIT       pid_done
      01001D00H   PUBLIC    CODE     ---       MTR_pid_compute_newpwm
      01001C84H   PUBLIC    CODE     ---       MTR_pid_init
      01001CCFH   PUBLIC    CODE     ---       _SL_MTR_change_pid_gain
      000000A2H   SFRSYM    DATA     BYTE      SPI0CKR
      00000080H   SFRSYM    DATA     BYTE      P0
      000000D0H.2 SFRSYM    DATA     BIT       PSW_OV
      00000090H   SFRSYM    DATA     BYTE      P1
      00000097H   SFRSYM    DATA     BYTE      WDTCN
      000000A0H   SFRSYM    DATA     BYTE      P2
      000000BCH   SFRSYM    DATA     BYTE      ADC0CF
      000000C8H   SFRSYM    DATA     BIT       TMR2CN0_T2XCLK
      000000C0H.7 SFRSYM    DATA     BIT       SMB0CN0_MASTER
      000000F9H   SFRSYM    DATA     WORD      PCA0
LX51 LINKER/LOCATER V4.66.30.0                                                        01/29/2020  13:56:08  PAGE 86


      000000E6H   SFRSYM    DATA     BYTE      EIE1
      000000C0H.1 SFRSYM    DATA     BIT       SMB0CN0_ACK
      0000008FH   SFRSYM    DATA     BYTE      PSCTL
      000000E4H   SFRSYM    DATA     BYTE      IT01CF
      000000C0H.6 SFRSYM    DATA     BIT       SMB0CN0_TXMODE
      000000ADH   SFRSYM    DATA     BYTE      DERIVID
      000000A4H   SFRSYM    DATA     BYTE      P0MDOUT
      000000A5H   SFRSYM    DATA     BYTE      P1MDOUT
      000000E8H.5 SFRSYM    DATA     BIT       ADC0CN0_ADINT
      000000CBH   SFRSYM    DATA     BYTE      TMR2RLH
      000000A6H   SFRSYM    DATA     BYTE      P2MDOUT
      000000A8H   SFRSYM    DATA     BYTE      IE
      00000093H   SFRSYM    DATA     BYTE      TMR3RLH
      000000F3H   SFRSYM    DATA     BYTE      EIP1
      00000098H.2 SFRSYM    DATA     BIT       SCON0_RB8
      000000CAH   SFRSYM    DATA     BYTE      TMR2RLL
      000000FCH   SFRSYM    DATA     BYTE      PCA0CPH0
      00000092H   SFRSYM    DATA     BYTE      TMR3RLL
      000000EAH   SFRSYM    DATA     BYTE      PCA0CPH1
      00000098H.3 SFRSYM    DATA     BIT       SCON0_TB8
      000000F0H   SFRSYM    DATA     BIT       B_B0
      00000082H   SFRSYM    DATA     WORD      DP
      000000ECH   SFRSYM    DATA     BYTE      PCA0CPH2
      000000A0H.1 SFRSYM    DATA     BIT       BTN0
      000000F0H.1 SFRSYM    DATA     BIT       B_B1
      000000C3H   SFRSYM    DATA     WORD      ADC0GT
      00000090H.1 SFRSYM    DATA     BIT       BTN1
      000000F0H.2 SFRSYM    DATA     BIT       B_B2
      000000FBH   SFRSYM    DATA     BYTE      PCA0CPL0
      000000F0H.3 SFRSYM    DATA     BIT       B_B3
      000000D9H   SFRSYM    DATA     BYTE      PCA0MD
      000000DAH   SFRSYM    DATA     BYTE      PCA0CPM0
      000000E9H   SFRSYM    DATA     BYTE      PCA0CPL1
      000000F0H.4 SFRSYM    DATA     BIT       B_B4
      000000DBH   SFRSYM    DATA     BYTE      PCA0CPM1
      000000EBH   SFRSYM    DATA     BYTE      PCA0CPL2
      000000F0H.5 SFRSYM    DATA     BIT       B_B5
      000000DCH   SFRSYM    DATA     BYTE      PCA0CPM2
      000000B8H   SFRSYM    DATA     BYTE      IP
      000000B9H   SFRSYM    DATA     BYTE      ADC0TK
      000000F0H.6 SFRSYM    DATA     BIT       B_B6
      000000C5H   SFRSYM    DATA     WORD      ADC0LT
      00000098H.5 SFRSYM    DATA     BIT       SCON0_MCE
      000000F0H.7 SFRSYM    DATA     BIT       B_B7
      000000E1H   SFRSYM    DATA     BYTE      XBR0
      000000C1H   SFRSYM    DATA     BYTE      SMB0CF
      000000E2H   SFRSYM    DATA     BYTE      XBR1
      000000C0H.5 SFRSYM    DATA     BIT       SMB0CN0_STA
      000000E3H   SFRSYM    DATA     BYTE      XBR2
      000000BBH   SFRSYM    DATA     BYTE      ADC0MX
      000000E0H   SFRSYM    DATA     BIT       ACC_ACC0
      000000D1H   SFRSYM    DATA     BYTE      REF0CN
      0000008EH   SFRSYM    DATA     BYTE      CKCON0
      000000E0H.1 SFRSYM    DATA     BIT       ACC_ACC1
      000000C9H   SFRSYM    DATA     BYTE      REG0CN
      000000DDH   SFRSYM    DATA     BYTE      CRC0IN
      000000C8H.2 SFRSYM    DATA     BIT       TMR2CN0_TR2
      000000E0H.2 SFRSYM    DATA     BIT       ACC_ACC2
      000000E0H.3 SFRSYM    DATA     BIT       ACC_ACC3
      00000081H   SFRSYM    DATA     BYTE      SP
      0000009DH   SFRSYM    DATA     BYTE      CMP0MD
      000000E0H.4 SFRSYM    DATA     BIT       ACC_ACC4
LX51 LINKER/LOCATER V4.66.30.0                                                        01/29/2020  13:56:08  PAGE 87


      000000B1H   SFRSYM    DATA     BYTE      LFO0CN
      000000ABH   SFRSYM    DATA     BYTE      CMP1MD
      000000D8H   SFRSYM    DATA     BIT       PCA0CN0_CCF0
      000000E0H.5 SFRSYM    DATA     BIT       ACC_ACC5
      000000D8H.1 SFRSYM    DATA     BIT       PCA0CN0_CCF1
      000000E0H.6 SFRSYM    DATA     BIT       ACC_ACC6
      000000CCH   SFRSYM    DATA     WORD      TMR2
      000000D8H.2 SFRSYM    DATA     BIT       PCA0CN0_CCF2
      000000E0H.7 SFRSYM    DATA     BIT       ACC_ACC7
      00000094H   SFRSYM    DATA     WORD      TMR3
      000000C0H.3 SFRSYM    DATA     BIT       SMB0CN0_ACKRQ
      000000FFH   SFRSYM    DATA     BYTE      VDM0CN
      000000F1H   SFRSYM    DATA     BYTE      P0MDIN
      00000098H.4 SFRSYM    DATA     BIT       SCON0_REN
      000000ACH   SFRSYM    DATA     BYTE      SMB0TC
      000000F2H   SFRSYM    DATA     BYTE      P1MDIN
      000000C0H.4 SFRSYM    DATA     BIT       SMB0CN0_STO
      000000FEH   SFRSYM    DATA     BYTE      P0MASK
      000000EEH   SFRSYM    DATA     BYTE      P1MASK
      000000D0H.3 SFRSYM    DATA     BIT       PSW_RS0
      000000D8H.7 SFRSYM    DATA     BIT       PCA0CN0_CF
      0000009EH   SFRSYM    DATA     BYTE      PCA0CENT
      000000F8H.4 SFRSYM    DATA     BIT       SPI0CN0_RXOVRN
      000000D0H.4 SFRSYM    DATA     BIT       PSW_RS1
      000000E8H.7 SFRSYM    DATA     BIT       ADC0CN0_ADEN
      00000089H   SFRSYM    DATA     BYTE      TMOD
      00000088H   SFRSYM    DATA     BYTE      TCON
      000000CFH   SFRSYM    DATA     BYTE      CRC0FLIP
      000000D0H   SFRSYM    DATA     BIT       PSW_PARITY
      000000A8H.4 SFRSYM    DATA     BIT       IE_ES0
      0000009FH   SFRSYM    DATA     BYTE      CMP0MX
      000000A8H.1 SFRSYM    DATA     BIT       IE_ET0
      000000AAH   SFRSYM    DATA     BYTE      CMP1MX
      000000A8H.3 SFRSYM    DATA     BIT       IE_ET1
      000000D4H   SFRSYM    DATA     BYTE      P0SKIP
      000000A8H.5 SFRSYM    DATA     BIT       IE_ET2
      000000D5H   SFRSYM    DATA     BYTE      P1SKIP
      000000E8H   SFRSYM    DATA     BYTE      ADC0CN0
      000000A8H   SFRSYM    DATA     BIT       IE_EX0
      000000B2H   SFRSYM    DATA     BYTE      ADC0CN1
      000000D8H.6 SFRSYM    DATA     BIT       PCA0CN0_CR
      000000A8H.2 SFRSYM    DATA     BIT       IE_EX1
      00000098H.7 SFRSYM    DATA     BIT       SCON0_SMODE
      000000B5H   SFRSYM    DATA     BYTE      DEVICEID
      000000A9H   SFRSYM    DATA     BYTE      CLKSEL
      000000F8H   SFRSYM    DATA     BIT       SPI0CN0_SPIEN
      000000F0H   SFRSYM    DATA     BYTE      B
      000000BEH   SFRSYM    DATA     BYTE      ADC0H
      000000D2H   SFRSYM    DATA     BYTE      CRC0AUTO
      000000E8H.6 SFRSYM    DATA     BIT       ADC0CN0_ADBMEN
      000000CAH   SFRSYM    DATA     WORD      TMR2RL
      000000BDH   SFRSYM    DATA     BYTE      ADC0L
      00000092H   SFRSYM    DATA     WORD      TMR3RL
      000000D8H   SFRSYM    DATA     BYTE      PCA0CN0
      000000E0H   SFRSYM    DATA     BYTE      ACC
      000000FBH   SFRSYM    DATA     WORD      PCA0CP0
      000000E9H   SFRSYM    DATA     WORD      PCA0CP1
      000000EBH   SFRSYM    DATA     WORD      PCA0CP2
      000000CEH   SFRSYM    DATA     BYTE      CRC0CN0
      00000090H.4 SFRSYM    DATA     BIT       BSP_LED0
      0000008CH   SFRSYM    DATA     BYTE      TH0
      000000B8H.4 SFRSYM    DATA     BIT       IP_PS0
LX51 LINKER/LOCATER V4.66.30.0                                                        01/29/2020  13:56:08  PAGE 88


      0000008DH   SFRSYM    DATA     BYTE      TH1
      000000FAH   SFRSYM    DATA     BYTE      PCA0H
      000000B8H.1 SFRSYM    DATA     BIT       IP_PT0
      000000B8H.3 SFRSYM    DATA     BIT       IP_PT1
      000000C0H.2 SFRSYM    DATA     BIT       SMB0CN0_ARBLOST
      000000B8H.5 SFRSYM    DATA     BIT       IP_PT2
      0000008AH   SFRSYM    DATA     BYTE      TL0
      000000F8H.1 SFRSYM    DATA     BIT       SPI0CN0_TXBMT
      000000D0H.5 SFRSYM    DATA     BIT       PSW_F0
      000000A8H.6 SFRSYM    DATA     BIT       IE_ESPI0
      0000008BH   SFRSYM    DATA     BYTE      TL1
      000000F9H   SFRSYM    DATA     BYTE      PCA0L
      000000C0H   SFRSYM    DATA     BIT       SMB0CN0_SI
      000000D0H.1 SFRSYM    DATA     BIT       PSW_F1
      00000080H   SFRSYM    DATA     BIT       P0_B0
      000000B8H   SFRSYM    DATA     BIT       IP_PX0
      00000090H   SFRSYM    DATA     BIT       P1_B0
      00000080H.1 SFRSYM    DATA     BIT       P0_B1
      000000B8H.2 SFRSYM    DATA     BIT       IP_PX1
      0000009BH   SFRSYM    DATA     BYTE      CMP0CN0
      00000088H.1 SFRSYM    DATA     BIT       TCON_IE0
      000000A0H   SFRSYM    DATA     BIT       P2_B0
      00000090H.1 SFRSYM    DATA     BIT       P1_B1
      00000080H.2 SFRSYM    DATA     BIT       P0_B2
      000000BFH   SFRSYM    DATA     BYTE      CMP1CN0
      00000088H.3 SFRSYM    DATA     BIT       TCON_IE1
      000000A0H.1 SFRSYM    DATA     BIT       P2_B1
      00000090H.2 SFRSYM    DATA     BIT       P1_B2
      00000080H.3 SFRSYM    DATA     BIT       P0_B3
      000000C0H   SFRSYM    DATA     BYTE      SMB0CN0
      00000090H.3 SFRSYM    DATA     BIT       P1_B3
      00000080H.4 SFRSYM    DATA     BIT       P0_B4
      00000090H.4 SFRSYM    DATA     BIT       P1_B4
      00000080H.5 SFRSYM    DATA     BIT       P0_B5
      00000090H.5 SFRSYM    DATA     BIT       P1_B5
      00000080H.6 SFRSYM    DATA     BIT       P0_B6
      00000090H.6 SFRSYM    DATA     BIT       P1_B6
      00000080H.7 SFRSYM    DATA     BIT       P0_B7
      00000090H.7 SFRSYM    DATA     BIT       P1_B7
      00000080H.2 SFRSYM    DATA     BIT       BSP_BTN0
      00000083H   SFRSYM    DATA     BYTE      DPH
      000000C4H   SFRSYM    DATA     BYTE      ADC0GTH
      000000C8H.7 SFRSYM    DATA     BIT       TMR2CN0_TF2H
      000000C8H.3 SFRSYM    DATA     BIT       TMR2CN0_T2SPLIT
      000000D0H.6 SFRSYM    DATA     BIT       PSW_AC
      000000F8H   SFRSYM    DATA     BYTE      SPI0CN0
      000000C7H   SFRSYM    DATA     BYTE      HFO0CAL
      00000088H.5 SFRSYM    DATA     BIT       TCON_TF0
      00000098H   SFRSYM    DATA     BIT       SCON0_RI
      00000082H   SFRSYM    DATA     BYTE      DPL
      00000088H.7 SFRSYM    DATA     BIT       TCON_TF1
      00000099H   SFRSYM    DATA     BYTE      SBUF0
      00000087H   SFRSYM    DATA     BYTE      PCON0
      000000C3H   SFRSYM    DATA     BYTE      ADC0GTL
      000000C8H.6 SFRSYM    DATA     BIT       TMR2CN0_TF2L
      00000098H.1 SFRSYM    DATA     BIT       SCON0_TI
      000000E8H   SFRSYM    DATA     BIT       ADC0CN0_ADCM0
      000000C6H   SFRSYM    DATA     BYTE      ADC0LTH
      00000088H   SFRSYM    DATA     BIT       TCON_IT0
      000000E8H.1 SFRSYM    DATA     BIT       ADC0CN0_ADCM1
      000000EFH   SFRSYM    DATA     BYTE      RSTSRC
      000000FDH   SFRSYM    DATA     BYTE      P0MAT
LX51 LINKER/LOCATER V4.66.30.0                                                        01/29/2020  13:56:08  PAGE 89


      000000DEH   SFRSYM    DATA     BYTE      CRC0DAT
      00000088H.2 SFRSYM    DATA     BIT       TCON_IT1
      000000E8H.2 SFRSYM    DATA     BIT       ADC0CN0_ADCM2
      00000098H   SFRSYM    DATA     BYTE      SCON0
      000000F6H   SFRSYM    DATA     BYTE      PRTDRV
      000000EDH   SFRSYM    DATA     BYTE      P1MAT
      000000E8H.3 SFRSYM    DATA     BIT       ADC0CN0_ADWINT
      000000E8H.4 SFRSYM    DATA     BIT       ADC0CN0_ADBUSY
      000000D6H   SFRSYM    DATA     BYTE      SMB0ADM
      000000C5H   SFRSYM    DATA     BYTE      ADC0LTL
      000000F8H.5 SFRSYM    DATA     BIT       SPI0CN0_MODF
      000000B8H.6 SFRSYM    DATA     BIT       IP_PSPI0
      0000009CH   SFRSYM    DATA     BYTE      PCA0CLR
      000000C8H   SFRSYM    DATA     BYTE      TMR2CN0
      00000091H   SFRSYM    DATA     BYTE      TMR3CN0
      000000D7H   SFRSYM    DATA     BYTE      SMB0ADR
      00000088H.4 SFRSYM    DATA     BIT       TCON_TR0
      000000C8H.4 SFRSYM    DATA     BIT       TMR2CN0_TF2CEN
      00000088H.6 SFRSYM    DATA     BIT       TCON_TR1
      000000C2H   SFRSYM    DATA     BYTE      SMB0DAT
      000000CDH   SFRSYM    DATA     BYTE      TMR2H
      000000A1H   SFRSYM    DATA     BYTE      SPI0CFG
      00000095H   SFRSYM    DATA     BYTE      TMR3H
      000000D3H   SFRSYM    DATA     BYTE      CRC0CNT
      00000096H   SFRSYM    DATA     BYTE      PCA0POL
      000000CCH   SFRSYM    DATA     BYTE      TMR2L
      000000F8H.7 SFRSYM    DATA     BIT       SPI0CN0_SPIF
      00000094H   SFRSYM    DATA     BYTE      TMR3L
      000000DFH   SFRSYM    DATA     BYTE      ADC0PWR
      000000A8H.7 SFRSYM    DATA     BIT       IE_EA
      000000C8H.5 SFRSYM    DATA     BIT       TMR2CN0_TF2LEN
      000000F8H.6 SFRSYM    DATA     BIT       SPI0CN0_WCOL
      000000F8H.2 SFRSYM    DATA     BIT       SPI0CN0_NSSMD0
      000000D0H.7 SFRSYM    DATA     BIT       PSW_CY
      000000A3H   SFRSYM    DATA     BYTE      SPI0DAT
      000000F8H.3 SFRSYM    DATA     BIT       SPI0CN0_NSSMD1
      000000BDH   SFRSYM    DATA     WORD      ADC0
      000000D0H   SFRSYM    DATA     BYTE      PSW
      000000F7H   SFRSYM    DATA     BYTE      PCA0PWM
      000000B6H   SFRSYM    DATA     BYTE      REVID
      000000B7H   SFRSYM    DATA     BYTE      FLKEY
      000000B3H   SFRSYM    DATA     BYTE      ADC0AC
      02000079H   SYMBOL    XDATA    ---       tmpval
      0200007DH   SYMBOL    XDATA    ---       pidth
      0000001AH   SYMBOL    DATA     WORD      newpwm
      0200007FH   SYMBOL    XDATA    WORD      Ki
      02000081H   SYMBOL    XDATA    WORD      Kp
      0000001CH   SYMBOL    DATA     WORD      lastspeed
      010002EFH   SYMBOL    CODE     ---       MTR_pid_compute_thread
      0000001EH   SYMBOL    DATA     WORD      curspeed

      01001CCFH   BLOCK     CODE     ---       LVL=0
      00000006H   SYMBOL    DATA     WORD      proportion
      00000004H   SYMBOL    DATA     WORD      integral
      01001CCFH   LINE      CODE     ---       #42
      01001CCFH   LINE      CODE     ---       #43
      01001CCFH   LINE      CODE     ---       #44
      01001CD7H   LINE      CODE     ---       #45
      01001CDFH   LINE      CODE     ---       #46
      ---         BLOCKEND  ---      ---       LVL=0

      01001C84H   BLOCK     CODE     ---       LVL=0
LX51 LINKER/LOCATER V4.66.30.0                                                        01/29/2020  13:56:08  PAGE 90


      01001C84H   LINE      CODE     ---       #63
      01001C84H   LINE      CODE     ---       #64
      01001C84H   LINE      CODE     ---       #65
      01001C8EH   LINE      CODE     ---       #66
      01001C90H   LINE      CODE     ---       #70
      01001C97H   LINE      CODE     ---       #71
      ---         BLOCKEND  ---      ---       LVL=0

      01001D00H   BLOCK     CODE     ---       LVL=0
      01001D00H   LINE      CODE     ---       #87
      01001D00H   LINE      CODE     ---       #88
      01001D00H   LINE      CODE     ---       #89
      01001D06H   LINE      CODE     ---       #91
      01001D09H   LINE      CODE     ---       #93
      01001D0DH   LINE      CODE     ---       #94
      ---         BLOCKEND  ---      ---       LVL=0

      010002EFH   BLOCK     CODE     ---       LVL=0
      010002EFH   BLOCK     CODE     NEAR LAB  LVL=1
      0000005EH   SYMBOL    DATA     CHAR      PT_YIELD_FLAG
      ---         BLOCKEND  ---      ---       LVL=1
      010002EFH   LINE      CODE     ---       #112
      010002EFH   LINE      CODE     ---       #113
      010002EFH   LINE      CODE     ---       #114
      01000317H   LINE      CODE     ---       #116
      01000317H   LINE      CODE     ---       #117
      01000317H   LINE      CODE     ---       #118
      01000326H   LINE      CODE     ---       #120
      01000328H   LINE      CODE     ---       #123
      01000332H   LINE      CODE     ---       #126
      0100036AH   LINE      CODE     ---       #128
      0100037CH   LINE      CODE     ---       #131
      010003DEH   LINE      CODE     ---       #133
      010003F0H   LINE      CODE     ---       #136
      010003F6H   LINE      CODE     ---       #139
      0100040FH   LINE      CODE     ---       #141
      01000418H   LINE      CODE     ---       #142
      01000418H   LINE      CODE     ---       #143
      0100042FH   LINE      CODE     ---       #144
      01000449H   LINE      CODE     ---       #145
      01000449H   LINE      CODE     ---       #146
      0100044FH   LINE      CODE     ---       #147
      01000451H   LINE      CODE     ---       #149
      01000451H   LINE      CODE     ---       #150
      0100045BH   LINE      CODE     ---       #151
      0100045BH   LINE      CODE     ---       #154
      01000466H   LINE      CODE     ---       #155
      01000466H   LINE      CODE     ---       #157
      01000467H   LINE      CODE     ---       #158
      01000469H   LINE      CODE     ---       #160
      01000469H   LINE      CODE     ---       #161
      01000476H   LINE      CODE     ---       #162
      01000476H   LINE      CODE     ---       #163
      01000478H   LINE      CODE     ---       #165
      01000478H   LINE      CODE     ---       #166
      01000492H   LINE      CODE     ---       #167
      01000492H   LINE      CODE     ---       #168
      01000498H   LINE      CODE     ---       #169
      0100049AH   LINE      CODE     ---       #171
      0100049AH   LINE      CODE     ---       #172
      010004A4H   LINE      CODE     ---       #173
      010004A4H   LINE      CODE     ---       #174
LX51 LINKER/LOCATER V4.66.30.0                                                        01/29/2020  13:56:08  PAGE 91


      010004B0H   LINE      CODE     ---       #175
      010004BBH   LINE      CODE     ---       #176
      010004BBH   LINE      CODE     ---       #178
      010004C1H   LINE      CODE     ---       #179
      010004C1H   LINE      CODE     ---       #180
      010004C1H   LINE      CODE     ---       #181
      010004C3H   LINE      CODE     ---       #182
      010004C6H   LINE      CODE     ---       #183
      010004D1H   LINE      CODE     ---       #184
      ---         BLOCKEND  ---      ---       LVL=0

      ---         MODULE    ---      ---       PCA
      00000057H   PUBLIC    DATA     WORD      user_timer
      0100130AH   PUBLIC    CODE     ---       PCA0_ISR
      010011E9H   PUBLIC    CODE     ---       _PCA_change_duty_cycle
      01001D3DH   PUBLIC    CODE     ---       PCA_enable_pwm
      01001D4AH   PUBLIC    CODE     ---       PCA_set_initial_polarity
      01001AE8H   PUBLIC    CODE     ---       PCA_initialize_pca
      000000A2H   SFRSYM    DATA     BYTE      SPI0CKR
      00000080H   SFRSYM    DATA     BYTE      P0
      000000D0H.2 SFRSYM    DATA     BIT       PSW_OV
      00000090H   SFRSYM    DATA     BYTE      P1
      00000097H   SFRSYM    DATA     BYTE      WDTCN
      000000A0H   SFRSYM    DATA     BYTE      P2
      000000BCH   SFRSYM    DATA     BYTE      ADC0CF
      000000C8H   SFRSYM    DATA     BIT       TMR2CN0_T2XCLK
      000000C0H.7 SFRSYM    DATA     BIT       SMB0CN0_MASTER
      000000F9H   SFRSYM    DATA     WORD      PCA0
      000000E6H   SFRSYM    DATA     BYTE      EIE1
      000000C0H.1 SFRSYM    DATA     BIT       SMB0CN0_ACK
      0000008FH   SFRSYM    DATA     BYTE      PSCTL
      000000E4H   SFRSYM    DATA     BYTE      IT01CF
      000000C0H.6 SFRSYM    DATA     BIT       SMB0CN0_TXMODE
      000000ADH   SFRSYM    DATA     BYTE      DERIVID
      000000A4H   SFRSYM    DATA     BYTE      P0MDOUT
      000000A5H   SFRSYM    DATA     BYTE      P1MDOUT
      000000E8H.5 SFRSYM    DATA     BIT       ADC0CN0_ADINT
      000000CBH   SFRSYM    DATA     BYTE      TMR2RLH
      000000A6H   SFRSYM    DATA     BYTE      P2MDOUT
      000000A8H   SFRSYM    DATA     BYTE      IE
      00000093H   SFRSYM    DATA     BYTE      TMR3RLH
      000000F3H   SFRSYM    DATA     BYTE      EIP1
      00000098H.2 SFRSYM    DATA     BIT       SCON0_RB8
      000000CAH   SFRSYM    DATA     BYTE      TMR2RLL
      000000FCH   SFRSYM    DATA     BYTE      PCA0CPH0
      00000092H   SFRSYM    DATA     BYTE      TMR3RLL
      000000EAH   SFRSYM    DATA     BYTE      PCA0CPH1
      00000098H.3 SFRSYM    DATA     BIT       SCON0_TB8
      000000F0H   SFRSYM    DATA     BIT       B_B0
      00000082H   SFRSYM    DATA     WORD      DP
      000000ECH   SFRSYM    DATA     BYTE      PCA0CPH2
      000000A0H.1 SFRSYM    DATA     BIT       BTN0
      000000F0H.1 SFRSYM    DATA     BIT       B_B1
      000000C3H   SFRSYM    DATA     WORD      ADC0GT
      00000090H.1 SFRSYM    DATA     BIT       BTN1
      000000F0H.2 SFRSYM    DATA     BIT       B_B2
      000000FBH   SFRSYM    DATA     BYTE      PCA0CPL0
      000000F0H.3 SFRSYM    DATA     BIT       B_B3
      000000D9H   SFRSYM    DATA     BYTE      PCA0MD
      000000DAH   SFRSYM    DATA     BYTE      PCA0CPM0
      000000E9H   SFRSYM    DATA     BYTE      PCA0CPL1
      000000F0H.4 SFRSYM    DATA     BIT       B_B4
LX51 LINKER/LOCATER V4.66.30.0                                                        01/29/2020  13:56:08  PAGE 92


      000000DBH   SFRSYM    DATA     BYTE      PCA0CPM1
      000000EBH   SFRSYM    DATA     BYTE      PCA0CPL2
      000000F0H.5 SFRSYM    DATA     BIT       B_B5
      000000DCH   SFRSYM    DATA     BYTE      PCA0CPM2
      000000B8H   SFRSYM    DATA     BYTE      IP
      000000B9H   SFRSYM    DATA     BYTE      ADC0TK
      000000F0H.6 SFRSYM    DATA     BIT       B_B6
      000000C5H   SFRSYM    DATA     WORD      ADC0LT
      00000098H.5 SFRSYM    DATA     BIT       SCON0_MCE
      000000F0H.7 SFRSYM    DATA     BIT       B_B7
      000000E1H   SFRSYM    DATA     BYTE      XBR0
      000000C1H   SFRSYM    DATA     BYTE      SMB0CF
      000000E2H   SFRSYM    DATA     BYTE      XBR1
      000000C0H.5 SFRSYM    DATA     BIT       SMB0CN0_STA
      000000E3H   SFRSYM    DATA     BYTE      XBR2
      000000BBH   SFRSYM    DATA     BYTE      ADC0MX
      000000E0H   SFRSYM    DATA     BIT       ACC_ACC0
      000000D1H   SFRSYM    DATA     BYTE      REF0CN
      0000008EH   SFRSYM    DATA     BYTE      CKCON0
      000000E0H.1 SFRSYM    DATA     BIT       ACC_ACC1
      000000C9H   SFRSYM    DATA     BYTE      REG0CN
      000000DDH   SFRSYM    DATA     BYTE      CRC0IN
      000000C8H.2 SFRSYM    DATA     BIT       TMR2CN0_TR2
      000000E0H.2 SFRSYM    DATA     BIT       ACC_ACC2
      000000E0H.3 SFRSYM    DATA     BIT       ACC_ACC3
      00000081H   SFRSYM    DATA     BYTE      SP
      0000009DH   SFRSYM    DATA     BYTE      CMP0MD
      000000E0H.4 SFRSYM    DATA     BIT       ACC_ACC4
      000000B1H   SFRSYM    DATA     BYTE      LFO0CN
      000000ABH   SFRSYM    DATA     BYTE      CMP1MD
      000000D8H   SFRSYM    DATA     BIT       PCA0CN0_CCF0
      000000E0H.5 SFRSYM    DATA     BIT       ACC_ACC5
      000000D8H.1 SFRSYM    DATA     BIT       PCA0CN0_CCF1
      000000E0H.6 SFRSYM    DATA     BIT       ACC_ACC6
      000000CCH   SFRSYM    DATA     WORD      TMR2
      000000D8H.2 SFRSYM    DATA     BIT       PCA0CN0_CCF2
      000000E0H.7 SFRSYM    DATA     BIT       ACC_ACC7
      00000094H   SFRSYM    DATA     WORD      TMR3
      000000C0H.3 SFRSYM    DATA     BIT       SMB0CN0_ACKRQ
      000000FFH   SFRSYM    DATA     BYTE      VDM0CN
      000000F1H   SFRSYM    DATA     BYTE      P0MDIN
      00000098H.4 SFRSYM    DATA     BIT       SCON0_REN
      000000ACH   SFRSYM    DATA     BYTE      SMB0TC
      000000F2H   SFRSYM    DATA     BYTE      P1MDIN
      000000C0H.4 SFRSYM    DATA     BIT       SMB0CN0_STO
      000000FEH   SFRSYM    DATA     BYTE      P0MASK
      000000EEH   SFRSYM    DATA     BYTE      P1MASK
      000000D0H.3 SFRSYM    DATA     BIT       PSW_RS0
      000000D8H.7 SFRSYM    DATA     BIT       PCA0CN0_CF
      0000009EH   SFRSYM    DATA     BYTE      PCA0CENT
      000000F8H.4 SFRSYM    DATA     BIT       SPI0CN0_RXOVRN
      000000D0H.4 SFRSYM    DATA     BIT       PSW_RS1
      000000E8H.7 SFRSYM    DATA     BIT       ADC0CN0_ADEN
      00000089H   SFRSYM    DATA     BYTE      TMOD
      00000088H   SFRSYM    DATA     BYTE      TCON
      000000CFH   SFRSYM    DATA     BYTE      CRC0FLIP
      000000D0H   SFRSYM    DATA     BIT       PSW_PARITY
      000000A8H.4 SFRSYM    DATA     BIT       IE_ES0
      0000009FH   SFRSYM    DATA     BYTE      CMP0MX
      000000A8H.1 SFRSYM    DATA     BIT       IE_ET0
      000000AAH   SFRSYM    DATA     BYTE      CMP1MX
      000000A8H.3 SFRSYM    DATA     BIT       IE_ET1
LX51 LINKER/LOCATER V4.66.30.0                                                        01/29/2020  13:56:08  PAGE 93


      000000D4H   SFRSYM    DATA     BYTE      P0SKIP
      000000A8H.5 SFRSYM    DATA     BIT       IE_ET2
      000000D5H   SFRSYM    DATA     BYTE      P1SKIP
      000000E8H   SFRSYM    DATA     BYTE      ADC0CN0
      000000A8H   SFRSYM    DATA     BIT       IE_EX0
      000000B2H   SFRSYM    DATA     BYTE      ADC0CN1
      000000D8H.6 SFRSYM    DATA     BIT       PCA0CN0_CR
      000000A8H.2 SFRSYM    DATA     BIT       IE_EX1
      00000098H.7 SFRSYM    DATA     BIT       SCON0_SMODE
      000000B5H   SFRSYM    DATA     BYTE      DEVICEID
      000000A9H   SFRSYM    DATA     BYTE      CLKSEL
      000000F8H   SFRSYM    DATA     BIT       SPI0CN0_SPIEN
      000000F0H   SFRSYM    DATA     BYTE      B
      000000BEH   SFRSYM    DATA     BYTE      ADC0H
      000000D2H   SFRSYM    DATA     BYTE      CRC0AUTO
      000000E8H.6 SFRSYM    DATA     BIT       ADC0CN0_ADBMEN
      000000CAH   SFRSYM    DATA     WORD      TMR2RL
      000000BDH   SFRSYM    DATA     BYTE      ADC0L
      00000092H   SFRSYM    DATA     WORD      TMR3RL
      000000D8H   SFRSYM    DATA     BYTE      PCA0CN0
      000000E0H   SFRSYM    DATA     BYTE      ACC
      000000FBH   SFRSYM    DATA     WORD      PCA0CP0
      000000E9H   SFRSYM    DATA     WORD      PCA0CP1
      000000EBH   SFRSYM    DATA     WORD      PCA0CP2
      000000CEH   SFRSYM    DATA     BYTE      CRC0CN0
      00000090H.4 SFRSYM    DATA     BIT       BSP_LED0
      0000008CH   SFRSYM    DATA     BYTE      TH0
      000000B8H.4 SFRSYM    DATA     BIT       IP_PS0
      0000008DH   SFRSYM    DATA     BYTE      TH1
      000000FAH   SFRSYM    DATA     BYTE      PCA0H
      000000B8H.1 SFRSYM    DATA     BIT       IP_PT0
      000000B8H.3 SFRSYM    DATA     BIT       IP_PT1
      000000C0H.2 SFRSYM    DATA     BIT       SMB0CN0_ARBLOST
      000000B8H.5 SFRSYM    DATA     BIT       IP_PT2
      0000008AH   SFRSYM    DATA     BYTE      TL0
      000000F8H.1 SFRSYM    DATA     BIT       SPI0CN0_TXBMT
      000000D0H.5 SFRSYM    DATA     BIT       PSW_F0
      000000A8H.6 SFRSYM    DATA     BIT       IE_ESPI0
      0000008BH   SFRSYM    DATA     BYTE      TL1
      000000F9H   SFRSYM    DATA     BYTE      PCA0L
      000000C0H   SFRSYM    DATA     BIT       SMB0CN0_SI
      000000D0H.1 SFRSYM    DATA     BIT       PSW_F1
      00000080H   SFRSYM    DATA     BIT       P0_B0
      000000B8H   SFRSYM    DATA     BIT       IP_PX0
      00000090H   SFRSYM    DATA     BIT       P1_B0
      00000080H.1 SFRSYM    DATA     BIT       P0_B1
      000000B8H.2 SFRSYM    DATA     BIT       IP_PX1
      0000009BH   SFRSYM    DATA     BYTE      CMP0CN0
      00000088H.1 SFRSYM    DATA     BIT       TCON_IE0
      000000A0H   SFRSYM    DATA     BIT       P2_B0
      00000090H.1 SFRSYM    DATA     BIT       P1_B1
      00000080H.2 SFRSYM    DATA     BIT       P0_B2
      000000BFH   SFRSYM    DATA     BYTE      CMP1CN0
      00000088H.3 SFRSYM    DATA     BIT       TCON_IE1
      000000A0H.1 SFRSYM    DATA     BIT       P2_B1
      00000090H.2 SFRSYM    DATA     BIT       P1_B2
      00000080H.3 SFRSYM    DATA     BIT       P0_B3
      000000C0H   SFRSYM    DATA     BYTE      SMB0CN0
      00000090H.3 SFRSYM    DATA     BIT       P1_B3
      00000080H.4 SFRSYM    DATA     BIT       P0_B4
      00000090H.4 SFRSYM    DATA     BIT       P1_B4
      00000080H.5 SFRSYM    DATA     BIT       P0_B5
LX51 LINKER/LOCATER V4.66.30.0                                                        01/29/2020  13:56:08  PAGE 94


      00000090H.5 SFRSYM    DATA     BIT       P1_B5
      00000080H.6 SFRSYM    DATA     BIT       P0_B6
      00000090H.6 SFRSYM    DATA     BIT       P1_B6
      00000080H.7 SFRSYM    DATA     BIT       P0_B7
      00000090H.7 SFRSYM    DATA     BIT       P1_B7
      00000080H.2 SFRSYM    DATA     BIT       BSP_BTN0
      00000083H   SFRSYM    DATA     BYTE      DPH
      000000C4H   SFRSYM    DATA     BYTE      ADC0GTH
      000000C8H.7 SFRSYM    DATA     BIT       TMR2CN0_TF2H
      000000C8H.3 SFRSYM    DATA     BIT       TMR2CN0_T2SPLIT
      000000D0H.6 SFRSYM    DATA     BIT       PSW_AC
      000000F8H   SFRSYM    DATA     BYTE      SPI0CN0
      000000C7H   SFRSYM    DATA     BYTE      HFO0CAL
      00000088H.5 SFRSYM    DATA     BIT       TCON_TF0
      00000098H   SFRSYM    DATA     BIT       SCON0_RI
      00000082H   SFRSYM    DATA     BYTE      DPL
      00000088H.7 SFRSYM    DATA     BIT       TCON_TF1
      00000099H   SFRSYM    DATA     BYTE      SBUF0
      00000087H   SFRSYM    DATA     BYTE      PCON0
      000000C3H   SFRSYM    DATA     BYTE      ADC0GTL
      000000C8H.6 SFRSYM    DATA     BIT       TMR2CN0_TF2L
      00000098H.1 SFRSYM    DATA     BIT       SCON0_TI
      000000E8H   SFRSYM    DATA     BIT       ADC0CN0_ADCM0
      000000C6H   SFRSYM    DATA     BYTE      ADC0LTH
      00000088H   SFRSYM    DATA     BIT       TCON_IT0
      000000E8H.1 SFRSYM    DATA     BIT       ADC0CN0_ADCM1
      000000EFH   SFRSYM    DATA     BYTE      RSTSRC
      000000FDH   SFRSYM    DATA     BYTE      P0MAT
      000000DEH   SFRSYM    DATA     BYTE      CRC0DAT
      00000088H.2 SFRSYM    DATA     BIT       TCON_IT1
      000000E8H.2 SFRSYM    DATA     BIT       ADC0CN0_ADCM2
      00000098H   SFRSYM    DATA     BYTE      SCON0
      000000F6H   SFRSYM    DATA     BYTE      PRTDRV
      000000EDH   SFRSYM    DATA     BYTE      P1MAT
      000000E8H.3 SFRSYM    DATA     BIT       ADC0CN0_ADWINT
      000000E8H.4 SFRSYM    DATA     BIT       ADC0CN0_ADBUSY
      000000D6H   SFRSYM    DATA     BYTE      SMB0ADM
      000000C5H   SFRSYM    DATA     BYTE      ADC0LTL
      000000F8H.5 SFRSYM    DATA     BIT       SPI0CN0_MODF
      000000B8H.6 SFRSYM    DATA     BIT       IP_PSPI0
      0000009CH   SFRSYM    DATA     BYTE      PCA0CLR
      000000C8H   SFRSYM    DATA     BYTE      TMR2CN0
      00000091H   SFRSYM    DATA     BYTE      TMR3CN0
      000000D7H   SFRSYM    DATA     BYTE      SMB0ADR
      00000088H.4 SFRSYM    DATA     BIT       TCON_TR0
      000000C8H.4 SFRSYM    DATA     BIT       TMR2CN0_TF2CEN
      00000088H.6 SFRSYM    DATA     BIT       TCON_TR1
      000000C2H   SFRSYM    DATA     BYTE      SMB0DAT
      000000CDH   SFRSYM    DATA     BYTE      TMR2H
      000000A1H   SFRSYM    DATA     BYTE      SPI0CFG
      00000095H   SFRSYM    DATA     BYTE      TMR3H
      000000D3H   SFRSYM    DATA     BYTE      CRC0CNT
      00000096H   SFRSYM    DATA     BYTE      PCA0POL
      000000CCH   SFRSYM    DATA     BYTE      TMR2L
      000000F8H.7 SFRSYM    DATA     BIT       SPI0CN0_SPIF
      00000094H   SFRSYM    DATA     BYTE      TMR3L
      000000DFH   SFRSYM    DATA     BYTE      ADC0PWR
      000000A8H.7 SFRSYM    DATA     BIT       IE_EA
      000000C8H.5 SFRSYM    DATA     BIT       TMR2CN0_TF2LEN
      000000F8H.6 SFRSYM    DATA     BIT       SPI0CN0_WCOL
      000000F8H.2 SFRSYM    DATA     BIT       SPI0CN0_NSSMD0
      000000D0H.7 SFRSYM    DATA     BIT       PSW_CY
LX51 LINKER/LOCATER V4.66.30.0                                                        01/29/2020  13:56:08  PAGE 95


      000000A3H   SFRSYM    DATA     BYTE      SPI0DAT
      000000F8H.3 SFRSYM    DATA     BIT       SPI0CN0_NSSMD1
      000000BDH   SFRSYM    DATA     WORD      ADC0
      000000D0H   SFRSYM    DATA     BYTE      PSW
      000000F7H   SFRSYM    DATA     BYTE      PCA0PWM
      000000B6H   SFRSYM    DATA     BYTE      REVID
      000000B7H   SFRSYM    DATA     BYTE      FLKEY
      000000B3H   SFRSYM    DATA     BYTE      ADC0AC
      00000054H   SYMBOL    DATA     BYTE      new_polarity
      00000055H   SYMBOL    DATA     ---       new_cpblank_duty
      00000059H   SYMBOL    DATA     WORD      prev_duty
      0000005BH   SYMBOL    DATA     ---       new_duty

      01001AE8H   BLOCK     CODE     ---       LVL=0
      01001AE8H   LINE      CODE     ---       #64
      01001AE8H   LINE      CODE     ---       #65
      01001AE8H   LINE      CODE     ---       #68
      01001AEBH   LINE      CODE     ---       #72
      01001AEEH   LINE      CODE     ---       #75
      01001AF1H   LINE      CODE     ---       #76
      01001AF4H   LINE      CODE     ---       #79
      01001AF7H   LINE      CODE     ---       #90
      01001AFAH   LINE      CODE     ---       #95
      01001AFDH   LINE      CODE     ---       #96
      01001AFFH   LINE      CODE     ---       #97
      01001B01H   LINE      CODE     ---       #99
      01001B03H   LINE      CODE     ---       #100
      01001B05H   LINE      CODE     ---       #102
      01001B08H   LINE      CODE     ---       #105
      01001B0BH   LINE      CODE     ---       #106
      01001B0FH   LINE      CODE     ---       #107
      ---         BLOCKEND  ---      ---       LVL=0

      01001D4AH   BLOCK     CODE     ---       LVL=0
      01001D4AH   LINE      CODE     ---       #118
      01001D4AH   LINE      CODE     ---       #119
      01001D4AH   LINE      CODE     ---       #120
      01001D4DH   LINE      CODE     ---       #121
      ---         BLOCKEND  ---      ---       LVL=0

      01001D3DH   BLOCK     CODE     ---       LVL=0
      01001D3DH   LINE      CODE     ---       #131
      01001D3DH   LINE      CODE     ---       #132
      01001D3DH   LINE      CODE     ---       #134
      01001D40H   LINE      CODE     ---       #135
      01001D43H   LINE      CODE     ---       #136
      ---         BLOCKEND  ---      ---       LVL=0

      010011E9H   BLOCK     CODE     ---       LVL=0
      00000002H   SYMBOL    DATA     WORD      duty
      010011EDH   BLOCK     CODE     NEAR LAB  LVL=1
      00000021H.6 SYMBOL    BIT      BIT       saved_ea
      00000004H   SYMBOL    DATA     WORD      ringing
      00000022H.7 SYMBOL    BIT      BIT       enable_during_pwmon
      00000001H   SYMBOL    DATA     BYTE      x_new_polarity
      00000062H   SYMBOL    DATA     ---       x_new_cpblank_duty
      ---         BLOCKEND  ---      ---       LVL=1
      010011E9H   LINE      CODE     ---       #174
      010011EDH   LINE      CODE     ---       #175
      010011EDH   LINE      CODE     ---       #183
      010011FAH   LINE      CODE     ---       #184
      01001203H   LINE      CODE     ---       #185
LX51 LINKER/LOCATER V4.66.30.0                                                        01/29/2020  13:56:08  PAGE 96


      01001203H   LINE      CODE     ---       #187
      01001203H   LINE      CODE     ---       #188
      01001207H   LINE      CODE     ---       #192
      0100121CH   LINE      CODE     ---       #193
      0100121CH   LINE      CODE     ---       #194
      0100121EH   LINE      CODE     ---       #195
      01001227H   LINE      CODE     ---       #196
      01001236H   LINE      CODE     ---       #197
      0100123FH   LINE      CODE     ---       #198
      01001241H   LINE      CODE     ---       #199
      01001243H   LINE      CODE     ---       #201
      01001243H   LINE      CODE     ---       #202
      01001245H   LINE      CODE     ---       #206
      01001257H   LINE      CODE     ---       #207
      0100125FH   LINE      CODE     ---       #208
      01001261H   LINE      CODE     ---       #209
      01001261H   LINE      CODE     ---       #211
      01001267H   LINE      CODE     ---       #212
      01001269H   LINE      CODE     ---       #213
      0100126FH   LINE      CODE     ---       #214
      01001273H   LINE      CODE     ---       #215
      01001277H   LINE      CODE     ---       #219
      0100127AH   LINE      CODE     ---       #220
      ---         BLOCKEND  ---      ---       LVL=0

      0100130AH   BLOCK     CODE     ---       LVL=0
      01001317H   BLOCK     CODE     NEAR LAB  LVL=1
      00000052H   SYMBOL    DATA     ---       xpca_count
      ---         BLOCKEND  ---      ---       LVL=1
      0100130AH   LINE      CODE     ---       #236
      01001317H   LINE      CODE     ---       #240
      0100131FH   LINE      CODE     ---       #241
      0100131FH   LINE      CODE     ---       #246
      01001322H   LINE      CODE     ---       #248
      01001324H   LINE      CODE     ---       #249
      01001327H   LINE      CODE     ---       #250
      01001329H   LINE      CODE     ---       #251
      0100132BH   LINE      CODE     ---       #253
      0100132EH   LINE      CODE     ---       #255
      01001331H   LINE      CODE     ---       #257
      01001334H   LINE      CODE     ---       #258
      01001337H   LINE      CODE     ---       #259
      0100133AH   LINE      CODE     ---       #261
      0100133DH   LINE      CODE     ---       #262
      0100133DH   LINE      CODE     ---       #263
      01001340H   LINE      CODE     ---       #264
      01001343H   LINE      CODE     ---       #271
      0100134EH   LINE      CODE     ---       #272
      01001351H   LINE      CODE     ---       #273
      01001354H   LINE      CODE     ---       #274
      01001354H   LINE      CODE     ---       #276
      01001357H   LINE      CODE     ---       #277
      01001357H   LINE      CODE     ---       #278
      0100135AH   LINE      CODE     ---       #279
      0100135DH   LINE      CODE     ---       #286
      01001368H   LINE      CODE     ---       #287
      0100136BH   LINE      CODE     ---       #288
      0100136EH   LINE      CODE     ---       #289
      0100136EH   LINE      CODE     ---       #290
      01001370H   LINE      CODE     ---       #292
      01001372H   LINE      CODE     ---       #293
      01001372H   LINE      CODE     ---       #295
LX51 LINKER/LOCATER V4.66.30.0                                                        01/29/2020  13:56:08  PAGE 97


      01001375H   LINE      CODE     ---       #296
      01001375H   LINE      CODE     ---       #299
      01001377H   LINE      CODE     ---       #300
      01001379H   LINE      CODE     ---       #301
      01001381H   LINE      CODE     ---       #302
      01001383H   LINE      CODE     ---       #304
      0100138BH   LINE      CODE     ---       #305
      0100138BH   LINE      CODE     ---       #306
      0100138DH   LINE      CODE     ---       #307
      0100138DH   LINE      CODE     ---       #308
      0100138DH   LINE      CODE     ---       #309
      ---         BLOCKEND  ---      ---       LVL=0

      ---         MODULE    ---      ---       TIMERS
      0000006FH   PUBLIC    DATA     ---       timer0_next
      0000006EH   PUBLIC    DATA     BYTE      timer0_state
      0000006DH   PUBLIC    DATA     BYTE      repeated_timer0
      01001B37H   PUBLIC    CODE     ---       _TMR_delay_timer3
      01001CBDH   PUBLIC    CODE     ---       TMR_init_timer3
      01001CE0H   PUBLIC    CODE     ---       TMR_init_timer0
      000000A2H   SFRSYM    DATA     BYTE      SPI0CKR
      00000080H   SFRSYM    DATA     BYTE      P0
      000000D0H.2 SFRSYM    DATA     BIT       PSW_OV
      00000090H   SFRSYM    DATA     BYTE      P1
      00000097H   SFRSYM    DATA     BYTE      WDTCN
      000000A0H   SFRSYM    DATA     BYTE      P2
      000000BCH   SFRSYM    DATA     BYTE      ADC0CF
      000000C8H   SFRSYM    DATA     BIT       TMR2CN0_T2XCLK
      000000C0H.7 SFRSYM    DATA     BIT       SMB0CN0_MASTER
      000000F9H   SFRSYM    DATA     WORD      PCA0
      000000E6H   SFRSYM    DATA     BYTE      EIE1
      000000C0H.1 SFRSYM    DATA     BIT       SMB0CN0_ACK
      0000008FH   SFRSYM    DATA     BYTE      PSCTL
      000000E4H   SFRSYM    DATA     BYTE      IT01CF
      000000C0H.6 SFRSYM    DATA     BIT       SMB0CN0_TXMODE
      000000ADH   SFRSYM    DATA     BYTE      DERIVID
      000000A4H   SFRSYM    DATA     BYTE      P0MDOUT
      000000A5H   SFRSYM    DATA     BYTE      P1MDOUT
      000000E8H.5 SFRSYM    DATA     BIT       ADC0CN0_ADINT
      000000CBH   SFRSYM    DATA     BYTE      TMR2RLH
      000000A6H   SFRSYM    DATA     BYTE      P2MDOUT
      000000A8H   SFRSYM    DATA     BYTE      IE
      00000093H   SFRSYM    DATA     BYTE      TMR3RLH
      000000F3H   SFRSYM    DATA     BYTE      EIP1
      00000098H.2 SFRSYM    DATA     BIT       SCON0_RB8
      000000CAH   SFRSYM    DATA     BYTE      TMR2RLL
      000000FCH   SFRSYM    DATA     BYTE      PCA0CPH0
      00000092H   SFRSYM    DATA     BYTE      TMR3RLL
      000000EAH   SFRSYM    DATA     BYTE      PCA0CPH1
      00000098H.3 SFRSYM    DATA     BIT       SCON0_TB8
      000000F0H   SFRSYM    DATA     BIT       B_B0
      00000082H   SFRSYM    DATA     WORD      DP
      000000ECH   SFRSYM    DATA     BYTE      PCA0CPH2
      000000A0H.1 SFRSYM    DATA     BIT       BTN0
      000000F0H.1 SFRSYM    DATA     BIT       B_B1
      000000C3H   SFRSYM    DATA     WORD      ADC0GT
      00000090H.1 SFRSYM    DATA     BIT       BTN1
      000000F0H.2 SFRSYM    DATA     BIT       B_B2
      000000FBH   SFRSYM    DATA     BYTE      PCA0CPL0
      000000F0H.3 SFRSYM    DATA     BIT       B_B3
      000000D9H   SFRSYM    DATA     BYTE      PCA0MD
      000000DAH   SFRSYM    DATA     BYTE      PCA0CPM0
LX51 LINKER/LOCATER V4.66.30.0                                                        01/29/2020  13:56:08  PAGE 98


      000000E9H   SFRSYM    DATA     BYTE      PCA0CPL1
      000000F0H.4 SFRSYM    DATA     BIT       B_B4
      000000DBH   SFRSYM    DATA     BYTE      PCA0CPM1
      000000EBH   SFRSYM    DATA     BYTE      PCA0CPL2
      000000F0H.5 SFRSYM    DATA     BIT       B_B5
      000000DCH   SFRSYM    DATA     BYTE      PCA0CPM2
      000000B8H   SFRSYM    DATA     BYTE      IP
      000000B9H   SFRSYM    DATA     BYTE      ADC0TK
      000000F0H.6 SFRSYM    DATA     BIT       B_B6
      000000C5H   SFRSYM    DATA     WORD      ADC0LT
      00000098H.5 SFRSYM    DATA     BIT       SCON0_MCE
      000000F0H.7 SFRSYM    DATA     BIT       B_B7
      000000E1H   SFRSYM    DATA     BYTE      XBR0
      000000C1H   SFRSYM    DATA     BYTE      SMB0CF
      000000E2H   SFRSYM    DATA     BYTE      XBR1
      000000C0H.5 SFRSYM    DATA     BIT       SMB0CN0_STA
      000000E3H   SFRSYM    DATA     BYTE      XBR2
      000000BBH   SFRSYM    DATA     BYTE      ADC0MX
      000000E0H   SFRSYM    DATA     BIT       ACC_ACC0
      000000D1H   SFRSYM    DATA     BYTE      REF0CN
      0000008EH   SFRSYM    DATA     BYTE      CKCON0
      000000E0H.1 SFRSYM    DATA     BIT       ACC_ACC1
      000000C9H   SFRSYM    DATA     BYTE      REG0CN
      000000DDH   SFRSYM    DATA     BYTE      CRC0IN
      000000C8H.2 SFRSYM    DATA     BIT       TMR2CN0_TR2
      000000E0H.2 SFRSYM    DATA     BIT       ACC_ACC2
      000000E0H.3 SFRSYM    DATA     BIT       ACC_ACC3
      00000081H   SFRSYM    DATA     BYTE      SP
      0000009DH   SFRSYM    DATA     BYTE      CMP0MD
      000000E0H.4 SFRSYM    DATA     BIT       ACC_ACC4
      000000B1H   SFRSYM    DATA     BYTE      LFO0CN
      000000ABH   SFRSYM    DATA     BYTE      CMP1MD
      000000D8H   SFRSYM    DATA     BIT       PCA0CN0_CCF0
      000000E0H.5 SFRSYM    DATA     BIT       ACC_ACC5
      000000D8H.1 SFRSYM    DATA     BIT       PCA0CN0_CCF1
      000000E0H.6 SFRSYM    DATA     BIT       ACC_ACC6
      000000CCH   SFRSYM    DATA     WORD      TMR2
      000000D8H.2 SFRSYM    DATA     BIT       PCA0CN0_CCF2
      000000E0H.7 SFRSYM    DATA     BIT       ACC_ACC7
      00000094H   SFRSYM    DATA     WORD      TMR3
      000000C0H.3 SFRSYM    DATA     BIT       SMB0CN0_ACKRQ
      000000FFH   SFRSYM    DATA     BYTE      VDM0CN
      000000F1H   SFRSYM    DATA     BYTE      P0MDIN
      00000098H.4 SFRSYM    DATA     BIT       SCON0_REN
      000000ACH   SFRSYM    DATA     BYTE      SMB0TC
      000000F2H   SFRSYM    DATA     BYTE      P1MDIN
      000000C0H.4 SFRSYM    DATA     BIT       SMB0CN0_STO
      000000FEH   SFRSYM    DATA     BYTE      P0MASK
      000000EEH   SFRSYM    DATA     BYTE      P1MASK
      000000D0H.3 SFRSYM    DATA     BIT       PSW_RS0
      000000D8H.7 SFRSYM    DATA     BIT       PCA0CN0_CF
      0000009EH   SFRSYM    DATA     BYTE      PCA0CENT
      000000F8H.4 SFRSYM    DATA     BIT       SPI0CN0_RXOVRN
      000000D0H.4 SFRSYM    DATA     BIT       PSW_RS1
      000000E8H.7 SFRSYM    DATA     BIT       ADC0CN0_ADEN
      00000089H   SFRSYM    DATA     BYTE      TMOD
      00000088H   SFRSYM    DATA     BYTE      TCON
      000000CFH   SFRSYM    DATA     BYTE      CRC0FLIP
      000000D0H   SFRSYM    DATA     BIT       PSW_PARITY
      000000A8H.4 SFRSYM    DATA     BIT       IE_ES0
      0000009FH   SFRSYM    DATA     BYTE      CMP0MX
      000000A8H.1 SFRSYM    DATA     BIT       IE_ET0
LX51 LINKER/LOCATER V4.66.30.0                                                        01/29/2020  13:56:08  PAGE 99


      000000AAH   SFRSYM    DATA     BYTE      CMP1MX
      000000A8H.3 SFRSYM    DATA     BIT       IE_ET1
      000000D4H   SFRSYM    DATA     BYTE      P0SKIP
      000000A8H.5 SFRSYM    DATA     BIT       IE_ET2
      000000D5H   SFRSYM    DATA     BYTE      P1SKIP
      000000E8H   SFRSYM    DATA     BYTE      ADC0CN0
      000000A8H   SFRSYM    DATA     BIT       IE_EX0
      000000B2H   SFRSYM    DATA     BYTE      ADC0CN1
      000000D8H.6 SFRSYM    DATA     BIT       PCA0CN0_CR
      000000A8H.2 SFRSYM    DATA     BIT       IE_EX1
      00000098H.7 SFRSYM    DATA     BIT       SCON0_SMODE
      000000B5H   SFRSYM    DATA     BYTE      DEVICEID
      000000A9H   SFRSYM    DATA     BYTE      CLKSEL
      000000F8H   SFRSYM    DATA     BIT       SPI0CN0_SPIEN
      000000F0H   SFRSYM    DATA     BYTE      B
      000000BEH   SFRSYM    DATA     BYTE      ADC0H
      000000D2H   SFRSYM    DATA     BYTE      CRC0AUTO
      000000E8H.6 SFRSYM    DATA     BIT       ADC0CN0_ADBMEN
      000000CAH   SFRSYM    DATA     WORD      TMR2RL
      000000BDH   SFRSYM    DATA     BYTE      ADC0L
      00000092H   SFRSYM    DATA     WORD      TMR3RL
      000000D8H   SFRSYM    DATA     BYTE      PCA0CN0
      000000E0H   SFRSYM    DATA     BYTE      ACC
      000000FBH   SFRSYM    DATA     WORD      PCA0CP0
      000000E9H   SFRSYM    DATA     WORD      PCA0CP1
      000000EBH   SFRSYM    DATA     WORD      PCA0CP2
      000000CEH   SFRSYM    DATA     BYTE      CRC0CN0
      00000090H.4 SFRSYM    DATA     BIT       BSP_LED0
      0000008CH   SFRSYM    DATA     BYTE      TH0
      000000B8H.4 SFRSYM    DATA     BIT       IP_PS0
      0000008DH   SFRSYM    DATA     BYTE      TH1
      000000FAH   SFRSYM    DATA     BYTE      PCA0H
      000000B8H.1 SFRSYM    DATA     BIT       IP_PT0
      000000B8H.3 SFRSYM    DATA     BIT       IP_PT1
      000000C0H.2 SFRSYM    DATA     BIT       SMB0CN0_ARBLOST
      000000B8H.5 SFRSYM    DATA     BIT       IP_PT2
      0000008AH   SFRSYM    DATA     BYTE      TL0
      000000F8H.1 SFRSYM    DATA     BIT       SPI0CN0_TXBMT
      000000D0H.5 SFRSYM    DATA     BIT       PSW_F0
      000000A8H.6 SFRSYM    DATA     BIT       IE_ESPI0
      0000008BH   SFRSYM    DATA     BYTE      TL1
      000000F9H   SFRSYM    DATA     BYTE      PCA0L
      000000C0H   SFRSYM    DATA     BIT       SMB0CN0_SI
      000000D0H.1 SFRSYM    DATA     BIT       PSW_F1
      00000080H   SFRSYM    DATA     BIT       P0_B0
      000000B8H   SFRSYM    DATA     BIT       IP_PX0
      00000090H   SFRSYM    DATA     BIT       P1_B0
      00000080H.1 SFRSYM    DATA     BIT       P0_B1
      000000B8H.2 SFRSYM    DATA     BIT       IP_PX1
      0000009BH   SFRSYM    DATA     BYTE      CMP0CN0
      00000088H.1 SFRSYM    DATA     BIT       TCON_IE0
      000000A0H   SFRSYM    DATA     BIT       P2_B0
      00000090H.1 SFRSYM    DATA     BIT       P1_B1
      00000080H.2 SFRSYM    DATA     BIT       P0_B2
      000000BFH   SFRSYM    DATA     BYTE      CMP1CN0
      00000088H.3 SFRSYM    DATA     BIT       TCON_IE1
      000000A0H.1 SFRSYM    DATA     BIT       P2_B1
      00000090H.2 SFRSYM    DATA     BIT       P1_B2
      00000080H.3 SFRSYM    DATA     BIT       P0_B3
      000000C0H   SFRSYM    DATA     BYTE      SMB0CN0
      00000090H.3 SFRSYM    DATA     BIT       P1_B3
      00000080H.4 SFRSYM    DATA     BIT       P0_B4
LX51 LINKER/LOCATER V4.66.30.0                                                        01/29/2020  13:56:08  PAGE 100


      00000090H.4 SFRSYM    DATA     BIT       P1_B4
      00000080H.5 SFRSYM    DATA     BIT       P0_B5
      00000090H.5 SFRSYM    DATA     BIT       P1_B5
      00000080H.6 SFRSYM    DATA     BIT       P0_B6
      00000090H.6 SFRSYM    DATA     BIT       P1_B6
      00000080H.7 SFRSYM    DATA     BIT       P0_B7
      00000090H.7 SFRSYM    DATA     BIT       P1_B7
      00000080H.2 SFRSYM    DATA     BIT       BSP_BTN0
      00000083H   SFRSYM    DATA     BYTE      DPH
      000000C4H   SFRSYM    DATA     BYTE      ADC0GTH
      000000C8H.7 SFRSYM    DATA     BIT       TMR2CN0_TF2H
      000000C8H.3 SFRSYM    DATA     BIT       TMR2CN0_T2SPLIT
      000000D0H.6 SFRSYM    DATA     BIT       PSW_AC
      000000F8H   SFRSYM    DATA     BYTE      SPI0CN0
      000000C7H   SFRSYM    DATA     BYTE      HFO0CAL
      00000088H.5 SFRSYM    DATA     BIT       TCON_TF0
      00000098H   SFRSYM    DATA     BIT       SCON0_RI
      00000082H   SFRSYM    DATA     BYTE      DPL
      00000088H.7 SFRSYM    DATA     BIT       TCON_TF1
      00000099H   SFRSYM    DATA     BYTE      SBUF0
      00000087H   SFRSYM    DATA     BYTE      PCON0
      000000C3H   SFRSYM    DATA     BYTE      ADC0GTL
      000000C8H.6 SFRSYM    DATA     BIT       TMR2CN0_TF2L
      00000098H.1 SFRSYM    DATA     BIT       SCON0_TI
      000000E8H   SFRSYM    DATA     BIT       ADC0CN0_ADCM0
      000000C6H   SFRSYM    DATA     BYTE      ADC0LTH
      00000088H   SFRSYM    DATA     BIT       TCON_IT0
      000000E8H.1 SFRSYM    DATA     BIT       ADC0CN0_ADCM1
      000000EFH   SFRSYM    DATA     BYTE      RSTSRC
      000000FDH   SFRSYM    DATA     BYTE      P0MAT
      000000DEH   SFRSYM    DATA     BYTE      CRC0DAT
      00000088H.2 SFRSYM    DATA     BIT       TCON_IT1
      000000E8H.2 SFRSYM    DATA     BIT       ADC0CN0_ADCM2
      00000098H   SFRSYM    DATA     BYTE      SCON0
      000000F6H   SFRSYM    DATA     BYTE      PRTDRV
      000000EDH   SFRSYM    DATA     BYTE      P1MAT
      000000E8H.3 SFRSYM    DATA     BIT       ADC0CN0_ADWINT
      000000E8H.4 SFRSYM    DATA     BIT       ADC0CN0_ADBUSY
      000000D6H   SFRSYM    DATA     BYTE      SMB0ADM
      000000C5H   SFRSYM    DATA     BYTE      ADC0LTL
      000000F8H.5 SFRSYM    DATA     BIT       SPI0CN0_MODF
      000000B8H.6 SFRSYM    DATA     BIT       IP_PSPI0
      0000009CH   SFRSYM    DATA     BYTE      PCA0CLR
      000000C8H   SFRSYM    DATA     BYTE      TMR2CN0
      00000091H   SFRSYM    DATA     BYTE      TMR3CN0
      000000D7H   SFRSYM    DATA     BYTE      SMB0ADR
      00000088H.4 SFRSYM    DATA     BIT       TCON_TR0
      000000C8H.4 SFRSYM    DATA     BIT       TMR2CN0_TF2CEN
      00000088H.6 SFRSYM    DATA     BIT       TCON_TR1
      000000C2H   SFRSYM    DATA     BYTE      SMB0DAT
      000000CDH   SFRSYM    DATA     BYTE      TMR2H
      000000A1H   SFRSYM    DATA     BYTE      SPI0CFG
      00000095H   SFRSYM    DATA     BYTE      TMR3H
      000000D3H   SFRSYM    DATA     BYTE      CRC0CNT
      00000096H   SFRSYM    DATA     BYTE      PCA0POL
      000000CCH   SFRSYM    DATA     BYTE      TMR2L
      000000F8H.7 SFRSYM    DATA     BIT       SPI0CN0_SPIF
      00000094H   SFRSYM    DATA     BYTE      TMR3L
      000000DFH   SFRSYM    DATA     BYTE      ADC0PWR
      000000A8H.7 SFRSYM    DATA     BIT       IE_EA
      000000C8H.5 SFRSYM    DATA     BIT       TMR2CN0_TF2LEN
      000000F8H.6 SFRSYM    DATA     BIT       SPI0CN0_WCOL
LX51 LINKER/LOCATER V4.66.30.0                                                        01/29/2020  13:56:08  PAGE 101


      000000F8H.2 SFRSYM    DATA     BIT       SPI0CN0_NSSMD0
      000000D0H.7 SFRSYM    DATA     BIT       PSW_CY
      000000A3H   SFRSYM    DATA     BYTE      SPI0DAT
      000000F8H.3 SFRSYM    DATA     BIT       SPI0CN0_NSSMD1
      000000BDH   SFRSYM    DATA     WORD      ADC0
      000000D0H   SFRSYM    DATA     BYTE      PSW
      000000F7H   SFRSYM    DATA     BYTE      PCA0PWM
      000000B6H   SFRSYM    DATA     BYTE      REVID
      000000B7H   SFRSYM    DATA     BYTE      FLKEY
      000000B3H   SFRSYM    DATA     BYTE      ADC0AC

      01001CE0H   BLOCK     CODE     ---       LVL=0
      01001CE0H   LINE      CODE     ---       #49
      01001CE0H   LINE      CODE     ---       #50
      01001CE0H   LINE      CODE     ---       #52
      01001CE3H   LINE      CODE     ---       #53
      01001CE6H   LINE      CODE     ---       #54
      01001CE9H   LINE      CODE     ---       #55
      01001CEEH   LINE      CODE     ---       #57
      01001CF0H   LINE      CODE     ---       #58
      ---         BLOCKEND  ---      ---       LVL=0

      01001CBDH   BLOCK     CODE     ---       LVL=0
      01001CBDH   LINE      CODE     ---       #73
      01001CBDH   LINE      CODE     ---       #74
      01001CBDH   LINE      CODE     ---       #76
      01001CC0H   LINE      CODE     ---       #77
      01001CC3H   LINE      CODE     ---       #78
      01001CC6H   LINE      CODE     ---       #81
      01001CC9H   LINE      CODE     ---       #83
      01001CCCH   LINE      CODE     ---       #84
      01001CCEH   LINE      CODE     ---       #85
      ---         BLOCKEND  ---      ---       LVL=0

      01001B37H   BLOCK     CODE     ---       LVL=0
      00000007H   SYMBOL    DATA     BYTE      delay_ms
      01001B37H   LINE      CODE     ---       #98
      01001B37H   LINE      CODE     ---       #99
      01001B37H   LINE      CODE     ---       #101
      01001B3AH   LINE      CODE     ---       #103
      01001B3DH   LINE      CODE     ---       #104
      01001B40H   LINE      CODE     ---       #106
      01001B46H   LINE      CODE     ---       #107
      01001B49H   LINE      CODE     ---       #108
      01001B4FH   LINE      CODE     ---       #109
      01001B4FH   LINE      CODE     ---       #110
      01001B54H   LINE      CODE     ---       #111
      01001B57H   LINE      CODE     ---       #112
      01001B5AH   LINE      CODE     ---       #114
      01001B5DH   LINE      CODE     ---       #115
      ---         BLOCKEND  ---      ---       LVL=0

      ---         MODULE    ---      ---       ?C_INIT
      010012C5H   PUBLIC    CODE     ---       ?C_START

      ---         MODULE    ---      ---       ?C?IMUL
      01000066H   PUBLIC    CODE     ---       ?C?IMUL

      ---         MODULE    ---      ---       ?C?UIDIV
      01000078H   PUBLIC    CODE     ---       ?C?UIDIV

      ---         MODULE    ---      ---       ?C?LMUL
LX51 LINKER/LOCATER V4.66.30.0                                                        01/29/2020  13:56:08  PAGE 102


      010000CDH   PUBLIC    CODE     ---       ?C?LMUL

      ---         MODULE    ---      ---       ?C?ULDIV
      01000158H   PUBLIC    CODE     ---       ?C?ULDIV

      ---         MODULE    ---      ---       ?C?LNEG
      010001EAH   PUBLIC    CODE     ---       ?C?LNEG

      ---         MODULE    ---      ---       ?C?SLCMP
      010001F8H   PUBLIC    CODE     ---       ?C?SLCMP

      ---         MODULE    ---      ---       ?C?ULCMP
      0100020EH   PUBLIC    CODE     ---       ?C?ULCMP

      ---         MODULE    ---      ---       ?C?ULSHR
      0100021FH   PUBLIC    CODE     ---       ?C?ULSHR

      ---         MODULE    ---      ---       ?C?SLSHR
      01000232H   PUBLIC    CODE     ---       ?C?SLSHR

      ---         MODULE    ---      ---       ?C?LSTXDATA
      01000246H   PUBLIC    CODE     ---       ?C?LSTXDATA

      ---         MODULE    ---      ---       ?C?LSTKXDATA
      01000252H   PUBLIC    CODE     ---       ?C?LSTKXDATA

      ---         MODULE    ---      ---       ?C?OFFXADD
      01000283H   PUBLIC    CODE     ---       ?C?OFFXADD

      ---         MODULE    ---      ---       ?C?ICASE
      0100028FH   PUBLIC    CODE     ---       ?C?ICASE

      ---         MODULE    ---      ---       ?C?ICALL
      010002BCH   PUBLIC    CODE     ---       ?C?ICALL
      010002C0H   PUBLIC    CODE     ---       ?C?ICALL2

      ---         MODULE    ---      ---       ?C?LIMUL
      010002C2H   PUBLIC    CODE     ---       ?C?LIMUL

Program Size: data=180.0 xdata=143 const=51 code=7504
LX51 RUN COMPLETE.  0 WARNING(S),  0 ERROR(S)
