LX51 LINKER/LOCATER V4.66.30.0                                                          01/20/2020  14:03:40  PAGE 1


LX51 LINKER/LOCATER V4.66.30.0, INVOKED BY:
C:\SILICONLABS\SIMPLICITYSTUDIO\V4\DEVELOPER\TOOLCHAINS\KEIL_8051\9.53\BIN\LX51.EXE ./lib/efm8_assert/assert.OBJ, ./lib/
>> efm8bb1/peripheralDrivers/src/pca_0.OBJ, ./src/EFM8BB1_BLDC_PORT.OBJ, ./src/InitDevice.OBJ, ./src/Interrupts.OBJ, ./s
>> rc/MCP_Core.OBJ, ./src/MCP_Registers.OBJ, ./src/SILABS_STARTUP.OBJ, ./src/UART_Driver.OBJ, ./src/adc.OBJ, ./src/btn.O
>> BJ, ./src/comp.OBJ, ./src/motor.OBJ, ./src/mtrapp.OBJ, ./src/mtrpid.OBJ, ./src/pca.OBJ, ./src/timers.OBJ TO EFM8BB1_B
>> LDC_PORT.OMF.CRBUILD REMOVEUNUSED PRINT (.\EFM8BB1_BLDC_PORT.m51) PAGEWIDTH (120) PAGELENGTH (65) CLASSES (ECODE (C:0
>> X0-C:0X1FFE), HCONST (C:0X0-C:0X1FFE), XDATA (X:0X0-X:0XFF), HDATA (X:0X0-X:0XFF))


CPU MODE:     8051 MODE
MEMORY MODEL: SMALL


INPUT MODULES INCLUDED:
  ./lib/efm8_assert/assert.OBJ (ASSERT)
         COMMENT TYPE 0: C51 V9.53.0.0
  ./lib/efm8bb1/peripheralDrivers/src/pca_0.OBJ (PCA_0)
         COMMENT TYPE 0: C51 V9.53.0.0
  ./src/EFM8BB1_BLDC_PORT.OBJ (EFM8BB1_BLDC_PORT)
         COMMENT TYPE 0: C51 V9.53.0.0
  ./src/InitDevice.OBJ (INITDEVICE)
         COMMENT TYPE 0: C51 V9.53.0.0
  ./src/Interrupts.OBJ (INTERRUPTS)
         COMMENT TYPE 0: C51 V9.53.0.0
  ./src/MCP_Core.OBJ (MCP_CORE)
         COMMENT TYPE 0: C51 V9.53.0.0
  ./src/MCP_Registers.OBJ (MCP_REGISTERS)
         COMMENT TYPE 0: C51 V9.53.0.0
  ./src/SILABS_STARTUP.OBJ (?C_STARTUP)
         COMMENT TYPE 0: AX51 V3.12.0.0
  ./src/UART_Driver.OBJ (UART_DRIVER)
         COMMENT TYPE 0: C51 V9.53.0.0
  ./src/adc.OBJ (ADC)
         COMMENT TYPE 0: C51 V9.53.0.0
  ./src/btn.OBJ (BTN)
         COMMENT TYPE 0: C51 V9.53.0.0
  ./src/comp.OBJ (COMP)
         COMMENT TYPE 0: C51 V9.53.0.0
  ./src/motor.OBJ (MOTOR)
         COMMENT TYPE 0: C51 V9.53.0.0
  ./src/mtrapp.OBJ (MTRAPP)
         COMMENT TYPE 0: C51 V9.53.0.0
  ./src/mtrpid.OBJ (MTRPID)
         COMMENT TYPE 0: C51 V9.53.0.0
  ./src/pca.OBJ (PCA)
         COMMENT TYPE 0: C51 V9.53.0.0
  ./src/timers.OBJ (TIMERS)
         COMMENT TYPE 0: C51 V9.53.0.0
  C:\SILICONLABS\SIMPLICITYSTUDIO\V4\DEVELOPER\TOOLCHAINS\KEIL_8051\9.53\LIB\C51S.LIB (?C_INIT)
         COMMENT TYPE 1: A51 / ASM51 Assembler
  C:\SILICONLABS\SIMPLICITYSTUDIO\V4\DEVELOPER\TOOLCHAINS\KEIL_8051\9.53\LIB\C51S.LIB (?C?IMUL)
         COMMENT TYPE 1: A51 / ASM51 Assembler
  C:\SILICONLABS\SIMPLICITYSTUDIO\V4\DEVELOPER\TOOLCHAINS\KEIL_8051\9.53\LIB\C51S.LIB (?C?UIDIV)
         COMMENT TYPE 1: A51 / ASM51 Assembler
  C:\SILICONLABS\SIMPLICITYSTUDIO\V4\DEVELOPER\TOOLCHAINS\KEIL_8051\9.53\LIB\C51S.LIB (?C?LMUL)
         COMMENT TYPE 1: A51 / ASM51 Assembler
  C:\SILICONLABS\SIMPLICITYSTUDIO\V4\DEVELOPER\TOOLCHAINS\KEIL_8051\9.53\LIB\C51S.LIB (?C?ULDIV)
         COMMENT TYPE 1: A51 / ASM51 Assembler
  C:\SILICONLABS\SIMPLICITYSTUDIO\V4\DEVELOPER\TOOLCHAINS\KEIL_8051\9.53\LIB\C51S.LIB (?C?LNEG)
         COMMENT TYPE 1: A51 / ASM51 Assembler
  C:\SILICONLABS\SIMPLICITYSTUDIO\V4\DEVELOPER\TOOLCHAINS\KEIL_8051\9.53\LIB\C51S.LIB (?C?SLCMP)
         COMMENT TYPE 1: A51 / ASM51 Assembler
  C:\SILICONLABS\SIMPLICITYSTUDIO\V4\DEVELOPER\TOOLCHAINS\KEIL_8051\9.53\LIB\C51S.LIB (?C?ULCMP)
LX51 LINKER/LOCATER V4.66.30.0                                                        01/20/2020  14:03:40  PAGE 2


         COMMENT TYPE 1: A51 / ASM51 Assembler
  C:\SILICONLABS\SIMPLICITYSTUDIO\V4\DEVELOPER\TOOLCHAINS\KEIL_8051\9.53\LIB\C51S.LIB (?C?ULSHR)
         COMMENT TYPE 1: A51 / ASM51 Assembler
  C:\SILICONLABS\SIMPLICITYSTUDIO\V4\DEVELOPER\TOOLCHAINS\KEIL_8051\9.53\LIB\C51S.LIB (?C?SLSHR)
         COMMENT TYPE 1: A51 / ASM51 Assembler
  C:\SILICONLABS\SIMPLICITYSTUDIO\V4\DEVELOPER\TOOLCHAINS\KEIL_8051\9.53\LIB\C51S.LIB (?C?LSTXDATA)
         COMMENT TYPE 1: A51 / ASM51 Assembler
  C:\SILICONLABS\SIMPLICITYSTUDIO\V4\DEVELOPER\TOOLCHAINS\KEIL_8051\9.53\LIB\C51S.LIB (?C?LSTKXDATA)
         COMMENT TYPE 1: A51 / ASM51 Assembler
  C:\SILICONLABS\SIMPLICITYSTUDIO\V4\DEVELOPER\TOOLCHAINS\KEIL_8051\9.53\LIB\C51S.LIB (?C?OFFXADD)
         COMMENT TYPE 1: A51 / ASM51 Assembler
  C:\SILICONLABS\SIMPLICITYSTUDIO\V4\DEVELOPER\TOOLCHAINS\KEIL_8051\9.53\LIB\C51S.LIB (?C?ICASE)
         COMMENT TYPE 1: A51 / ASM51 Assembler
  C:\SILICONLABS\SIMPLICITYSTUDIO\V4\DEVELOPER\TOOLCHAINS\KEIL_8051\9.53\LIB\C51S.LIB (?C?ICALL)
         COMMENT TYPE 1: A51 / ASM51 Assembler
  C:\SILICONLABS\SIMPLICITYSTUDIO\V4\DEVELOPER\TOOLCHAINS\KEIL_8051\9.53\LIB\C51S.LIB (?C?LIMUL)
         COMMENT TYPE 1: A51 / ASM51 Assembler


ACTIVE MEMORY CLASSES OF MODULE:  EFM8BB1_BLDC_PORT.OMF.CRBUILD (ASSERT)

BASE        START       END         USED      MEMORY CLASS
==========================================================
C:000000H   C:000000H   C:001FFEH             ECODE
B00:0000H   C:000000H   C:001FFEH             HCONST
X:000000H   X:000000H   X:0000FFH   00008FH   XDATA
X:000000H   X:000000H   X:0000FFH             HDATA
C:000000H   C:000000H   C:00FFFFH   001B60H   CODE
I:000020H.0 I:000020H.0 I:00002FH.7 000003H.0 BIT
I:000000H   I:000000H   I:00007FH   000071H   DATA
I:000000H   I:000000H   I:0000FFH   000041H   IDATA
C:000000H   C:000000H   C:00FFFFH   000033H   CONST


MEMORY MAP OF MODULE:  EFM8BB1_BLDC_PORT.OMF.CRBUILD (ASSERT)


START     STOP      LENGTH    ALIGN  RELOC    MEMORY CLASS   SEGMENT NAME
=========================================================================

* * * * * * * * * * *   D A T A   M E M O R Y   * * * * * * * * * * * * *
000000H   000007H   000008H   ---    AT..     DATA           "REG BANK 0"
000008H   000019H   000012H   BYTE   UNIT     DATA           ?DT?MCP_CORE
00001AH   00001FH   000006H   BYTE   UNIT     DATA           ?DT?MTRPID
000020H.0 000021H.2 000001H.3 BIT    UNIT     BIT            ?BI?MOTOR
000021H.3 000021H.6 000000H.4 BIT    UNIT     BIT            _BIT_GROUP_
000021H.7 000022H.1 000000H.3 BIT    UNIT     BIT            ?BI?MCP_CORE
000022H.2 000022H.4 000000H.3 BIT    UNIT     BIT            ?BI?MTRAPP
000022H.5 000022H.5 000000H.1 BIT    UNIT     BIT            ?BI?UART_DRIVER
000022H.6 000022H.6 000000H.1 BIT    UNIT     BIT            ?BI?MTRPID
000022H.7 000022H.7 000000H.1 BIT    UNIT     BIT            ?BI?PCA
000023H   00003FH   00001DH   BYTE   UNIT     DATA           ?DT?MOTOR
000040H   00004BH   00000CH   BYTE   UNIT     DATA           ?DT?MCP_REGISTERS
00004CH   000054H   000009H   BYTE   UNIT     DATA           ?DT?PCA
000055H   00005DH   000009H   BYTE   UNIT     DATA           _DATA_GROUP_
00005EH   000064H   000007H   BYTE   UNIT     DATA           ?DT?INTERRUPTS
000065H   000069H   000005H   BYTE   UNIT     DATA           ?DT?MTRAPP
00006AH   00006DH   000004H   BYTE   UNIT     DATA           ?DT?UART_DRIVER
00006EH   000071H   000004H   BYTE   UNIT     DATA           ?DT?TIMERS
000072H   000072H   000001H   BYTE   UNIT     DATA           ?DT?ADC
000073H   000073H   000001H   BYTE   UNIT     DATA           ?DT?BTN
000074H   000093H   000020H   BYTE   UNIT     IDATA          ?ID?UART_DRIVER
LX51 LINKER/LOCATER V4.66.30.0                                                        01/20/2020  14:03:40  PAGE 3


000094H   0000B1H   00001EH   BYTE   UNIT     IDATA          ?ID?MCP_CORE
0000B2H   0000B2H   000001H   BYTE   UNIT     IDATA          ?ID?ADC
0000B3H   0000B3H   000001H   BYTE   UNIT     IDATA          ?ID?MOTOR
0000B4H   0000B4H   000001H   BYTE   UNIT     IDATA          ?STACK

* * * * * * * * * * *   C O D E   M E M O R Y   * * * * * * * * * * * * *
000000H   000002H   000003H   ---    OFFS..   CODE           ?CO?SILABS_STARTUP?3
000003H   000018H   000016H   BYTE   UNIT     CODE           ?PR?_MCP_CHECK_ADDRESS?MCP_REGISTERS
000019H   000019H   000001H   BYTE   UNIT     CODE           ?PR?PORTS_2_ENTER_DEFAULTMODE_FROM_RESET?INITDEVICE
00001AH   00001AH   000001H   BYTE   UNIT     CODE           ?PR?ADC0EOC_ISR?INTERRUPTS
00001BH   00001DH   000003H   BYTE   OFFS..   CODE           ?INTERRUPTS?0001B
00001EH   000022H   000005H   BYTE   UNIT     CODE           ?PR?APP_RESET?EFM8BB1_BLDC_PORT
000023H   000025H   000003H   BYTE   OFFS..   CODE           ?UART_DRIVER?00023
000026H   000051H   00002CH   BYTE   UNIT     CODE           ?PR?MAIN?EFM8BB1_BLDC_PORT
000052H   000052H   000001H   BYTE   UNIT     CODE           ?PR?CMP1_ISR?INTERRUPTS
000053H   000055H   000003H   BYTE   OFFS..   CODE           ?INTERRUPTS?00053
000056H   000059H   000004H   BYTE   UNIT     CODE           ?PR?CLOCK_0_ENTER_DEFAULTMODE_FROM_RESET?INITDEVICE
00005AH   00005AH   000001H   BYTE   UNIT     CODE           ?PR?TIMER3_ISR?INTERRUPTS
00005BH   00005DH   000003H   BYTE   OFFS..   CODE           ?INTERRUPTS?0005B
00005EH   00006AH   00000DH   BYTE   UNIT     CODE           ?PR?TIMER16_3_ENTER_DEFAULTMODE_FROM_RESET?INITDEVICE
00006BH   00006DH   000003H   BYTE   OFFS..   CODE           ?INTERRUPTS?0006B
00006EH   000071H   000004H   BYTE   UNIT     CODE           ?PR?UART_0_ENTER_DEFAULTMODE_FROM_RESET?INITDEVICE
000072H   000072H   000001H   BYTE   UNIT     CODE           ?PR?TIMER1_ISR?INTERRUPTS
000073H   000075H   000003H   BYTE   OFFS..   CODE           ?INTERRUPTS?00073
000076H   0002FEH   000289H   BYTE   UNIT     CODE           ?C?LIB_CODE
0002FFH   0004E1H   0001E3H   BYTE   UNIT     CODE           ?PR?MTR_PID_COMPUTE_THREAD?MTRPID
0004E2H   000672H   000191H   BYTE   UNIT     CODE           ?PR?MTR_START_SPINNING?MOTOR
000673H   0007FAH   000188H   BYTE   UNIT     CODE           ?PR?MTR_DO_QUICKSTART?MOTOR
0007FBH   00097CH   000182H   BYTE   UNIT     CODE           ?PR?MCP_PROCESS_COMMAND?MCP_CORE
00097DH   000ACFH   000153H   BYTE   UNIT     CODE           ?PR?MTR_PROCESS_ADC?MOTOR
000AD0H   000C1CH   00014DH   BYTE   UNIT     CODE           ?PR?MTR_PROCESS_ERRORS?MOTOR
000C1DH   000D53H   000137H   BYTE   UNIT     CODE           ?PR?MCP_COMMAND_TASK?MCP_CORE
000D54H   000E5CH   000109H   BYTE   UNIT     CODE           ?PR?MTRAPP_TASK?MTRAPP
000E5DH   000F3CH   0000E0H   BYTE   UNIT     CODE           ?PR?MTRAPP_READ_TARGET_SPEED?MTRAPP
000F3DH   000FE1H   0000A5H   BYTE   UNIT     CODE           ?PR?MCP_UPDATE_STATUS?MCP_CORE
000FE2H   001073H   000092H   BYTE   UNIT     CODE           ?PR?_PCA_CHANGE_DUTY_CYCLE?PCA
001074H   001102H   00008FH   BYTE   UNIT     CODE           ?C_C51STARTUP
001103H   001190H   00008EH   BYTE   UNIT     CODE           ?PR?PCA0_ISR?INTERRUPTS
001191H   001217H   000087H   BYTE   UNIT     CODE           ?PR?MCP_STATUS_UPDATE_TASK?MCP_CORE
001218H   001294H   00007DH   BYTE   UNIT     CODE           ?PR?MCP_INIT_REGISTERS?MCP_REGISTERS
001295H   001307H   000073H   BYTE   UNIT     CODE           ?PR?_MCP_STATUS_UPDATE_REGISTER?MCP_REGISTERS
001308H   00136DH   000066H   BYTE   UNIT     CODE           ?PR?_MCP_SET_16BIT_REGISTER?MCP_REGISTERS
00136EH   0013CFH   000062H   BYTE   UNIT     CODE           ?PR?MTR_CHECK_MOTOR_SPINNING?MOTOR
0013D0H   00142CH   00005DH   BYTE   UNIT     CODE           ?PR?_MCP_DEC_TO_ASCNUMBUF?MCP_CORE
00142DH   001487H   00005BH   BYTE   UNIT     CODE           ?PR?MCP_RECEIVE_COMMAND?MCP_CORE
001488H   0014DDH   000056H   BYTE   UNIT     CODE           ?PR?UART0_ISR?UART_DRIVER
0014DEH   001526H   000049H   BYTE   UNIT     CODE           ?PR?WDT_0_ENTER_DEFAULTMODE_FROM_RESET?INITDEVICE
001527H   00156EH   000048H   BYTE   UNIT     CODE           ?PR?MTR_PRE_COMMUTATION?MOTOR
00156FH   0015B5H   000047H   BYTE   UNIT     CODE           ?PR?MTR_CALCULATE_MOTOR_RPM?MOTOR
0015B6H   0015FAH   000045H   BYTE   UNIT     CODE           ?PR?MTR_COMMUTATE?MOTOR
0015FBH   00163BH   000041H   BYTE   UNIT     CODE           ?PR?_MCP_SET_8BIT_REGISTER?MCP_REGISTERS
00163CH   00167CH   000041H   BYTE   UNIT     CODE           ?PR?SL_MTR_STOP_MOTOR?MOTOR
00167DH   0016BCH   000040H   BYTE   UNIT     CODE           ?PR?MTRAPP_INIT?MTRAPP
0016BDH   0016FBH   00003FH   BYTE   UNIT     CODE           ?PR?ADC_TASK?ADC
0016FCH   001737H   00003CH   BYTE   UNIT     CODE           ?PR?_MCP_IS_16BIT_STATUS_UPDATE_ENABLED?MCP_REGISTERS
001738H   00176FH   000038H   BYTE   UNIT     CODE           ?PR?MTR_SAVE_ZERO_CROSSING_TIME?MOTOR
001770H   0017A6H   000037H   BYTE   UNIT     CODE           ?PR?SL_MTR_MOTOR?MOTOR
0017A7H   0017DCH   000036H   BYTE   UNIT     CODE           ?PR?_MCP_HEX_TO_DEC?MCP_CORE
0017DDH   001811H   000035H   BYTE   UNIT     CODE           ?PR?_MCP_IS_8BIT_STATUS_UPDATE_ENABLED?MCP_REGISTERS
001812H   001843H   000032H   BYTE   UNIT     CODE           ?PR?MTRAPP_READ_DIRECTION?MTRAPP
001844H   001873H   000030H   BYTE   UNIT     CODE           ?PR?ENTER_DEFAULTMODE_FROM_RESET?INITDEVICE
001874H   0018A2H   00002FH   BYTE   UNIT     CODE           ?PR?BTN_PROCESS?BTN
LX51 LINKER/LOCATER V4.66.30.0                                                        01/20/2020  14:03:40  PAGE 4


0018A3H   0018D0H   00002EH   BYTE   UNIT     CODE           ?PR?_UART_SEND_BYTE?UART_DRIVER
0018D1H   0018FBH   00002BH   BYTE   UNIT     CODE           ?PR?SL_MTR_INIT?MOTOR
0018FCH   001924H   000029H   BYTE   UNIT     CODE           ?PR?_UART_RECEIVE_BYTE?UART_DRIVER
001925H   00194BH   000027H   BYTE   UNIT     CODE           ?PR?SL_MTR_START_MOTOR?MOTOR
00194CH   001972H   000027H   BYTE   UNIT     CODE           ?PR?_TMR_DELAY_TIMER3?TIMERS
001973H   001998H   000026H   BYTE   UNIT     CODE           ?PR?MCP_INIT?MCP_CORE
001999H   0019BCH   000024H   BYTE   UNIT     CODE           ?PR?MCP_GET_REGISTER_ADDRESS?MCP_CORE
0019BDH   0019DDH   000021H   BYTE   UNIT     CODE           ?PR?IS_BTN1_PRESSED?BTN
0019DEH   0019FDH   000020H   BYTE   UNIT     CODE           ?PR?_MCP_GET_16BIT_REGISTER?MCP_REGISTERS
0019FEH   001A18H   00001BH   BYTE   UNIT     CODE           ?C_INITSEG
001A19H   001A32H   00001AH   BYTE   UNIT     CODE           ?PR?_MCP_SEND_ASCII_VALUE?MCP_CORE
001A33H   001A47H   000015H   BYTE   UNIT     CODE           ?PR?MCP_INIT_COMMANDBUF?MCP_CORE
001A48H   001A5BH   000014H   BYTE   UNIT     CODE           ?PR?_SL_MTR_CHANGE_NUM_POLES?MOTOR
001A5CH   001A6FH   000014H   BYTE   UNIT     CODE           ?PR?MTR_PID_INIT?MTRPID
001A70H   001A82H   000013H   BYTE   UNIT     CODE           ?PR?TIMER01_0_ENTER_DEFAULTMODE_FROM_RESET?INITDEVICE
001A83H   001A95H   000013H   BYTE   UNIT     CODE           ?PR?TIMER16_2_ENTER_DEFAULTMODE_FROM_RESET?INITDEVICE
001A96H   001AA7H   000012H   BYTE   UNIT     CODE           ?PR?UART_GET_TX_BUFFER_FREE_BYTES?UART_DRIVER
001AA8H   001AB8H   000011H   BYTE   UNIT     CODE           ?PR?_SL_MTR_CHANGE_PID_GAIN?MTRPID
001AB9H   001AC7H   00000FH   BYTE   UNIT     CODE           ?PR?SL_MTR_TIME?MOTOR
001AC8H   001AD5H   00000EH   BYTE   UNIT     CODE           ?PR?PCA_0_ENTER_DEFAULTMODE_FROM_RESET?INITDEVICE
001AD6H   001AE3H   00000EH   BYTE   UNIT     CODE           ?PR?MTR_PID_COMPUTE_NEWPWM?MTRPID
001AE4H   001AF0H   00000DH   BYTE   UNIT     CODE           ?PR?_MCP_GET_8BIT_REGISTER?MCP_REGISTERS
001AF1H   001AFAH   00000AH   BYTE   UNIT     CODE           ?PR?PORTS_0_ENTER_DEFAULTMODE_FROM_RESET?INITDEVICE
001AFBH   001B04H   00000AH   BYTE   UNIT     CODE           ?PR?PORTS_1_ENTER_DEFAULTMODE_FROM_RESET?INITDEVICE
001B05H   001B0EH   00000AH   BYTE   UNIT     CODE           ?PR?PCACH_0_ENTER_DEFAULTMODE_FROM_RESET?INITDEVICE
001B0FH   001B18H   00000AH   BYTE   UNIT     CODE           ?PR?ADC_0_ENTER_DEFAULTMODE_FROM_RESET?INITDEVICE
001B19H   001B22H   00000AH   BYTE   UNIT     CODE           ?PR?CMP_1_ENTER_DEFAULTMODE_FROM_RESET?INITDEVICE
001B23H   001B2CH   00000AH   BYTE   UNIT     CODE           ?PR?TIMER_SETUP_0_ENTER_DEFAULTMODE_FROM_RESET?INITDEVICE
001B2DH   001B36H   00000AH   BYTE   UNIT     CODE           ?PR?MTR_CALCULATE_PID?MOTOR
001B37H   001B3DH   000007H   BYTE   UNIT     CODE           ?PR?SILABS_STARTUP?EFM8BB1_BLDC_PORT
001B3EH   001B44H   000007H   BYTE   UNIT     CODE           ?PR?PBCFG_0_ENTER_DEFAULTMODE_FROM_RESET?INITDEVICE
001B45H   001B4BH   000007H   BYTE   UNIT     CODE           ?PR?INTERRUPT_0_ENTER_DEFAULTMODE_FROM_RESET?INITDEVICE
001B4CH   001B52H   000007H   BYTE   UNIT     CODE           ?PR?PCA_ENABLE_PWM?PCA
001B53H   001B58H   000006H   BYTE   UNIT     CODE           ?PR?MCP_TASK?MCP_CORE
001B59H   001B5CH   000004H   BYTE   UNIT     CODE           ?PR?PCA_SET_INITIAL_POLARITY?PCA
001B5DH   001B5FH   000003H   BYTE   UNIT     CODE           ?PR?_APP_TUNE_CALLBACK?EFM8BB1_BLDC_PORT
001B60H   001B89H   00002AH   BYTE   UNIT     CONST          ?CO?MOTOR
001B8AH   001B8FH   000006H   BYTE   UNIT     CONST          ?CO?MCP_REGISTERS
001B90H   001B92H   000003H   BYTE   UNIT     CONST          ?CO?ADC

* * * * * * * * * * *  X D A T A   M E M O R Y  * * * * * * * * * * * * *
000000H   00002FH   000030H   BYTE   UNIT     XDATA          ?XD?MCP_REGISTERS
000030H   000056H   000027H   BYTE   UNIT     XDATA          ?XD?MOTOR
000057H   00006CH   000016H   BYTE   UNIT     XDATA          ?XD?MCP_CORE
00006DH   000078H   00000CH   BYTE   UNIT     XDATA          _XDATA_GROUP_
000079H   000082H   00000AH   BYTE   UNIT     XDATA          ?XD?MTRPID
000083H   000088H   000006H   BYTE   UNIT     XDATA          ?XD?ADC
000089H   00008CH   000004H   BYTE   UNIT     XDATA          ?XD?MTRAPP
00008DH   00008EH   000002H   BYTE   UNIT     XDATA          ?XD?BTN

* * * * * * * * *   R E M O V E D     S E G M E N T S   * * * * * * * *
   *DEL*:           000002H   BYTE   UNIT     CODE           ?PR?SLAB_ASSERT?ASSERT
   *DEL*:           00000CH   BYTE   UNIT     CODE           ?PR?PCA0_GETINTFLAGS?PCA_0
   *DEL*:           00000DH   BYTE   UNIT     CODE           ?PR?_PCA0_CLEARINTFLAG?PCA_0
   *DEL*:           00003DH   BYTE   UNIT     CODE           ?PR?_PCA0_ENABLEINT?PCA_0
   *DEL*:           000000H.1 BIT    UNIT     BIT            ?BI?_PCA0_ENABLEINT?PCA_0
   *DEL*:           00001EH   BYTE   UNIT     CODE           ?PR?_PCA0_READCHANNEL?PCA_0
   *DEL*:           00001EH   BYTE   UNIT     CODE           ?PR?_PCA0_WRITECHANNEL?PCA_0
   *DEL*:           00000FH   BYTE   UNIT     CODE           ?PR?PCA0_READCOUNTER?PCA_0
   *DEL*:           000005H   BYTE   UNIT     CODE           ?PR?_PCA0_WRITECOUNTER?PCA_0
   *DEL*:           000003H   BYTE   UNIT     CODE           ?PR?PCA0_RUN?PCA_0
   *DEL*:           000003H   BYTE   UNIT     CODE           ?PR?PCA0_HALT?PCA_0
LX51 LINKER/LOCATER V4.66.30.0                                                        01/20/2020  14:03:40  PAGE 5


   *DEL*:           000008H   BYTE   UNIT     CODE           ?PR?_PCA0_INIT?PCA_0
   *DEL*:           00006FH   BYTE   UNIT     CODE           ?PR?_PCA0_INITCHANNEL?PCA_0
   *DEL*:           00001DH   BYTE   UNIT     CODE           ?PR?PCA0_RESET?PCA_0
   *DEL*:           000001H   BYTE   UNIT     DATA           ?DT?PCA0_RESET?PCA_0
   *DEL*:           000033H   BYTE   UNIT     CODE           ?PR?_PCA0_RESETCHANNEL?PCA_0
   *DEL*:           000022H   BYTE   UNIT     CODE           ?PR?_MCP_SET_8BIT_REGISTER_ISR?MCP_REGISTERS
   *DEL*:           00003BH   BYTE   UNIT     CODE           ?PR?_MCP_SET_16BIT_REGISTER_ISR?MCP_REGISTERS
   *DEL*:           00000DH   BYTE   UNIT     CODE           ?PR?_MCP_GET_8BIT_REGISTER_ISR?MCP_REGISTERS
   *DEL*:           00001AH   BYTE   UNIT     CODE           ?PR?_MCP_GET_16BIT_REGISTER_ISR?MCP_REGISTERS
   *DEL*:           00000DH   BYTE   UNIT     CODE           ?PR?UART_INIT_BUFFERS?UART_DRIVER
   *DEL*:           000013H   BYTE   UNIT     CODE           ?PR?ADC_INITIALIZE_ADC?ADC
   *DEL*:           000008H   BYTE   UNIT     CODE           ?PR?COMP_INITIALIZE_COMP?COMP
   *DEL*:           000007H   BYTE   UNIT     CODE           ?PR?PCA_DISABLE_PWM?PCA



OVERLAY MAP OF MODULE:   EFM8BB1_BLDC_PORT.OMF.CRBUILD (ASSERT)


FUNCTION/MODULE                                BIT_GROUP   DATA_GROUP   XDATA_GROUP
--> CALLED FUNCTION/MODULE                    START  STOP  START  STOP  START  STOP
===================================================================================
ADC0EOC_ISR/INTERRUPTS                        ----- -----  ----- -----  ----- -----

*** NEW ROOT ********************************

PCA0_ISR/INTERRUPTS                           ----- -----  0055H 0056H  ----- -----

*** NEW ROOT ********************************

CMP1_ISR/INTERRUPTS                           ----- -----  ----- -----  ----- -----

*** NEW ROOT ********************************

TIMER3_ISR/INTERRUPTS                         ----- -----  ----- -----  ----- -----

*** NEW ROOT ********************************

TIMER1_ISR/INTERRUPTS                         ----- -----  ----- -----  ----- -----

*** NEW ROOT ********************************

?C_C51STARTUP                                 ----- -----  ----- -----  ----- -----
  +--> SILABS_STARTUP/EFM8BB1_BLDC_PORT
  +--> MAIN/EFM8BB1_BLDC_PORT
  +--> ?C_INITSEG

SILABS_STARTUP/EFM8BB1_BLDC_PORT              ----- -----  ----- -----  ----- -----

MAIN/EFM8BB1_BLDC_PORT                        ----- -----  ----- -----  ----- -----
  +--> ENTER_DEFAULTMODE_FROM_RESET/INITDEVICE
  +--> _APP_TUNE_CALLBACK/EFM8BB1_BLDC_PORT
  +--> APP_RESET/EFM8BB1_BLDC_PORT
  +--> MCP_INIT/MCP_CORE
  +--> SL_MTR_INIT/MOTOR
  +--> MTRAPP_INIT/MTRAPP
  +--> ADC_TASK/ADC
  +--> BTN_PROCESS/BTN
  +--> MTRAPP_TASK/MTRAPP
  +--> MCP_TASK/MCP_CORE

ENTER_DEFAULTMODE_FROM_RESET/INITDEVICE       ----- -----  ----- -----  ----- -----
LX51 LINKER/LOCATER V4.66.30.0                                                        01/20/2020  14:03:40  PAGE 6


  +--> WDT_0_ENTER_DEFAULTMODE_FROM_RESET/INITDEVICE
  +--> PORTS_0_ENTER_DEFAULTMODE_FROM_RESET/INITDEVICE
  +--> PORTS_1_ENTER_DEFAULTMODE_FROM_RESET/INITDEVICE
  +--> PORTS_2_ENTER_DEFAULTMODE_FROM_RESET/INITDEVICE
  +--> PBCFG_0_ENTER_DEFAULTMODE_FROM_RESET/INITDEVICE
  +--> ADC_0_ENTER_DEFAULTMODE_FROM_RESET/INITDEVICE
  +--> CMP_1_ENTER_DEFAULTMODE_FROM_RESET/INITDEVICE
  +--> CLOCK_0_ENTER_DEFAULTMODE_FROM_RESET/INITDEVICE
  +--> TIMER01_0_ENTER_DEFAULTMODE_FROM_RESET/INITDEVICE
  +--> TIMER16_2_ENTER_DEFAULTMODE_FROM_RESET/INITDEVICE
  +--> TIMER16_3_ENTER_DEFAULTMODE_FROM_RESET/INITDEVICE
  +--> TIMER_SETUP_0_ENTER_DEFAULTMODE_FROM_RESET/INITDEVICE
  +--> PCA_0_ENTER_DEFAULTMODE_FROM_RESET/INITDEVICE
  +--> PCACH_0_ENTER_DEFAULTMODE_FROM_RESET/INITDEVICE
  +--> UART_0_ENTER_DEFAULTMODE_FROM_RESET/INITDEVICE
  +--> INTERRUPT_0_ENTER_DEFAULTMODE_FROM_RESET/INITDEVICE

WDT_0_ENTER_DEFAULTMODE_FROM_RESET/INITD+     21H.3 21H.3  0057H 005AH  ----- -----
... EVICE

PORTS_0_ENTER_DEFAULTMODE_FROM_RESET/INI+     ----- -----  ----- -----  ----- -----
... TDEVICE

PORTS_1_ENTER_DEFAULTMODE_FROM_RESET/INI+     ----- -----  ----- -----  ----- -----
... TDEVICE

PORTS_2_ENTER_DEFAULTMODE_FROM_RESET/INI+     ----- -----  ----- -----  ----- -----
... TDEVICE

PBCFG_0_ENTER_DEFAULTMODE_FROM_RESET/INI+     ----- -----  ----- -----  ----- -----
... TDEVICE

ADC_0_ENTER_DEFAULTMODE_FROM_RESET/INITD+     ----- -----  ----- -----  ----- -----
... EVICE

CMP_1_ENTER_DEFAULTMODE_FROM_RESET/INITD+     ----- -----  ----- -----  ----- -----
... EVICE

CLOCK_0_ENTER_DEFAULTMODE_FROM_RESET/INI+     ----- -----  ----- -----  ----- -----
... TDEVICE

TIMER01_0_ENTER_DEFAULTMODE_FROM_RESET/I+     ----- -----  ----- -----  ----- -----
... NITDEVICE

TIMER16_2_ENTER_DEFAULTMODE_FROM_RESET/I+     ----- -----  ----- -----  ----- -----
... NITDEVICE

TIMER16_3_ENTER_DEFAULTMODE_FROM_RESET/I+     ----- -----  ----- -----  ----- -----
... NITDEVICE

TIMER_SETUP_0_ENTER_DEFAULTMODE_FROM_RES+     ----- -----  ----- -----  ----- -----
... ET/INITDEVICE

PCA_0_ENTER_DEFAULTMODE_FROM_RESET/INITD+     ----- -----  ----- -----  ----- -----
... EVICE

PCACH_0_ENTER_DEFAULTMODE_FROM_RESET/INI+     ----- -----  ----- -----  ----- -----
... TDEVICE

UART_0_ENTER_DEFAULTMODE_FROM_RESET/INIT+     ----- -----  ----- -----  ----- -----
... DEVICE

LX51 LINKER/LOCATER V4.66.30.0                                                        01/20/2020  14:03:40  PAGE 7


INTERRUPT_0_ENTER_DEFAULTMODE_FROM_RESET+     ----- -----  ----- -----  ----- -----
... /INITDEVICE

_APP_TUNE_CALLBACK/EFM8BB1_BLDC_PORT          ----- -----  ----- -----  ----- -----

APP_RESET/EFM8BB1_BLDC_PORT                   ----- -----  ----- -----  ----- -----
  +--> SL_MTR_STOP_MOTOR/MOTOR

SL_MTR_STOP_MOTOR/MOTOR                       21H.4 21H.4  ----- -----  ----- -----
  +--> _PCA_CHANGE_DUTY_CYCLE/PCA

_PCA_CHANGE_DUTY_CYCLE/PCA                    21H.6 21H.6  005CH 005DH  ----- -----

MCP_INIT/MCP_CORE                             ----- -----  ----- -----  ----- -----
  +--> MCP_INIT_COMMANDBUF/MCP_CORE
  +--> MCP_INIT_REGISTERS/MCP_REGISTERS

MCP_INIT_COMMANDBUF/MCP_CORE                  ----- -----  ----- -----  ----- -----

MCP_INIT_REGISTERS/MCP_REGISTERS              ----- -----  ----- -----  ----- -----

SL_MTR_INIT/MOTOR                             ----- -----  ----- -----  ----- -----
  +--> PCA_ENABLE_PWM/PCA

PCA_ENABLE_PWM/PCA                            ----- -----  ----- -----  ----- -----

MTRAPP_INIT/MTRAPP                            ----- -----  ----- -----  ----- -----
  +--> _MCP_GET_8BIT_REGISTER/MCP_REGISTERS
  +--> _MCP_GET_16BIT_REGISTER/MCP_REGISTERS

_MCP_GET_8BIT_REGISTER/MCP_REGISTERS          ----- -----  ----- -----  ----- -----

_MCP_GET_16BIT_REGISTER/MCP_REGISTERS         21H.4 21H.4  ----- -----  ----- -----

ADC_TASK/ADC                                  ----- -----  ----- -----  ----- -----
  +--> ?CO?ADC

?CO?ADC                                       ----- -----  ----- -----  ----- -----

BTN_PROCESS/BTN                               ----- -----  ----- -----  ----- -----
  +--> SL_MTR_TIME/MOTOR

SL_MTR_TIME/MOTOR                             21H.6 21H.6  ----- -----  ----- -----

MTRAPP_TASK/MTRAPP                            21H.3 21H.3  0057H 0057H  006DH 0070H
  +--> SL_MTR_MOTOR/MOTOR
  +--> IS_BTN1_PRESSED/BTN
  +--> SL_MTR_START_MOTOR/MOTOR
  +--> _MCP_SET_8BIT_REGISTER/MCP_REGISTERS
  +--> MTRAPP_READ_DIRECTION/MTRAPP
  +--> _MCP_GET_8BIT_REGISTER/MCP_REGISTERS
  +--> _MCP_GET_16BIT_REGISTER/MCP_REGISTERS
  +--> _SL_MTR_CHANGE_NUM_POLES/MOTOR
  +--> _SL_MTR_CHANGE_PID_GAIN/MTRPID
  +--> SL_MTR_STOP_MOTOR/MOTOR
  +--> SL_MTR_TIME/MOTOR
  +--> _MCP_SET_16BIT_REGISTER/MCP_REGISTERS
  +--> MTRAPP_READ_TARGET_SPEED/MTRAPP

SL_MTR_MOTOR/MOTOR                            ----- -----  ----- -----  ----- -----
  +--> MTR_PROCESS_ERRORS/MOTOR
  +--> MTR_PROCESS_ADC/MOTOR
LX51 LINKER/LOCATER V4.66.30.0                                                        01/20/2020  14:03:40  PAGE 8


  +--> MTR_CALCULATE_MOTOR_RPM/MOTOR
  +--> MTR_CALCULATE_PID/MOTOR

MTR_PROCESS_ERRORS/MOTOR                      ----- -----  0058H 005BH  ----- -----
  +--> SL_MTR_TIME/MOTOR
  +--> SL_MTR_STOP_MOTOR/MOTOR

MTR_PROCESS_ADC/MOTOR                         ----- -----  ----- -----  0071H 0072H

MTR_CALCULATE_MOTOR_RPM/MOTOR                 21H.4 21H.4  ----- -----  0071H 0074H

MTR_CALCULATE_PID/MOTOR                       ----- -----  ----- -----  ----- -----
  +--> MTR_PID_COMPUTE_NEWPWM/MTRPID
  +--> _PCA_CHANGE_DUTY_CYCLE/PCA

MTR_PID_COMPUTE_NEWPWM/MTRPID                 ----- -----  ----- -----  ----- -----
  +--> MTR_PID_COMPUTE_THREAD/MTRPID

MTR_PID_COMPUTE_THREAD/MTRPID                 ----- -----  0058H 0058H  ----- -----

IS_BTN1_PRESSED/BTN                           ----- -----  ----- -----  ----- -----
  +--> BTN_PROCESS/BTN

SL_MTR_START_MOTOR/MOTOR                      ----- -----  ----- -----  ----- -----
  +--> MTR_CHECK_MOTOR_SPINNING/MOTOR
  +--> MTR_START_SPINNING/MOTOR
  +--> MTR_DO_QUICKSTART/MOTOR

MTR_CHECK_MOTOR_SPINNING/MOTOR                21H.4 21H.5  0058H 0058H  ----- -----
  +--> SL_MTR_TIME/MOTOR

MTR_START_SPINNING/MOTOR                      21H.4 21H.4  0058H 005BH  0071H 0078H
  +--> PCA_SET_INITIAL_POLARITY/PCA
  +--> _TMR_DELAY_TIMER3/TIMERS
  +--> _PCA_CHANGE_DUTY_CYCLE/PCA
  +--> MTR_COMMUTATE/MOTOR
  +--> ?CO?MOTOR

PCA_SET_INITIAL_POLARITY/PCA                  ----- -----  ----- -----  ----- -----

_TMR_DELAY_TIMER3/TIMERS                      ----- -----  ----- -----  ----- -----

MTR_COMMUTATE/MOTOR                           ----- -----  ----- -----  ----- -----
  +--> MTR_PRE_COMMUTATION/MOTOR

MTR_PRE_COMMUTATION/MOTOR                     ----- -----  ----- -----  ----- -----
  +--> ?CO?MOTOR

?CO?MOTOR                                     ----- -----  ----- -----  ----- -----

MTR_DO_QUICKSTART/MOTOR                       21H.4 21H.5  0058H 005BH  ----- -----
  +--> _TMR_DELAY_TIMER3/TIMERS
  +--> MTR_SAVE_ZERO_CROSSING_TIME/MOTOR
  +--> MTR_PRE_COMMUTATION/MOTOR
  +--> _PCA_CHANGE_DUTY_CYCLE/PCA
  +--> MTR_PID_INIT/MTRPID

MTR_SAVE_ZERO_CROSSING_TIME/MOTOR             ----- -----  ----- -----  ----- -----

MTR_PID_INIT/MTRPID                           ----- -----  ----- -----  ----- -----

_MCP_SET_8BIT_REGISTER/MCP_REGISTERS          21H.4 21H.4  ----- -----  ----- -----
LX51 LINKER/LOCATER V4.66.30.0                                                        01/20/2020  14:03:40  PAGE 9


  +--> ?CO?MCP_REGISTERS

?CO?MCP_REGISTERS                             ----- -----  ----- -----  ----- -----

MTRAPP_READ_DIRECTION/MTRAPP                  ----- -----  ----- -----  ----- -----
  +--> _MCP_SET_8BIT_REGISTER/MCP_REGISTERS
  +--> _MCP_GET_8BIT_REGISTER/MCP_REGISTERS

_SL_MTR_CHANGE_NUM_POLES/MOTOR                ----- -----  ----- -----  ----- -----

_SL_MTR_CHANGE_PID_GAIN/MTRPID                ----- -----  ----- -----  ----- -----

_MCP_SET_16BIT_REGISTER/MCP_REGISTERS         21H.4 21H.5  005AH 005DH  ----- -----
  +--> ?CO?MCP_REGISTERS

MTRAPP_READ_TARGET_SPEED/MTRAPP               ----- -----  0058H 0059H  ----- -----
  +--> SL_MTR_TIME/MOTOR
  +--> _MCP_GET_16BIT_REGISTER/MCP_REGISTERS
  +--> _MCP_SET_16BIT_REGISTER/MCP_REGISTERS

MCP_TASK/MCP_CORE                             ----- -----  ----- -----  ----- -----
  +--> MCP_COMMAND_TASK/MCP_CORE
  +--> MCP_STATUS_UPDATE_TASK/MCP_CORE

MCP_COMMAND_TASK/MCP_CORE                     ----- -----  0057H 0057H  ----- -----
  +--> MCP_RECEIVE_COMMAND/MCP_CORE
  +--> MCP_PROCESS_COMMAND/MCP_CORE
  +--> UART_GET_TX_BUFFER_FREE_BYTES/UART_DRIVER
  +--> _UART_SEND_BYTE/UART_DRIVER
  +--> MCP_INIT_COMMANDBUF/MCP_CORE

MCP_RECEIVE_COMMAND/MCP_CORE                  ----- -----  ----- -----  ----- -----
  +--> _UART_RECEIVE_BYTE/UART_DRIVER

_UART_RECEIVE_BYTE/UART_DRIVER                ----- -----  ----- -----  ----- -----

MCP_PROCESS_COMMAND/MCP_CORE                  ----- -----  0058H 0058H  ----- -----
  +--> MCP_GET_REGISTER_ADDRESS/MCP_CORE
  +--> _MCP_GET_8BIT_REGISTER/MCP_REGISTERS
  +--> _MCP_SEND_ASCII_VALUE/MCP_CORE
  +--> _MCP_SET_8BIT_REGISTER/MCP_REGISTERS
  +--> _MCP_SET_16BIT_REGISTER/MCP_REGISTERS
  +--> _MCP_GET_16BIT_REGISTER/MCP_REGISTERS
  +--> _MCP_STATUS_UPDATE_REGISTER/MCP_REGISTERS

MCP_GET_REGISTER_ADDRESS/MCP_CORE             ----- -----  ----- -----  ----- -----
  +--> _MCP_HEX_TO_DEC/MCP_CORE

_MCP_HEX_TO_DEC/MCP_CORE                      ----- -----  ----- -----  ----- -----

_MCP_SEND_ASCII_VALUE/MCP_CORE                ----- -----  ----- -----  ----- -----
  +--> _MCP_DEC_TO_ASCNUMBUF/MCP_CORE

_MCP_DEC_TO_ASCNUMBUF/MCP_CORE                ----- -----  0059H 005DH  ----- -----

_MCP_STATUS_UPDATE_REGISTER/MCP_REGISTER+     21H.3 21H.3  0059H 0059H  ----- -----
... S
  +--> _MCP_CHECK_ADDRESS/MCP_REGISTERS

_MCP_CHECK_ADDRESS/MCP_REGISTERS              ----- -----  ----- -----  ----- -----

UART_GET_TX_BUFFER_FREE_BYTES/UART_DRIVE+     ----- -----  ----- -----  ----- -----
LX51 LINKER/LOCATER V4.66.30.0                                                        01/20/2020  14:03:40  PAGE 10


... R

_UART_SEND_BYTE/UART_DRIVER                   ----- -----  ----- -----  ----- -----

MCP_STATUS_UPDATE_TASK/MCP_CORE               ----- -----  0057H 0057H  ----- -----
  +--> MCP_UPDATE_STATUS/MCP_CORE
  +--> UART_GET_TX_BUFFER_FREE_BYTES/UART_DRIVER
  +--> _UART_SEND_BYTE/UART_DRIVER

MCP_UPDATE_STATUS/MCP_CORE                    ----- -----  ----- -----  ----- -----
  +--> _MCP_IS_8BIT_STATUS_UPDATE_ENABLED/MCP_REGISTERS
  +--> _MCP_GET_8BIT_REGISTER/MCP_REGISTERS
  +--> _MCP_IS_16BIT_STATUS_UPDATE_ENABLED/MCP_REGISTERS
  +--> _MCP_GET_16BIT_REGISTER/MCP_REGISTERS

_MCP_IS_8BIT_STATUS_UPDATE_ENABLED/MCP_R+     ----- -----  ----- -----  ----- -----
... EGISTERS

_MCP_IS_16BIT_STATUS_UPDATE_ENABLED/MCP_+     ----- -----  ----- -----  ----- -----
... REGISTERS

?C_INITSEG                                    ----- -----  ----- -----  ----- -----

*** NEW ROOT ********************************

UART0_ISR/UART_DRIVER                         ----- -----  ----- -----  ----- -----



PUBLIC SYMBOLS OF MODULE:  EFM8BB1_BLDC_PORT.OMF.CRBUILD (ASSERT)


      VALUE       CLASS    TYPE      PUBLIC SYMBOL NAME
      =================================================
      00000021H.4 BIT      BIT       ?_MCP_set_16bit_register?BIT
      00000021H.4 BIT      BIT       ?_MCP_set_8bit_register?BIT
      00000021H.3 BIT      BIT       ?_MCP_status_update_register?BIT
*DEL*:00000000H.0 BIT      BIT       ?_PCA0_enableInt?BIT
      00000000H   NUMBER   ---       ?C?CODESEG
      010002CCH   CODE     ---       ?C?ICALL
      010002D0H   CODE     ---       ?C?ICALL2
      0100029FH   CODE     ---       ?C?ICASE
      01000076H   CODE     ---       ?C?IMUL
      010002D2H   CODE     ---       ?C?LIMUL
      010000DDH   CODE     ---       ?C?LMUL
      010001FAH   CODE     ---       ?C?LNEG
      01000262H   CODE     ---       ?C?LSTKXDATA
      01000256H   CODE     ---       ?C?LSTXDATA
      01000293H   CODE     ---       ?C?OFFXADD
      01000208H   CODE     ---       ?C?SLCMP
      01000242H   CODE     ---       ?C?SLSHR
      01000088H   CODE     ---       ?C?UIDIV
      0100021EH   CODE     ---       ?C?ULCMP
      01000168H   CODE     ---       ?C?ULDIV
      0100022FH   CODE     ---       ?C?ULSHR
      00000000H   NUMBER   ---       ?C?XDATASEG
      010010BEH   CODE     ---       ?C_START
      01000000H   CODE     NEAR LAB  ?C_STARTUP
      010019DEH   CODE     ---       _MCP_get_16bit_register
*DEL*:00000000H   CODE     ---       _MCP_get_16bit_register_isr
      01001AE4H   CODE     ---       _MCP_get_8bit_register
*DEL*:00000000H   CODE     ---       _MCP_get_8bit_register_isr
LX51 LINKER/LOCATER V4.66.30.0                                                        01/20/2020  14:03:40  PAGE 11


      010016FCH   CODE     ---       _MCP_is_16bit_status_update_enabled
      010017DDH   CODE     ---       _MCP_is_8bit_status_update_enabled
      01001308H   CODE     ---       _MCP_set_16bit_register
*DEL*:00000000H   CODE     ---       _MCP_set_16bit_register_isr
      010015FBH   CODE     ---       _MCP_set_8bit_register
*DEL*:00000000H   CODE     ---       _MCP_set_8bit_register_isr
      01001295H   CODE     ---       _MCP_status_update_register
      00000008H   DATA     ---       _MCP_tune_callback
*DEL*:00000000H   CODE     ---       _PCA0_clearIntFlag
*DEL*:00000000H   CODE     ---       _PCA0_enableInt
*DEL*:00000000H   CODE     ---       _PCA0_init
*DEL*:00000000H   CODE     ---       _PCA0_initChannel
*DEL*:00000000H   CODE     ---       _PCA0_readChannel
*DEL*:00000000H   CODE     ---       _PCA0_resetChannel
*DEL*:00000000H   CODE     ---       _PCA0_writeChannel
*DEL*:00000000H   CODE     ---       _PCA0_writeCounter
      01000FE2H   CODE     ---       _PCA_change_duty_cycle
      01001A48H   CODE     ---       _SL_MTR_change_num_poles
      01001AA8H   CODE     ---       _SL_MTR_change_pid_gain
      0100194CH   CODE     ---       _TMR_delay_timer3
      010018FCH   CODE     ---       _UART_receive_byte
      010018A3H   CODE     ---       _UART_send_byte
*SFR* 000000E0H   DATA     BYTE      ACC
*SFR* 000000E0H   DATA     BIT       ACC_ACC0
*SFR* 000000E0H.1 DATA     BIT       ACC_ACC1
*SFR* 000000E0H.2 DATA     BIT       ACC_ACC2
*SFR* 000000E0H.3 DATA     BIT       ACC_ACC3
*SFR* 000000E0H.4 DATA     BIT       ACC_ACC4
*SFR* 000000E0H.5 DATA     BIT       ACC_ACC5
*SFR* 000000E0H.6 DATA     BIT       ACC_ACC6
*SFR* 000000E0H.7 DATA     BIT       ACC_ACC7
      01001B84H   CONST    ---       active_gpio
*SFR* 000000BDH   DATA     WORD      ADC0
*SFR* 000000B3H   DATA     BYTE      ADC0AC
*SFR* 000000BCH   DATA     BYTE      ADC0CF
*SFR* 000000E8H   DATA     BYTE      ADC0CN0
*SFR* 000000E8H.6 DATA     BIT       ADC0CN0_ADBMEN
*SFR* 000000E8H.4 DATA     BIT       ADC0CN0_ADBUSY
*SFR* 000000E8H   DATA     BIT       ADC0CN0_ADCM0
*SFR* 000000E8H.1 DATA     BIT       ADC0CN0_ADCM1
*SFR* 000000E8H.2 DATA     BIT       ADC0CN0_ADCM2
*SFR* 000000E8H.7 DATA     BIT       ADC0CN0_ADEN
*SFR* 000000E8H.5 DATA     BIT       ADC0CN0_ADINT
*SFR* 000000E8H.3 DATA     BIT       ADC0CN0_ADWINT
*SFR* 000000B2H   DATA     BYTE      ADC0CN1
      0100001AH   CODE     ---       ADC0EOC_ISR
*SFR* 000000C3H   DATA     WORD      ADC0GT
*SFR* 000000C4H   DATA     BYTE      ADC0GTH
*SFR* 000000C3H   DATA     BYTE      ADC0GTL
*SFR* 000000BEH   DATA     BYTE      ADC0H
*SFR* 000000BDH   DATA     BYTE      ADC0L
*SFR* 000000C5H   DATA     WORD      ADC0LT
*SFR* 000000C6H   DATA     BYTE      ADC0LTH
*SFR* 000000C5H   DATA     BYTE      ADC0LTL
*SFR* 000000BBH   DATA     BYTE      ADC0MX
*SFR* 000000DFH   DATA     BYTE      ADC0PWR
*SFR* 000000B9H   DATA     BYTE      ADC0TK
      01001B0FH   CODE     ---       ADC_0_enter_DefaultMode_from_RESET
      00000072H   DATA     BYTE      adc_flags
*DEL*:00000000H   CODE     ---       ADC_initialize_adc
      01001B90H   CONST    ---       adc_mux
      02000083H   XDATA    ---       adc_result
LX51 LINKER/LOCATER V4.66.30.0                                                        01/20/2020  14:03:40  PAGE 12


      010016BDH   CODE     ---       ADC_task
*SFR* 000000F0H   DATA     BYTE      B
*SFR* 000000F0H   DATA     BIT       B_B0
*SFR* 000000F0H.1 DATA     BIT       B_B1
*SFR* 000000F0H.2 DATA     BIT       B_B2
*SFR* 000000F0H.3 DATA     BIT       B_B3
*SFR* 000000F0H.4 DATA     BIT       B_B4
*SFR* 000000F0H.5 DATA     BIT       B_B5
*SFR* 000000F0H.6 DATA     BIT       B_B6
*SFR* 000000F0H.7 DATA     BIT       B_B7
*SFR* 00000080H.2 DATA     BIT       BSP_BTN0
*SFR* 00000090H.4 DATA     BIT       BSP_LED0
*SFR* 000000A0H.1 DATA     BIT       BTN0
*SFR* 00000090H.1 DATA     BIT       BTN1
      01001874H   CODE     ---       btn_process
      00000073H   DATA     BYTE      btn_released_time
*SFR* 0000008EH   DATA     BYTE      CKCON0
*SFR* 000000A9H   DATA     BYTE      CLKSEL
      01000056H   CODE     ---       CLOCK_0_enter_DefaultMode_from_RESET
*SFR* 0000009BH   DATA     BYTE      CMP0CN0
*SFR* 0000009DH   DATA     BYTE      CMP0MD
*SFR* 0000009FH   DATA     BYTE      CMP0MX
      01000052H   CODE     ---       CMP1_ISR
*SFR* 000000BFH   DATA     BYTE      CMP1CN0
*SFR* 000000ABH   DATA     BYTE      CMP1MD
*SFR* 000000AAH   DATA     BYTE      CMP1MX
      01001B19H   CODE     ---       CMP_1_enter_DefaultMode_from_RESET
      00000032H   DATA     BYTE      commutation_index
*DEL*:00000000H   CODE     ---       COMP_initialize_comp
      01001B66H   CONST    ---       compMux
*SFR* 000000D2H   DATA     BYTE      CRC0AUTO
*SFR* 000000CEH   DATA     BYTE      CRC0CN0
*SFR* 000000D3H   DATA     BYTE      CRC0CNT
*SFR* 000000DEH   DATA     BYTE      CRC0DAT
*SFR* 000000CFH   DATA     BYTE      CRC0FLIP
*SFR* 000000DDH   DATA     BYTE      CRC0IN
*SFR* 000000ADH   DATA     BYTE      DERIVID
*SFR* 000000B5H   DATA     BYTE      DEVICEID
*SFR* 00000082H   DATA     WORD      DP
*SFR* 00000083H   DATA     BYTE      DPH
*SFR* 00000082H   DATA     BYTE      DPL
*SFR* 000000E6H   DATA     BYTE      EIE1
*SFR* 000000F3H   DATA     BYTE      EIP1
      01001844H   CODE     ---       enter_DefaultMode_from_RESET
      02000042H   XDATA    WORD      error_event_time
*SFR* 000000B7H   DATA     BYTE      FLKEY
      01001B7EH   CONST    ---       freeterminal
      00000020H.2 BIT      BIT       handle_motor_error
*SFR* 000000C7H   DATA     BYTE      HFO0CAL
*SFR* 000000A8H   DATA     BYTE      IE
*SFR* 000000A8H.7 DATA     BIT       IE_EA
*SFR* 000000A8H.4 DATA     BIT       IE_ES0
*SFR* 000000A8H.6 DATA     BIT       IE_ESPI0
*SFR* 000000A8H.1 DATA     BIT       IE_ET0
*SFR* 000000A8H.3 DATA     BIT       IE_ET1
*SFR* 000000A8H.5 DATA     BIT       IE_ET2
*SFR* 000000A8H   DATA     BIT       IE_EX0
*SFR* 000000A8H.2 DATA     BIT       IE_EX1
      01001B45H   CODE     ---       INTERRUPT_0_enter_DefaultMode_from_RESET
*SFR* 000000B8H   DATA     BYTE      IP
*SFR* 000000B8H.4 DATA     BIT       IP_PS0
*SFR* 000000B8H.6 DATA     BIT       IP_PSPI0
LX51 LINKER/LOCATER V4.66.30.0                                                        01/20/2020  14:03:40  PAGE 13


*SFR* 000000B8H.1 DATA     BIT       IP_PT0
*SFR* 000000B8H.3 DATA     BIT       IP_PT1
*SFR* 000000B8H.5 DATA     BIT       IP_PT2
*SFR* 000000B8H   DATA     BIT       IP_PX0
*SFR* 000000B8H.2 DATA     BIT       IP_PX1
      010019BDH   CODE     ---       is_btn1_pressed
*SFR* 000000E4H   DATA     BYTE      IT01CF
      00000020H.3 BIT      BIT       last_motor_stalled
*SFR* 000000B1H   DATA     BYTE      LFO0CN
      01000026H   CODE     ---       main
      02000057H   XDATA    ---       mcp
      02000000H   XDATA    ---       MCP_16_bit_registers
      02000020H   XDATA    ---       MCP_8_bit_registers
      01001973H   CODE     ---       MCP_init
      01001218H   CODE     ---       MCP_init_registers
      01001B8CH   CONST    ---       MCP_reg16_access_type
      00000042H   DATA     ---       MCP_reg16_dirty_bit_map
      00000048H   DATA     ---       MCP_reg16_status_update_map
      01001B8AH   CONST    WORD      MCP_reg8_access_type
      00000040H   DATA     WORD      MCP_reg8_dirty_bit_map
      00000046H   DATA     WORD      MCP_reg8_status_update_map
      00000017H   DATA     ---       MCP_reset_callback
      02000069H   XDATA    ---       mcp_status
      01001B53H   CODE     ---       MCP_task
      0200006BH   XDATA    ---       mcp_tune
      0100156FH   CODE     ---       MTR_calculate_motor_rpm
      01001B2DH   CODE     ---       MTR_calculate_pid
      0100136EH   CODE     ---       MTR_check_motor_spinning
      010015BFH   CODE     ---       MTR_commutate
      01000673H   CODE     ---       MTR_do_quickstart
      01001AD6H   CODE     ---       MTR_pid_compute_newpwm
      01001A5CH   CODE     ---       MTR_pid_init
      01001527H   CODE     ---       MTR_pre_commutation
      01001738H   CODE     ---       MTR_save_zero_crossing_time
      010004E2H   CODE     ---       MTR_start_spinning
      0100167DH   CODE     ---       MTRAPP_init
      01001812H   CODE     ---       MTRAPP_read_direction
      01000E5DH   CODE     ---       MTRAPP_read_target_speed
      01000D54H   CODE     ---       MTRAPP_task
      02000045H   XDATA    BYTE      num_poles
      00000031H   DATA     BYTE      open_phase
*SFR* 00000080H   DATA     BYTE      P0
*SFR* 00000080H   DATA     BIT       P0_B0
*SFR* 00000080H.1 DATA     BIT       P0_B1
*SFR* 00000080H.2 DATA     BIT       P0_B2
*SFR* 00000080H.3 DATA     BIT       P0_B3
*SFR* 00000080H.4 DATA     BIT       P0_B4
*SFR* 00000080H.5 DATA     BIT       P0_B5
*SFR* 00000080H.6 DATA     BIT       P0_B6
*SFR* 00000080H.7 DATA     BIT       P0_B7
*SFR* 000000FEH   DATA     BYTE      P0MASK
*SFR* 000000FDH   DATA     BYTE      P0MAT
*SFR* 000000F1H   DATA     BYTE      P0MDIN
*SFR* 000000A4H   DATA     BYTE      P0MDOUT
*SFR* 000000D4H   DATA     BYTE      P0SKIP
*SFR* 00000090H   DATA     BYTE      P1
*SFR* 00000090H   DATA     BIT       P1_B0
*SFR* 00000090H.1 DATA     BIT       P1_B1
*SFR* 00000090H.2 DATA     BIT       P1_B2
*SFR* 00000090H.3 DATA     BIT       P1_B3
*SFR* 00000090H.4 DATA     BIT       P1_B4
*SFR* 00000090H.5 DATA     BIT       P1_B5
LX51 LINKER/LOCATER V4.66.30.0                                                        01/20/2020  14:03:40  PAGE 14


*SFR* 00000090H.6 DATA     BIT       P1_B6
*SFR* 00000090H.7 DATA     BIT       P1_B7
*SFR* 000000EEH   DATA     BYTE      P1MASK
*SFR* 000000EDH   DATA     BYTE      P1MAT
*SFR* 000000F2H   DATA     BYTE      P1MDIN
*SFR* 000000A5H   DATA     BYTE      P1MDOUT
*SFR* 000000D5H   DATA     BYTE      P1SKIP
*SFR* 000000A0H   DATA     BYTE      P2
*SFR* 000000A0H   DATA     BIT       P2_B0
*SFR* 000000A0H.1 DATA     BIT       P2_B1
*SFR* 000000A6H   DATA     BYTE      P2MDOUT
      01001B3EH   CODE     ---       PBCFG_0_enter_DefaultMode_from_RESET
*SFR* 000000F9H   DATA     WORD      PCA0
*DEL*:00000000H   CODE     ---       PCA0_getIntFlags
*DEL*:00000000H   CODE     ---       PCA0_halt
      01001103H   CODE     ---       PCA0_ISR
*DEL*:00000000H   CODE     ---       PCA0_readCounter
*DEL*:00000000H   CODE     ---       PCA0_reset
*DEL*:00000000H   CODE     ---       PCA0_run
*SFR* 0000009EH   DATA     BYTE      PCA0CENT
*SFR* 0000009CH   DATA     BYTE      PCA0CLR
*SFR* 000000D8H   DATA     BYTE      PCA0CN0
*SFR* 000000D8H   DATA     BIT       PCA0CN0_CCF0
*SFR* 000000D8H.1 DATA     BIT       PCA0CN0_CCF1
*SFR* 000000D8H.2 DATA     BIT       PCA0CN0_CCF2
*SFR* 000000D8H.7 DATA     BIT       PCA0CN0_CF
*SFR* 000000D8H.6 DATA     BIT       PCA0CN0_CR
*SFR* 000000FBH   DATA     WORD      PCA0CP0
*SFR* 000000E9H   DATA     WORD      PCA0CP1
*SFR* 000000EBH   DATA     WORD      PCA0CP2
*SFR* 000000FCH   DATA     BYTE      PCA0CPH0
*SFR* 000000EAH   DATA     BYTE      PCA0CPH1
*SFR* 000000ECH   DATA     BYTE      PCA0CPH2
*SFR* 000000FBH   DATA     BYTE      PCA0CPL0
*SFR* 000000E9H   DATA     BYTE      PCA0CPL1
*SFR* 000000EBH   DATA     BYTE      PCA0CPL2
*SFR* 000000DAH   DATA     BYTE      PCA0CPM0
*SFR* 000000DBH   DATA     BYTE      PCA0CPM1
*SFR* 000000DCH   DATA     BYTE      PCA0CPM2
*SFR* 000000FAH   DATA     BYTE      PCA0H
*SFR* 000000F9H   DATA     BYTE      PCA0L
*SFR* 000000D9H   DATA     BYTE      PCA0MD
*SFR* 00000096H   DATA     BYTE      PCA0POL
*SFR* 000000F7H   DATA     BYTE      PCA0PWM
      01001AC8H   CODE     ---       PCA_0_enter_DefaultMode_from_RESET
*DEL*:00000000H   CODE     ---       PCA_disable_pwm
      01001B4CH   CODE     ---       PCA_enable_pwm
      01001B59H   CODE     ---       PCA_set_initial_polarity
      01001B05H   CODE     ---       PCACH_0_enter_DefaultMode_from_RESET
*SFR* 00000087H   DATA     BYTE      PCON0
      02000032H   XDATA    BYTE      pid_calc_interval
      00000022H.6 BIT      BIT       pid_done
      00000020H.4 BIT      BIT       pid_flag
      01001AF1H   CODE     ---       PORTS_0_enter_DefaultMode_from_RESET
      01001AFBH   CODE     ---       PORTS_1_enter_DefaultMode_from_RESET
      01000019H   CODE     ---       PORTS_2_enter_DefaultMode_from_RESET
*SFR* 000000A0H   DATA     BYTE      PPAGE_SFR
      02000033H   XDATA    BYTE      pre_p0skip
      02000034H   XDATA    BYTE      pre_p1skip
      0200003FH   XDATA    BYTE      pre_port1
      00000027H   DATA     ---       prev_zc_time
*SFR* 000000F6H   DATA     BYTE      PRTDRV
LX51 LINKER/LOCATER V4.66.30.0                                                        01/20/2020  14:03:40  PAGE 15


*SFR* 0000008FH   DATA     BYTE      PSCTL
*SFR* 000000D0H   DATA     BYTE      PSW
*SFR* 000000D0H.6 DATA     BIT       PSW_AC
*SFR* 000000D0H.7 DATA     BIT       PSW_CY
*SFR* 000000D0H.5 DATA     BIT       PSW_F0
*SFR* 000000D0H.1 DATA     BIT       PSW_F1
*SFR* 000000D0H.2 DATA     BIT       PSW_OV
*SFR* 000000D0H   DATA     BIT       PSW_PARITY
*SFR* 000000D0H.3 DATA     BIT       PSW_RS0
*SFR* 000000D0H.4 DATA     BIT       PSW_RS1
*SFR* 000000D1H   DATA     BYTE      REF0CN
*SFR* 000000C9H   DATA     BYTE      REG0CN
      0000006EH   DATA     BYTE      repeated_timer0
*SFR* 000000B6H   DATA     BYTE      REVID
*SFR* 000000EFH   DATA     BYTE      RSTSRC
*SFR* 00000099H   DATA     BYTE      SBUF0
*SFR* 00000098H   DATA     BYTE      SCON0
*SFR* 00000098H.5 DATA     BIT       SCON0_MCE
*SFR* 00000098H.2 DATA     BIT       SCON0_RB8
*SFR* 00000098H.4 DATA     BIT       SCON0_REN
*SFR* 00000098H   DATA     BIT       SCON0_RI
*SFR* 00000098H.7 DATA     BIT       SCON0_SMODE
*SFR* 00000098H.3 DATA     BIT       SCON0_TB8
*SFR* 00000098H.1 DATA     BIT       SCON0_TI
      01001B37H   CODE     ---       SiLabs_Startup
      01001B72H   CONST    ---       skipPattern
      010018D1H   CODE     ---       SL_MTR_init
      01001770H   CODE     ---       SL_MTR_motor
      01001925H   CODE     ---       SL_MTR_start_motor
      0100163CH   CODE     ---       SL_MTR_stop_motor
      01001AB9H   CODE     ---       SL_MTR_time
*DEL*:00000000H   CODE     ---       slab_Assert
      0000003EH   DATA     ---       SLR_minimum_duty
      00000025H   DATA     WORD      SLR_minimum_rpm
      02000052H   XDATA    WORD      SLR_motor_current
      0200003DH   XDATA    WORD      SLR_motor_current_rpm
      00000020H.6 BIT      BIT       SLR_motor_stalled
      000000B3H   IDATA    BYTE      SLR_motor_state
      02000046H   XDATA    WORD      SLR_motor_voltage
      00000037H   DATA     WORD      SLR_pwm_duty
      02000048H   XDATA    BYTE      SLW_current_limit
      0200004DH   XDATA    WORD      SLW_motor_max_rpm
      02000044H   XDATA    BYTE      SLW_oc_debounce
      00000021H.2 BIT      BIT       SLW_pwm_updated
      00000021H.1 BIT      BIT       SLW_rpm_updated
      02000040H   XDATA    WORD      SLW_target_pwm_duty
      0000002BH   DATA     WORD      SLW_target_rpm
      00000020H.5 BIT      BIT       SLW_user_direction
*SFR* 000000D6H   DATA     BYTE      SMB0ADM
*SFR* 000000D7H   DATA     BYTE      SMB0ADR
*SFR* 000000C1H   DATA     BYTE      SMB0CF
*SFR* 000000C0H   DATA     BYTE      SMB0CN0
*SFR* 000000C0H.1 DATA     BIT       SMB0CN0_ACK
*SFR* 000000C0H.3 DATA     BIT       SMB0CN0_ACKRQ
*SFR* 000000C0H.2 DATA     BIT       SMB0CN0_ARBLOST
*SFR* 000000C0H.7 DATA     BIT       SMB0CN0_MASTER
*SFR* 000000C0H   DATA     BIT       SMB0CN0_SI
*SFR* 000000C0H.5 DATA     BIT       SMB0CN0_STA
*SFR* 000000C0H.4 DATA     BIT       SMB0CN0_STO
*SFR* 000000C0H.6 DATA     BIT       SMB0CN0_TXMODE
*SFR* 000000C2H   DATA     BYTE      SMB0DAT
*SFR* 000000ACH   DATA     BYTE      SMB0TC
LX51 LINKER/LOCATER V4.66.30.0                                                        01/20/2020  14:03:40  PAGE 16


*SFR* 00000081H   DATA     BYTE      SP
      00000021H.0 BIT      BIT       speed_updated
*SFR* 000000A1H   DATA     BYTE      SPI0CFG
*SFR* 000000A2H   DATA     BYTE      SPI0CKR
*SFR* 000000F8H   DATA     BYTE      SPI0CN0
*SFR* 000000F8H.5 DATA     BIT       SPI0CN0_MODF
*SFR* 000000F8H.2 DATA     BIT       SPI0CN0_NSSMD0
*SFR* 000000F8H.3 DATA     BIT       SPI0CN0_NSSMD1
*SFR* 000000F8H.4 DATA     BIT       SPI0CN0_RXOVRN
*SFR* 000000F8H   DATA     BIT       SPI0CN0_SPIEN
*SFR* 000000F8H.7 DATA     BIT       SPI0CN0_SPIF
*SFR* 000000F8H.1 DATA     BIT       SPI0CN0_TXBMT
*SFR* 000000F8H.6 DATA     BIT       SPI0CN0_WCOL
*SFR* 000000A3H   DATA     BYTE      SPI0DAT
      01001B60H   CONST    ---       start_delay
*SFR* 00000088H   DATA     BYTE      TCON
*SFR* 00000088H.1 DATA     BIT       TCON_IE0
*SFR* 00000088H.3 DATA     BIT       TCON_IE1
*SFR* 00000088H   DATA     BIT       TCON_IT0
*SFR* 00000088H.2 DATA     BIT       TCON_IT1
*SFR* 00000088H.5 DATA     BIT       TCON_TF0
*SFR* 00000088H.7 DATA     BIT       TCON_TF1
*SFR* 00000088H.4 DATA     BIT       TCON_TR0
*SFR* 00000088H.6 DATA     BIT       TCON_TR1
*SFR* 0000008CH   DATA     BYTE      TH0
*SFR* 0000008DH   DATA     BYTE      TH1
      00000033H   DATA     ---       time_per_rotate
      01001A70H   CODE     ---       TIMER01_0_enter_DefaultMode_from_RESET
      00000070H   DATA     ---       timer0_next
      0000006FH   DATA     BYTE      timer0_state
      01001A83H   CODE     ---       TIMER16_2_enter_DefaultMode_from_RESET
      0100005EH   CODE     ---       TIMER16_3_enter_DefaultMode_from_RESET
      01000072H   CODE     ---       TIMER1_ISR
      0100005AH   CODE     ---       TIMER3_ISR
      01001B23H   CODE     ---       TIMER_SETUP_0_enter_DefaultMode_from_RESET
*SFR* 0000008AH   DATA     BYTE      TL0
*SFR* 0000008BH   DATA     BYTE      TL1
*SFR* 00000089H   DATA     BYTE      TMOD
*SFR* 000000CCH   DATA     WORD      TMR2
*SFR* 000000C8H   DATA     BYTE      TMR2CN0
*SFR* 000000C8H.3 DATA     BIT       TMR2CN0_T2SPLIT
*SFR* 000000C8H   DATA     BIT       TMR2CN0_T2XCLK
*SFR* 000000C8H.4 DATA     BIT       TMR2CN0_TF2CEN
*SFR* 000000C8H.7 DATA     BIT       TMR2CN0_TF2H
*SFR* 000000C8H.6 DATA     BIT       TMR2CN0_TF2L
*SFR* 000000C8H.5 DATA     BIT       TMR2CN0_TF2LEN
*SFR* 000000C8H.2 DATA     BIT       TMR2CN0_TR2
*SFR* 000000CDH   DATA     BYTE      TMR2H
*SFR* 000000CCH   DATA     BYTE      TMR2L
*SFR* 000000CAH   DATA     WORD      TMR2RL
*SFR* 000000CBH   DATA     BYTE      TMR2RLH
*SFR* 000000CAH   DATA     BYTE      TMR2RLL
*SFR* 00000094H   DATA     WORD      TMR3
*SFR* 00000091H   DATA     BYTE      TMR3CN0
*SFR* 00000095H   DATA     BYTE      TMR3H
*SFR* 00000094H   DATA     BYTE      TMR3L
*SFR* 00000092H   DATA     WORD      TMR3RL
*SFR* 00000093H   DATA     BYTE      TMR3RLH
*SFR* 00000092H   DATA     BYTE      TMR3RLL
      01001488H   CODE     ---       UART0_ISR
      0100006EH   CODE     ---       UART_0_enter_DefaultMode_from_RESET
      01001A96H   CODE     ---       UART_get_tx_buffer_free_bytes
LX51 LINKER/LOCATER V4.66.30.0                                                        01/20/2020  14:03:40  PAGE 17


*DEL*:00000000H   CODE     ---       UART_init_buffers
      00000074H   IDATA    ---       UART_rx_buffer
      0000006AH   DATA     ---       UART_rx_buffer_head
      0000006CH   DATA     ---       UART_rx_buffer_tail
      00000084H   IDATA    ---       UART_tx_buffer
      0000006BH   DATA     ---       UART_tx_buffer_head
      0000006DH   DATA     ---       UART_tx_buffer_tail
      00000022H.5 BIT      BIT       UART_tx_busy
      00000053H   DATA     WORD      user_timer
*SFR* 000000FFH   DATA     BYTE      VDM0CN
      010014DEH   CODE     ---       WDT_0_enter_DefaultMode_from_RESET
*SFR* 00000097H   DATA     BYTE      WDTCN
*SFR* 000000E1H   DATA     BYTE      XBR0
*SFR* 000000E2H   DATA     BYTE      XBR1
*SFR* 000000E3H   DATA     BYTE      XBR2
      0000002DH   DATA     ---       zc_commutate_time
      00000039H   DATA     BYTE      zc_count
      0000003AH   DATA     ---       zc_time
      02000056H   XDATA    BYTE      zc_total_count
      02000049H   XDATA    DWORD     zc_total_per_mech_rotation



SYMBOL TABLE OF MODULE:  EFM8BB1_BLDC_PORT.OMF.CRBUILD (ASSERT)

      VALUE       REP       CLASS    TYPE      SYMBOL NAME
      ====================================================
      ---         MODULE    ---      ---       ASSERT

      ---         MODULE    ---      ---       PCA_0
      000000A2H   SFRSYM    DATA     BYTE      SPI0CKR
      00000080H   SFRSYM    DATA     BYTE      P0
      000000D0H.2 SFRSYM    DATA     BIT       PSW_OV
      00000090H   SFRSYM    DATA     BYTE      P1
      00000097H   SFRSYM    DATA     BYTE      WDTCN
      000000A0H   SFRSYM    DATA     BYTE      P2
      000000BCH   SFRSYM    DATA     BYTE      ADC0CF
      000000C8H   SFRSYM    DATA     BIT       TMR2CN0_T2XCLK
      000000C0H.7 SFRSYM    DATA     BIT       SMB0CN0_MASTER
      000000F9H   SFRSYM    DATA     WORD      PCA0
      000000E6H   SFRSYM    DATA     BYTE      EIE1
      000000C0H.1 SFRSYM    DATA     BIT       SMB0CN0_ACK
      0000008FH   SFRSYM    DATA     BYTE      PSCTL
      000000E4H   SFRSYM    DATA     BYTE      IT01CF
      000000C0H.6 SFRSYM    DATA     BIT       SMB0CN0_TXMODE
      000000ADH   SFRSYM    DATA     BYTE      DERIVID
      000000A4H   SFRSYM    DATA     BYTE      P0MDOUT
      000000A5H   SFRSYM    DATA     BYTE      P1MDOUT
      000000E8H.5 SFRSYM    DATA     BIT       ADC0CN0_ADINT
      000000CBH   SFRSYM    DATA     BYTE      TMR2RLH
      000000A6H   SFRSYM    DATA     BYTE      P2MDOUT
      000000A8H   SFRSYM    DATA     BYTE      IE
      00000093H   SFRSYM    DATA     BYTE      TMR3RLH
      000000F3H   SFRSYM    DATA     BYTE      EIP1
      00000098H.2 SFRSYM    DATA     BIT       SCON0_RB8
      000000CAH   SFRSYM    DATA     BYTE      TMR2RLL
      000000FCH   SFRSYM    DATA     BYTE      PCA0CPH0
      00000092H   SFRSYM    DATA     BYTE      TMR3RLL
      000000EAH   SFRSYM    DATA     BYTE      PCA0CPH1
      00000098H.3 SFRSYM    DATA     BIT       SCON0_TB8
      000000F0H   SFRSYM    DATA     BIT       B_B0
      00000082H   SFRSYM    DATA     WORD      DP
LX51 LINKER/LOCATER V4.66.30.0                                                        01/20/2020  14:03:40  PAGE 18


      000000ECH   SFRSYM    DATA     BYTE      PCA0CPH2
      000000F0H.1 SFRSYM    DATA     BIT       B_B1
      000000C3H   SFRSYM    DATA     WORD      ADC0GT
      000000F0H.2 SFRSYM    DATA     BIT       B_B2
      000000FBH   SFRSYM    DATA     BYTE      PCA0CPL0
      000000F0H.3 SFRSYM    DATA     BIT       B_B3
      000000D9H   SFRSYM    DATA     BYTE      PCA0MD
      000000DAH   SFRSYM    DATA     BYTE      PCA0CPM0
      000000E9H   SFRSYM    DATA     BYTE      PCA0CPL1
      000000F0H.4 SFRSYM    DATA     BIT       B_B4
      000000DBH   SFRSYM    DATA     BYTE      PCA0CPM1
      000000EBH   SFRSYM    DATA     BYTE      PCA0CPL2
      000000F0H.5 SFRSYM    DATA     BIT       B_B5
      000000DCH   SFRSYM    DATA     BYTE      PCA0CPM2
      000000B8H   SFRSYM    DATA     BYTE      IP
      000000B9H   SFRSYM    DATA     BYTE      ADC0TK
      000000F0H.6 SFRSYM    DATA     BIT       B_B6
      000000C5H   SFRSYM    DATA     WORD      ADC0LT
      00000098H.5 SFRSYM    DATA     BIT       SCON0_MCE
      000000F0H.7 SFRSYM    DATA     BIT       B_B7
      000000E1H   SFRSYM    DATA     BYTE      XBR0
      000000C1H   SFRSYM    DATA     BYTE      SMB0CF
      000000E2H   SFRSYM    DATA     BYTE      XBR1
      000000C0H.5 SFRSYM    DATA     BIT       SMB0CN0_STA
      000000E3H   SFRSYM    DATA     BYTE      XBR2
      000000BBH   SFRSYM    DATA     BYTE      ADC0MX
      000000E0H   SFRSYM    DATA     BIT       ACC_ACC0
      000000D1H   SFRSYM    DATA     BYTE      REF0CN
      0000008EH   SFRSYM    DATA     BYTE      CKCON0
      000000E0H.1 SFRSYM    DATA     BIT       ACC_ACC1
      000000C9H   SFRSYM    DATA     BYTE      REG0CN
      000000DDH   SFRSYM    DATA     BYTE      CRC0IN
      000000C8H.2 SFRSYM    DATA     BIT       TMR2CN0_TR2
      000000E0H.2 SFRSYM    DATA     BIT       ACC_ACC2
      000000E0H.3 SFRSYM    DATA     BIT       ACC_ACC3
      00000081H   SFRSYM    DATA     BYTE      SP
      0000009DH   SFRSYM    DATA     BYTE      CMP0MD
      000000E0H.4 SFRSYM    DATA     BIT       ACC_ACC4
      000000B1H   SFRSYM    DATA     BYTE      LFO0CN
      000000ABH   SFRSYM    DATA     BYTE      CMP1MD
      000000D8H   SFRSYM    DATA     BIT       PCA0CN0_CCF0
      000000E0H.5 SFRSYM    DATA     BIT       ACC_ACC5
      000000D8H.1 SFRSYM    DATA     BIT       PCA0CN0_CCF1
      000000E0H.6 SFRSYM    DATA     BIT       ACC_ACC6
      000000CCH   SFRSYM    DATA     WORD      TMR2
      000000D8H.2 SFRSYM    DATA     BIT       PCA0CN0_CCF2
      000000E0H.7 SFRSYM    DATA     BIT       ACC_ACC7
      00000094H   SFRSYM    DATA     WORD      TMR3
      000000C0H.3 SFRSYM    DATA     BIT       SMB0CN0_ACKRQ
      000000FFH   SFRSYM    DATA     BYTE      VDM0CN
      000000F1H   SFRSYM    DATA     BYTE      P0MDIN
      00000098H.4 SFRSYM    DATA     BIT       SCON0_REN
      000000ACH   SFRSYM    DATA     BYTE      SMB0TC
      000000F2H   SFRSYM    DATA     BYTE      P1MDIN
      000000C0H.4 SFRSYM    DATA     BIT       SMB0CN0_STO
      000000FEH   SFRSYM    DATA     BYTE      P0MASK
      000000EEH   SFRSYM    DATA     BYTE      P1MASK
      000000D0H.3 SFRSYM    DATA     BIT       PSW_RS0
      000000D8H.7 SFRSYM    DATA     BIT       PCA0CN0_CF
      0000009EH   SFRSYM    DATA     BYTE      PCA0CENT
      000000F8H.4 SFRSYM    DATA     BIT       SPI0CN0_RXOVRN
      000000D0H.4 SFRSYM    DATA     BIT       PSW_RS1
LX51 LINKER/LOCATER V4.66.30.0                                                        01/20/2020  14:03:40  PAGE 19


      000000E8H.7 SFRSYM    DATA     BIT       ADC0CN0_ADEN
      00000089H   SFRSYM    DATA     BYTE      TMOD
      00000088H   SFRSYM    DATA     BYTE      TCON
      000000CFH   SFRSYM    DATA     BYTE      CRC0FLIP
      000000D0H   SFRSYM    DATA     BIT       PSW_PARITY
      000000A8H.4 SFRSYM    DATA     BIT       IE_ES0
      0000009FH   SFRSYM    DATA     BYTE      CMP0MX
      000000A8H.1 SFRSYM    DATA     BIT       IE_ET0
      000000AAH   SFRSYM    DATA     BYTE      CMP1MX
      000000A8H.3 SFRSYM    DATA     BIT       IE_ET1
      000000D4H   SFRSYM    DATA     BYTE      P0SKIP
      000000A8H.5 SFRSYM    DATA     BIT       IE_ET2
      000000D5H   SFRSYM    DATA     BYTE      P1SKIP
      000000E8H   SFRSYM    DATA     BYTE      ADC0CN0
      000000A8H   SFRSYM    DATA     BIT       IE_EX0
      000000B2H   SFRSYM    DATA     BYTE      ADC0CN1
      000000D8H.6 SFRSYM    DATA     BIT       PCA0CN0_CR
      000000A8H.2 SFRSYM    DATA     BIT       IE_EX1
      00000098H.7 SFRSYM    DATA     BIT       SCON0_SMODE
      000000B5H   SFRSYM    DATA     BYTE      DEVICEID
      000000A9H   SFRSYM    DATA     BYTE      CLKSEL
      000000F8H   SFRSYM    DATA     BIT       SPI0CN0_SPIEN
      000000F0H   SFRSYM    DATA     BYTE      B
      000000BEH   SFRSYM    DATA     BYTE      ADC0H
      000000D2H   SFRSYM    DATA     BYTE      CRC0AUTO
      000000E8H.6 SFRSYM    DATA     BIT       ADC0CN0_ADBMEN
      000000CAH   SFRSYM    DATA     WORD      TMR2RL
      000000BDH   SFRSYM    DATA     BYTE      ADC0L
      00000092H   SFRSYM    DATA     WORD      TMR3RL
      000000D8H   SFRSYM    DATA     BYTE      PCA0CN0
      000000E0H   SFRSYM    DATA     BYTE      ACC
      000000FBH   SFRSYM    DATA     WORD      PCA0CP0
      000000E9H   SFRSYM    DATA     WORD      PCA0CP1
      000000EBH   SFRSYM    DATA     WORD      PCA0CP2
      000000CEH   SFRSYM    DATA     BYTE      CRC0CN0
      0000008CH   SFRSYM    DATA     BYTE      TH0
      000000B8H.4 SFRSYM    DATA     BIT       IP_PS0
      0000008DH   SFRSYM    DATA     BYTE      TH1
      000000FAH   SFRSYM    DATA     BYTE      PCA0H
      000000B8H.1 SFRSYM    DATA     BIT       IP_PT0
      000000B8H.3 SFRSYM    DATA     BIT       IP_PT1
      000000C0H.2 SFRSYM    DATA     BIT       SMB0CN0_ARBLOST
      000000B8H.5 SFRSYM    DATA     BIT       IP_PT2
      0000008AH   SFRSYM    DATA     BYTE      TL0
      000000F8H.1 SFRSYM    DATA     BIT       SPI0CN0_TXBMT
      000000D0H.5 SFRSYM    DATA     BIT       PSW_F0
      000000A8H.6 SFRSYM    DATA     BIT       IE_ESPI0
      0000008BH   SFRSYM    DATA     BYTE      TL1
      000000F9H   SFRSYM    DATA     BYTE      PCA0L
      000000C0H   SFRSYM    DATA     BIT       SMB0CN0_SI
      000000D0H.1 SFRSYM    DATA     BIT       PSW_F1
      00000080H   SFRSYM    DATA     BIT       P0_B0
      000000B8H   SFRSYM    DATA     BIT       IP_PX0
      00000090H   SFRSYM    DATA     BIT       P1_B0
      00000080H.1 SFRSYM    DATA     BIT       P0_B1
      000000B8H.2 SFRSYM    DATA     BIT       IP_PX1
      0000009BH   SFRSYM    DATA     BYTE      CMP0CN0
      00000088H.1 SFRSYM    DATA     BIT       TCON_IE0
      000000A0H   SFRSYM    DATA     BIT       P2_B0
      00000090H.1 SFRSYM    DATA     BIT       P1_B1
      00000080H.2 SFRSYM    DATA     BIT       P0_B2
      000000BFH   SFRSYM    DATA     BYTE      CMP1CN0
LX51 LINKER/LOCATER V4.66.30.0                                                        01/20/2020  14:03:40  PAGE 20


      00000088H.3 SFRSYM    DATA     BIT       TCON_IE1
      000000A0H.1 SFRSYM    DATA     BIT       P2_B1
      00000090H.2 SFRSYM    DATA     BIT       P1_B2
      00000080H.3 SFRSYM    DATA     BIT       P0_B3
      000000C0H   SFRSYM    DATA     BYTE      SMB0CN0
      00000090H.3 SFRSYM    DATA     BIT       P1_B3
      00000080H.4 SFRSYM    DATA     BIT       P0_B4
      00000090H.4 SFRSYM    DATA     BIT       P1_B4
      00000080H.5 SFRSYM    DATA     BIT       P0_B5
      00000090H.5 SFRSYM    DATA     BIT       P1_B5
      00000080H.6 SFRSYM    DATA     BIT       P0_B6
      00000090H.6 SFRSYM    DATA     BIT       P1_B6
      00000080H.7 SFRSYM    DATA     BIT       P0_B7
      00000090H.7 SFRSYM    DATA     BIT       P1_B7
      00000083H   SFRSYM    DATA     BYTE      DPH
      000000C4H   SFRSYM    DATA     BYTE      ADC0GTH
      000000C8H.7 SFRSYM    DATA     BIT       TMR2CN0_TF2H
      000000C8H.3 SFRSYM    DATA     BIT       TMR2CN0_T2SPLIT
      000000D0H.6 SFRSYM    DATA     BIT       PSW_AC
      000000F8H   SFRSYM    DATA     BYTE      SPI0CN0
      000000C7H   SFRSYM    DATA     BYTE      HFO0CAL
      00000088H.5 SFRSYM    DATA     BIT       TCON_TF0
      00000098H   SFRSYM    DATA     BIT       SCON0_RI
      00000082H   SFRSYM    DATA     BYTE      DPL
      00000088H.7 SFRSYM    DATA     BIT       TCON_TF1
      00000099H   SFRSYM    DATA     BYTE      SBUF0
      00000087H   SFRSYM    DATA     BYTE      PCON0
      000000C3H   SFRSYM    DATA     BYTE      ADC0GTL
      000000C8H.6 SFRSYM    DATA     BIT       TMR2CN0_TF2L
      00000098H.1 SFRSYM    DATA     BIT       SCON0_TI
      000000E8H   SFRSYM    DATA     BIT       ADC0CN0_ADCM0
      000000C6H   SFRSYM    DATA     BYTE      ADC0LTH
      00000088H   SFRSYM    DATA     BIT       TCON_IT0
      000000E8H.1 SFRSYM    DATA     BIT       ADC0CN0_ADCM1
      000000EFH   SFRSYM    DATA     BYTE      RSTSRC
      000000FDH   SFRSYM    DATA     BYTE      P0MAT
      000000DEH   SFRSYM    DATA     BYTE      CRC0DAT
      00000088H.2 SFRSYM    DATA     BIT       TCON_IT1
      000000E8H.2 SFRSYM    DATA     BIT       ADC0CN0_ADCM2
      00000098H   SFRSYM    DATA     BYTE      SCON0
      000000F6H   SFRSYM    DATA     BYTE      PRTDRV
      000000EDH   SFRSYM    DATA     BYTE      P1MAT
      000000E8H.3 SFRSYM    DATA     BIT       ADC0CN0_ADWINT
      000000E8H.4 SFRSYM    DATA     BIT       ADC0CN0_ADBUSY
      000000D6H   SFRSYM    DATA     BYTE      SMB0ADM
      000000C5H   SFRSYM    DATA     BYTE      ADC0LTL
      000000F8H.5 SFRSYM    DATA     BIT       SPI0CN0_MODF
      000000B8H.6 SFRSYM    DATA     BIT       IP_PSPI0
      0000009CH   SFRSYM    DATA     BYTE      PCA0CLR
      000000C8H   SFRSYM    DATA     BYTE      TMR2CN0
      00000091H   SFRSYM    DATA     BYTE      TMR3CN0
      000000D7H   SFRSYM    DATA     BYTE      SMB0ADR
      00000088H.4 SFRSYM    DATA     BIT       TCON_TR0
      000000C8H.4 SFRSYM    DATA     BIT       TMR2CN0_TF2CEN
      00000088H.6 SFRSYM    DATA     BIT       TCON_TR1
      000000C2H   SFRSYM    DATA     BYTE      SMB0DAT
      000000CDH   SFRSYM    DATA     BYTE      TMR2H
      000000A1H   SFRSYM    DATA     BYTE      SPI0CFG
      00000095H   SFRSYM    DATA     BYTE      TMR3H
      000000D3H   SFRSYM    DATA     BYTE      CRC0CNT
      00000096H   SFRSYM    DATA     BYTE      PCA0POL
      000000CCH   SFRSYM    DATA     BYTE      TMR2L
LX51 LINKER/LOCATER V4.66.30.0                                                        01/20/2020  14:03:40  PAGE 21


      000000F8H.7 SFRSYM    DATA     BIT       SPI0CN0_SPIF
      00000094H   SFRSYM    DATA     BYTE      TMR3L
      000000DFH   SFRSYM    DATA     BYTE      ADC0PWR
      000000A8H.7 SFRSYM    DATA     BIT       IE_EA
      000000C8H.5 SFRSYM    DATA     BIT       TMR2CN0_TF2LEN
      000000F8H.6 SFRSYM    DATA     BIT       SPI0CN0_WCOL
      000000F8H.2 SFRSYM    DATA     BIT       SPI0CN0_NSSMD0
      000000D0H.7 SFRSYM    DATA     BIT       PSW_CY
      000000A3H   SFRSYM    DATA     BYTE      SPI0DAT
      000000F8H.3 SFRSYM    DATA     BIT       SPI0CN0_NSSMD1
      000000BDH   SFRSYM    DATA     WORD      ADC0
      000000D0H   SFRSYM    DATA     BYTE      PSW
      000000F7H   SFRSYM    DATA     BYTE      PCA0PWM
      000000B6H   SFRSYM    DATA     BYTE      REVID
      000000B7H   SFRSYM    DATA     BYTE      FLKEY
      000000B3H   SFRSYM    DATA     BYTE      ADC0AC
      00000007H   SYMBOL    DATA     BYTE      val
      00000007H   SYMBOL    DATA     BYTE      flag
      00000007H   SYMBOL    DATA     BYTE      flag
      00000006H   SYMBOL    DATA     BYTE      en
      00000007H   SYMBOL    DATA     BYTE      channel
      00000003H   SYMBOL    DATA     BYTE      channel
      00000004H   SYMBOL    DATA     WORD      value
      00000007H   SYMBOL    DATA     BYTE      lower
      00000006H   SYMBOL    DATA     WORD      value
      00000007H   SYMBOL    DATA     BYTE      timebase
      00000005H   SYMBOL    DATA     BYTE      idleState
      00000007H   SYMBOL    DATA     BYTE      channel
      00000005H   SYMBOL    DATA     BYTE      mode
      00000003H   SYMBOL    DATA     BYTE      pol
      00000006H   SYMBOL    DATA     BYTE      pwmValue
      00000007H   SYMBOL    DATA     BYTE      channel

      ---         MODULE    ---      ---       EFM8BB1_BLDC_PORT
      01000026H   PUBLIC    CODE     ---       main
      01001B37H   PUBLIC    CODE     ---       SiLabs_Startup
      000000A2H   SFRSYM    DATA     BYTE      SPI0CKR
      00000080H   SFRSYM    DATA     BYTE      P0
      000000D0H.2 SFRSYM    DATA     BIT       PSW_OV
      00000090H   SFRSYM    DATA     BYTE      P1
      00000097H   SFRSYM    DATA     BYTE      WDTCN
      000000A0H   SFRSYM    DATA     BYTE      P2
      000000BCH   SFRSYM    DATA     BYTE      ADC0CF
      000000C8H   SFRSYM    DATA     BIT       TMR2CN0_T2XCLK
      000000C0H.7 SFRSYM    DATA     BIT       SMB0CN0_MASTER
      000000F9H   SFRSYM    DATA     WORD      PCA0
      000000E6H   SFRSYM    DATA     BYTE      EIE1
      000000C0H.1 SFRSYM    DATA     BIT       SMB0CN0_ACK
      0000008FH   SFRSYM    DATA     BYTE      PSCTL
      000000E4H   SFRSYM    DATA     BYTE      IT01CF
      000000C0H.6 SFRSYM    DATA     BIT       SMB0CN0_TXMODE
      000000ADH   SFRSYM    DATA     BYTE      DERIVID
      000000A4H   SFRSYM    DATA     BYTE      P0MDOUT
      000000A5H   SFRSYM    DATA     BYTE      P1MDOUT
      000000E8H.5 SFRSYM    DATA     BIT       ADC0CN0_ADINT
      000000CBH   SFRSYM    DATA     BYTE      TMR2RLH
      000000A6H   SFRSYM    DATA     BYTE      P2MDOUT
      000000A8H   SFRSYM    DATA     BYTE      IE
      00000093H   SFRSYM    DATA     BYTE      TMR3RLH
      000000F3H   SFRSYM    DATA     BYTE      EIP1
      00000098H.2 SFRSYM    DATA     BIT       SCON0_RB8
      000000CAH   SFRSYM    DATA     BYTE      TMR2RLL
LX51 LINKER/LOCATER V4.66.30.0                                                        01/20/2020  14:03:40  PAGE 22


      000000FCH   SFRSYM    DATA     BYTE      PCA0CPH0
      00000092H   SFRSYM    DATA     BYTE      TMR3RLL
      000000EAH   SFRSYM    DATA     BYTE      PCA0CPH1
      00000098H.3 SFRSYM    DATA     BIT       SCON0_TB8
      000000F0H   SFRSYM    DATA     BIT       B_B0
      00000082H   SFRSYM    DATA     WORD      DP
      000000ECH   SFRSYM    DATA     BYTE      PCA0CPH2
      000000A0H.1 SFRSYM    DATA     BIT       BTN0
      000000F0H.1 SFRSYM    DATA     BIT       B_B1
      000000C3H   SFRSYM    DATA     WORD      ADC0GT
      00000090H.1 SFRSYM    DATA     BIT       BTN1
      000000F0H.2 SFRSYM    DATA     BIT       B_B2
      000000FBH   SFRSYM    DATA     BYTE      PCA0CPL0
      000000F0H.3 SFRSYM    DATA     BIT       B_B3
      000000D9H   SFRSYM    DATA     BYTE      PCA0MD
      000000DAH   SFRSYM    DATA     BYTE      PCA0CPM0
      000000E9H   SFRSYM    DATA     BYTE      PCA0CPL1
      000000F0H.4 SFRSYM    DATA     BIT       B_B4
      000000DBH   SFRSYM    DATA     BYTE      PCA0CPM1
      000000EBH   SFRSYM    DATA     BYTE      PCA0CPL2
      000000F0H.5 SFRSYM    DATA     BIT       B_B5
      000000DCH   SFRSYM    DATA     BYTE      PCA0CPM2
      000000B8H   SFRSYM    DATA     BYTE      IP
      000000B9H   SFRSYM    DATA     BYTE      ADC0TK
      000000F0H.6 SFRSYM    DATA     BIT       B_B6
      000000C5H   SFRSYM    DATA     WORD      ADC0LT
      00000098H.5 SFRSYM    DATA     BIT       SCON0_MCE
      000000F0H.7 SFRSYM    DATA     BIT       B_B7
      000000E1H   SFRSYM    DATA     BYTE      XBR0
      000000C1H   SFRSYM    DATA     BYTE      SMB0CF
      000000E2H   SFRSYM    DATA     BYTE      XBR1
      000000C0H.5 SFRSYM    DATA     BIT       SMB0CN0_STA
      000000E3H   SFRSYM    DATA     BYTE      XBR2
      000000BBH   SFRSYM    DATA     BYTE      ADC0MX
      000000E0H   SFRSYM    DATA     BIT       ACC_ACC0
      000000D1H   SFRSYM    DATA     BYTE      REF0CN
      0000008EH   SFRSYM    DATA     BYTE      CKCON0
      000000E0H.1 SFRSYM    DATA     BIT       ACC_ACC1
      000000C9H   SFRSYM    DATA     BYTE      REG0CN
      000000DDH   SFRSYM    DATA     BYTE      CRC0IN
      000000C8H.2 SFRSYM    DATA     BIT       TMR2CN0_TR2
      000000E0H.2 SFRSYM    DATA     BIT       ACC_ACC2
      000000E0H.3 SFRSYM    DATA     BIT       ACC_ACC3
      00000081H   SFRSYM    DATA     BYTE      SP
      0000009DH   SFRSYM    DATA     BYTE      CMP0MD
      000000E0H.4 SFRSYM    DATA     BIT       ACC_ACC4
      000000B1H   SFRSYM    DATA     BYTE      LFO0CN
      000000ABH   SFRSYM    DATA     BYTE      CMP1MD
      000000D8H   SFRSYM    DATA     BIT       PCA0CN0_CCF0
      000000E0H.5 SFRSYM    DATA     BIT       ACC_ACC5
      000000D8H.1 SFRSYM    DATA     BIT       PCA0CN0_CCF1
      000000E0H.6 SFRSYM    DATA     BIT       ACC_ACC6
      000000CCH   SFRSYM    DATA     WORD      TMR2
      000000D8H.2 SFRSYM    DATA     BIT       PCA0CN0_CCF2
      000000E0H.7 SFRSYM    DATA     BIT       ACC_ACC7
      00000094H   SFRSYM    DATA     WORD      TMR3
      000000C0H.3 SFRSYM    DATA     BIT       SMB0CN0_ACKRQ
      000000FFH   SFRSYM    DATA     BYTE      VDM0CN
      000000F1H   SFRSYM    DATA     BYTE      P0MDIN
      00000098H.4 SFRSYM    DATA     BIT       SCON0_REN
      000000ACH   SFRSYM    DATA     BYTE      SMB0TC
      000000F2H   SFRSYM    DATA     BYTE      P1MDIN
LX51 LINKER/LOCATER V4.66.30.0                                                        01/20/2020  14:03:40  PAGE 23


      000000C0H.4 SFRSYM    DATA     BIT       SMB0CN0_STO
      000000FEH   SFRSYM    DATA     BYTE      P0MASK
      000000EEH   SFRSYM    DATA     BYTE      P1MASK
      000000D0H.3 SFRSYM    DATA     BIT       PSW_RS0
      000000D8H.7 SFRSYM    DATA     BIT       PCA0CN0_CF
      0000009EH   SFRSYM    DATA     BYTE      PCA0CENT
      000000F8H.4 SFRSYM    DATA     BIT       SPI0CN0_RXOVRN
      000000D0H.4 SFRSYM    DATA     BIT       PSW_RS1
      000000E8H.7 SFRSYM    DATA     BIT       ADC0CN0_ADEN
      00000089H   SFRSYM    DATA     BYTE      TMOD
      00000088H   SFRSYM    DATA     BYTE      TCON
      000000CFH   SFRSYM    DATA     BYTE      CRC0FLIP
      000000D0H   SFRSYM    DATA     BIT       PSW_PARITY
      000000A8H.4 SFRSYM    DATA     BIT       IE_ES0
      0000009FH   SFRSYM    DATA     BYTE      CMP0MX
      000000A8H.1 SFRSYM    DATA     BIT       IE_ET0
      000000AAH   SFRSYM    DATA     BYTE      CMP1MX
      000000A8H.3 SFRSYM    DATA     BIT       IE_ET1
      000000D4H   SFRSYM    DATA     BYTE      P0SKIP
      000000A8H.5 SFRSYM    DATA     BIT       IE_ET2
      000000D5H   SFRSYM    DATA     BYTE      P1SKIP
      000000E8H   SFRSYM    DATA     BYTE      ADC0CN0
      000000A8H   SFRSYM    DATA     BIT       IE_EX0
      000000B2H   SFRSYM    DATA     BYTE      ADC0CN1
      000000D8H.6 SFRSYM    DATA     BIT       PCA0CN0_CR
      000000A8H.2 SFRSYM    DATA     BIT       IE_EX1
      00000098H.7 SFRSYM    DATA     BIT       SCON0_SMODE
      000000B5H   SFRSYM    DATA     BYTE      DEVICEID
      000000A9H   SFRSYM    DATA     BYTE      CLKSEL
      000000F8H   SFRSYM    DATA     BIT       SPI0CN0_SPIEN
      000000F0H   SFRSYM    DATA     BYTE      B
      000000BEH   SFRSYM    DATA     BYTE      ADC0H
      000000D2H   SFRSYM    DATA     BYTE      CRC0AUTO
      000000E8H.6 SFRSYM    DATA     BIT       ADC0CN0_ADBMEN
      000000CAH   SFRSYM    DATA     WORD      TMR2RL
      000000BDH   SFRSYM    DATA     BYTE      ADC0L
      00000092H   SFRSYM    DATA     WORD      TMR3RL
      000000D8H   SFRSYM    DATA     BYTE      PCA0CN0
      000000E0H   SFRSYM    DATA     BYTE      ACC
      000000FBH   SFRSYM    DATA     WORD      PCA0CP0
      000000E9H   SFRSYM    DATA     WORD      PCA0CP1
      000000EBH   SFRSYM    DATA     WORD      PCA0CP2
      000000CEH   SFRSYM    DATA     BYTE      CRC0CN0
      00000090H.4 SFRSYM    DATA     BIT       BSP_LED0
      0000008CH   SFRSYM    DATA     BYTE      TH0
      000000B8H.4 SFRSYM    DATA     BIT       IP_PS0
      0000008DH   SFRSYM    DATA     BYTE      TH1
      000000FAH   SFRSYM    DATA     BYTE      PCA0H
      000000B8H.1 SFRSYM    DATA     BIT       IP_PT0
      000000B8H.3 SFRSYM    DATA     BIT       IP_PT1
      000000C0H.2 SFRSYM    DATA     BIT       SMB0CN0_ARBLOST
      000000B8H.5 SFRSYM    DATA     BIT       IP_PT2
      0000008AH   SFRSYM    DATA     BYTE      TL0
      000000F8H.1 SFRSYM    DATA     BIT       SPI0CN0_TXBMT
      000000D0H.5 SFRSYM    DATA     BIT       PSW_F0
      000000A8H.6 SFRSYM    DATA     BIT       IE_ESPI0
      0000008BH   SFRSYM    DATA     BYTE      TL1
      000000F9H   SFRSYM    DATA     BYTE      PCA0L
      000000C0H   SFRSYM    DATA     BIT       SMB0CN0_SI
      000000D0H.1 SFRSYM    DATA     BIT       PSW_F1
      00000080H   SFRSYM    DATA     BIT       P0_B0
      000000B8H   SFRSYM    DATA     BIT       IP_PX0
LX51 LINKER/LOCATER V4.66.30.0                                                        01/20/2020  14:03:40  PAGE 24


      00000090H   SFRSYM    DATA     BIT       P1_B0
      00000080H.1 SFRSYM    DATA     BIT       P0_B1
      000000B8H.2 SFRSYM    DATA     BIT       IP_PX1
      0000009BH   SFRSYM    DATA     BYTE      CMP0CN0
      00000088H.1 SFRSYM    DATA     BIT       TCON_IE0
      000000A0H   SFRSYM    DATA     BIT       P2_B0
      00000090H.1 SFRSYM    DATA     BIT       P1_B1
      00000080H.2 SFRSYM    DATA     BIT       P0_B2
      000000BFH   SFRSYM    DATA     BYTE      CMP1CN0
      00000088H.3 SFRSYM    DATA     BIT       TCON_IE1
      000000A0H.1 SFRSYM    DATA     BIT       P2_B1
      00000090H.2 SFRSYM    DATA     BIT       P1_B2
      00000080H.3 SFRSYM    DATA     BIT       P0_B3
      000000C0H   SFRSYM    DATA     BYTE      SMB0CN0
      00000090H.3 SFRSYM    DATA     BIT       P1_B3
      00000080H.4 SFRSYM    DATA     BIT       P0_B4
      00000090H.4 SFRSYM    DATA     BIT       P1_B4
      00000080H.5 SFRSYM    DATA     BIT       P0_B5
      00000090H.5 SFRSYM    DATA     BIT       P1_B5
      00000080H.6 SFRSYM    DATA     BIT       P0_B6
      00000090H.6 SFRSYM    DATA     BIT       P1_B6
      00000080H.7 SFRSYM    DATA     BIT       P0_B7
      00000090H.7 SFRSYM    DATA     BIT       P1_B7
      00000080H.2 SFRSYM    DATA     BIT       BSP_BTN0
      00000083H   SFRSYM    DATA     BYTE      DPH
      000000C4H   SFRSYM    DATA     BYTE      ADC0GTH
      000000C8H.7 SFRSYM    DATA     BIT       TMR2CN0_TF2H
      000000C8H.3 SFRSYM    DATA     BIT       TMR2CN0_T2SPLIT
      000000D0H.6 SFRSYM    DATA     BIT       PSW_AC
      000000F8H   SFRSYM    DATA     BYTE      SPI0CN0
      000000C7H   SFRSYM    DATA     BYTE      HFO0CAL
      00000088H.5 SFRSYM    DATA     BIT       TCON_TF0
      00000098H   SFRSYM    DATA     BIT       SCON0_RI
      00000082H   SFRSYM    DATA     BYTE      DPL
      00000088H.7 SFRSYM    DATA     BIT       TCON_TF1
      00000099H   SFRSYM    DATA     BYTE      SBUF0
      00000087H   SFRSYM    DATA     BYTE      PCON0
      000000C3H   SFRSYM    DATA     BYTE      ADC0GTL
      000000C8H.6 SFRSYM    DATA     BIT       TMR2CN0_TF2L
      00000098H.1 SFRSYM    DATA     BIT       SCON0_TI
      000000E8H   SFRSYM    DATA     BIT       ADC0CN0_ADCM0
      000000C6H   SFRSYM    DATA     BYTE      ADC0LTH
      00000088H   SFRSYM    DATA     BIT       TCON_IT0
      000000E8H.1 SFRSYM    DATA     BIT       ADC0CN0_ADCM1
      000000EFH   SFRSYM    DATA     BYTE      RSTSRC
      000000FDH   SFRSYM    DATA     BYTE      P0MAT
      000000DEH   SFRSYM    DATA     BYTE      CRC0DAT
      00000088H.2 SFRSYM    DATA     BIT       TCON_IT1
      000000E8H.2 SFRSYM    DATA     BIT       ADC0CN0_ADCM2
      00000098H   SFRSYM    DATA     BYTE      SCON0
      000000F6H   SFRSYM    DATA     BYTE      PRTDRV
      000000EDH   SFRSYM    DATA     BYTE      P1MAT
      000000E8H.3 SFRSYM    DATA     BIT       ADC0CN0_ADWINT
      000000E8H.4 SFRSYM    DATA     BIT       ADC0CN0_ADBUSY
      000000D6H   SFRSYM    DATA     BYTE      SMB0ADM
      000000C5H   SFRSYM    DATA     BYTE      ADC0LTL
      000000F8H.5 SFRSYM    DATA     BIT       SPI0CN0_MODF
      000000B8H.6 SFRSYM    DATA     BIT       IP_PSPI0
      0000009CH   SFRSYM    DATA     BYTE      PCA0CLR
      000000C8H   SFRSYM    DATA     BYTE      TMR2CN0
      00000091H   SFRSYM    DATA     BYTE      TMR3CN0
      000000D7H   SFRSYM    DATA     BYTE      SMB0ADR
LX51 LINKER/LOCATER V4.66.30.0                                                        01/20/2020  14:03:40  PAGE 25


      00000088H.4 SFRSYM    DATA     BIT       TCON_TR0
      000000C8H.4 SFRSYM    DATA     BIT       TMR2CN0_TF2CEN
      00000088H.6 SFRSYM    DATA     BIT       TCON_TR1
      000000C2H   SFRSYM    DATA     BYTE      SMB0DAT
      000000CDH   SFRSYM    DATA     BYTE      TMR2H
      000000A1H   SFRSYM    DATA     BYTE      SPI0CFG
      00000095H   SFRSYM    DATA     BYTE      TMR3H
      000000D3H   SFRSYM    DATA     BYTE      CRC0CNT
      00000096H   SFRSYM    DATA     BYTE      PCA0POL
      000000CCH   SFRSYM    DATA     BYTE      TMR2L
      000000F8H.7 SFRSYM    DATA     BIT       SPI0CN0_SPIF
      00000094H   SFRSYM    DATA     BYTE      TMR3L
      000000DFH   SFRSYM    DATA     BYTE      ADC0PWR
      000000A8H.7 SFRSYM    DATA     BIT       IE_EA
      000000C8H.5 SFRSYM    DATA     BIT       TMR2CN0_TF2LEN
      000000F8H.6 SFRSYM    DATA     BIT       SPI0CN0_WCOL
      000000F8H.2 SFRSYM    DATA     BIT       SPI0CN0_NSSMD0
      000000D0H.7 SFRSYM    DATA     BIT       PSW_CY
      000000A3H   SFRSYM    DATA     BYTE      SPI0DAT
      000000F8H.3 SFRSYM    DATA     BIT       SPI0CN0_NSSMD1
      000000BDH   SFRSYM    DATA     WORD      ADC0
      000000D0H   SFRSYM    DATA     BYTE      PSW
      000000F7H   SFRSYM    DATA     BYTE      PCA0PWM
      000000B6H   SFRSYM    DATA     BYTE      REVID
      000000B7H   SFRSYM    DATA     BYTE      FLKEY
      000000B3H   SFRSYM    DATA     BYTE      ADC0AC
      01001B5DH   SYMBOL    CODE     ---       _APP_tune_callback
      0100001EH   SYMBOL    CODE     ---       APP_reset

      01001B37H   BLOCK     CODE     ---       LVL=0
      01001B37H   LINE      CODE     ---       #28
      01001B37H   LINE      CODE     ---       #29
      01001B37H   LINE      CODE     ---       #30
      01001B3AH   LINE      CODE     ---       #31
      01001B3DH   LINE      CODE     ---       #32
      ---         BLOCKEND  ---      ---       LVL=0

      01000026H   BLOCK     CODE     ---       LVL=0
      01000026H   LINE      CODE     ---       #38
      01000026H   LINE      CODE     ---       #39
      01000026H   LINE      CODE     ---       #40
      01000029H   LINE      CODE     ---       #42
      01000032H   LINE      CODE     ---       #43
      0100003BH   LINE      CODE     ---       #44
      0100003EH   LINE      CODE     ---       #45
      01000041H   LINE      CODE     ---       #46
      01000044H   LINE      CODE     ---       #49
      01000044H   LINE      CODE     ---       #50
      01000044H   LINE      CODE     ---       #51
      01000047H   LINE      CODE     ---       #52
      0100004AH   LINE      CODE     ---       #53
      0100004DH   LINE      CODE     ---       #54
      01000050H   LINE      CODE     ---       #55
      ---         BLOCKEND  ---      ---       LVL=0

      01001B5DH   BLOCK     CODE     ---       LVL=0
      00000006H   SYMBOL    DATA     WORD      pwm
      00000004H   SYMBOL    DATA     WORD      disp
      01001B5DH   LINE      CODE     ---       #184
      01001B5DH   LINE      CODE     ---       #185
      01001B5DH   LINE      CODE     ---       #187
      01001B5DH   LINE      CODE     ---       #188
LX51 LINKER/LOCATER V4.66.30.0                                                        01/20/2020  14:03:40  PAGE 26


      01001B5FH   LINE      CODE     ---       #189
      ---         BLOCKEND  ---      ---       LVL=0

      0100001EH   BLOCK     CODE     ---       LVL=0
      0100001EH   LINE      CODE     ---       #201
      0100001EH   LINE      CODE     ---       #202
      0100001EH   LINE      CODE     ---       #203
      01000021H   LINE      CODE     ---       #204
      01000022H   LINE      CODE     ---       #205
      ---         BLOCKEND  ---      ---       LVL=0

      ---         MODULE    ---      ---       INITDEVICE
      01000019H   PUBLIC    CODE     ---       PORTS_2_enter_DefaultMode_from_RESET
      0100005EH   PUBLIC    CODE     ---       TIMER16_3_enter_DefaultMode_from_RESET
      01001B45H   PUBLIC    CODE     ---       INTERRUPT_0_enter_DefaultMode_from_RESET
      0100006EH   PUBLIC    CODE     ---       UART_0_enter_DefaultMode_from_RESET
      01001B23H   PUBLIC    CODE     ---       TIMER_SETUP_0_enter_DefaultMode_from_RESET
      01001A83H   PUBLIC    CODE     ---       TIMER16_2_enter_DefaultMode_from_RESET
      01001A70H   PUBLIC    CODE     ---       TIMER01_0_enter_DefaultMode_from_RESET
      01001B19H   PUBLIC    CODE     ---       CMP_1_enter_DefaultMode_from_RESET
      01001B0FH   PUBLIC    CODE     ---       ADC_0_enter_DefaultMode_from_RESET
      01001B05H   PUBLIC    CODE     ---       PCACH_0_enter_DefaultMode_from_RESET
      01001AC8H   PUBLIC    CODE     ---       PCA_0_enter_DefaultMode_from_RESET
      01000056H   PUBLIC    CODE     ---       CLOCK_0_enter_DefaultMode_from_RESET
      01001B3EH   PUBLIC    CODE     ---       PBCFG_0_enter_DefaultMode_from_RESET
      01001AFBH   PUBLIC    CODE     ---       PORTS_1_enter_DefaultMode_from_RESET
      01001AF1H   PUBLIC    CODE     ---       PORTS_0_enter_DefaultMode_from_RESET
      010014DEH   PUBLIC    CODE     ---       WDT_0_enter_DefaultMode_from_RESET
      01001844H   PUBLIC    CODE     ---       enter_DefaultMode_from_RESET
      000000A2H   SFRSYM    DATA     BYTE      SPI0CKR
      00000080H   SFRSYM    DATA     BYTE      P0
      000000D0H.2 SFRSYM    DATA     BIT       PSW_OV
      00000090H   SFRSYM    DATA     BYTE      P1
      00000097H   SFRSYM    DATA     BYTE      WDTCN
      000000A0H   SFRSYM    DATA     BYTE      P2
      000000BCH   SFRSYM    DATA     BYTE      ADC0CF
      000000C8H   SFRSYM    DATA     BIT       TMR2CN0_T2XCLK
      000000C0H.7 SFRSYM    DATA     BIT       SMB0CN0_MASTER
      000000F9H   SFRSYM    DATA     WORD      PCA0
      000000E6H   SFRSYM    DATA     BYTE      EIE1
      000000C0H.1 SFRSYM    DATA     BIT       SMB0CN0_ACK
      0000008FH   SFRSYM    DATA     BYTE      PSCTL
      000000E4H   SFRSYM    DATA     BYTE      IT01CF
      000000C0H.6 SFRSYM    DATA     BIT       SMB0CN0_TXMODE
      000000ADH   SFRSYM    DATA     BYTE      DERIVID
      000000A4H   SFRSYM    DATA     BYTE      P0MDOUT
      000000A5H   SFRSYM    DATA     BYTE      P1MDOUT
      000000E8H.5 SFRSYM    DATA     BIT       ADC0CN0_ADINT
      000000CBH   SFRSYM    DATA     BYTE      TMR2RLH
      000000A6H   SFRSYM    DATA     BYTE      P2MDOUT
      000000A8H   SFRSYM    DATA     BYTE      IE
      00000093H   SFRSYM    DATA     BYTE      TMR3RLH
      000000F3H   SFRSYM    DATA     BYTE      EIP1
      00000098H.2 SFRSYM    DATA     BIT       SCON0_RB8
      000000CAH   SFRSYM    DATA     BYTE      TMR2RLL
      000000FCH   SFRSYM    DATA     BYTE      PCA0CPH0
      00000092H   SFRSYM    DATA     BYTE      TMR3RLL
      000000EAH   SFRSYM    DATA     BYTE      PCA0CPH1
      00000098H.3 SFRSYM    DATA     BIT       SCON0_TB8
      000000F0H   SFRSYM    DATA     BIT       B_B0
      00000082H   SFRSYM    DATA     WORD      DP
      000000ECH   SFRSYM    DATA     BYTE      PCA0CPH2
LX51 LINKER/LOCATER V4.66.30.0                                                        01/20/2020  14:03:40  PAGE 27


      000000F0H.1 SFRSYM    DATA     BIT       B_B1
      000000C3H   SFRSYM    DATA     WORD      ADC0GT
      000000F0H.2 SFRSYM    DATA     BIT       B_B2
      000000FBH   SFRSYM    DATA     BYTE      PCA0CPL0
      000000F0H.3 SFRSYM    DATA     BIT       B_B3
      000000D9H   SFRSYM    DATA     BYTE      PCA0MD
      000000DAH   SFRSYM    DATA     BYTE      PCA0CPM0
      000000E9H   SFRSYM    DATA     BYTE      PCA0CPL1
      000000F0H.4 SFRSYM    DATA     BIT       B_B4
      000000DBH   SFRSYM    DATA     BYTE      PCA0CPM1
      000000EBH   SFRSYM    DATA     BYTE      PCA0CPL2
      000000F0H.5 SFRSYM    DATA     BIT       B_B5
      000000DCH   SFRSYM    DATA     BYTE      PCA0CPM2
      000000B8H   SFRSYM    DATA     BYTE      IP
      000000B9H   SFRSYM    DATA     BYTE      ADC0TK
      000000F0H.6 SFRSYM    DATA     BIT       B_B6
      000000C5H   SFRSYM    DATA     WORD      ADC0LT
      00000098H.5 SFRSYM    DATA     BIT       SCON0_MCE
      000000F0H.7 SFRSYM    DATA     BIT       B_B7
      000000E1H   SFRSYM    DATA     BYTE      XBR0
      000000C1H   SFRSYM    DATA     BYTE      SMB0CF
      000000E2H   SFRSYM    DATA     BYTE      XBR1
      000000C0H.5 SFRSYM    DATA     BIT       SMB0CN0_STA
      000000E3H   SFRSYM    DATA     BYTE      XBR2
      000000BBH   SFRSYM    DATA     BYTE      ADC0MX
      000000E0H   SFRSYM    DATA     BIT       ACC_ACC0
      000000D1H   SFRSYM    DATA     BYTE      REF0CN
      0000008EH   SFRSYM    DATA     BYTE      CKCON0
      000000E0H.1 SFRSYM    DATA     BIT       ACC_ACC1
      000000C9H   SFRSYM    DATA     BYTE      REG0CN
      000000DDH   SFRSYM    DATA     BYTE      CRC0IN
      000000C8H.2 SFRSYM    DATA     BIT       TMR2CN0_TR2
      000000E0H.2 SFRSYM    DATA     BIT       ACC_ACC2
      000000E0H.3 SFRSYM    DATA     BIT       ACC_ACC3
      00000081H   SFRSYM    DATA     BYTE      SP
      0000009DH   SFRSYM    DATA     BYTE      CMP0MD
      000000E0H.4 SFRSYM    DATA     BIT       ACC_ACC4
      000000B1H   SFRSYM    DATA     BYTE      LFO0CN
      000000ABH   SFRSYM    DATA     BYTE      CMP1MD
      000000D8H   SFRSYM    DATA     BIT       PCA0CN0_CCF0
      000000E0H.5 SFRSYM    DATA     BIT       ACC_ACC5
      000000D8H.1 SFRSYM    DATA     BIT       PCA0CN0_CCF1
      000000E0H.6 SFRSYM    DATA     BIT       ACC_ACC6
      000000CCH   SFRSYM    DATA     WORD      TMR2
      000000D8H.2 SFRSYM    DATA     BIT       PCA0CN0_CCF2
      000000E0H.7 SFRSYM    DATA     BIT       ACC_ACC7
      00000094H   SFRSYM    DATA     WORD      TMR3
      000000C0H.3 SFRSYM    DATA     BIT       SMB0CN0_ACKRQ
      000000FFH   SFRSYM    DATA     BYTE      VDM0CN
      000000F1H   SFRSYM    DATA     BYTE      P0MDIN
      00000098H.4 SFRSYM    DATA     BIT       SCON0_REN
      000000ACH   SFRSYM    DATA     BYTE      SMB0TC
      000000F2H   SFRSYM    DATA     BYTE      P1MDIN
      000000C0H.4 SFRSYM    DATA     BIT       SMB0CN0_STO
      000000FEH   SFRSYM    DATA     BYTE      P0MASK
      000000EEH   SFRSYM    DATA     BYTE      P1MASK
      000000D0H.3 SFRSYM    DATA     BIT       PSW_RS0
      000000D8H.7 SFRSYM    DATA     BIT       PCA0CN0_CF
      0000009EH   SFRSYM    DATA     BYTE      PCA0CENT
      000000F8H.4 SFRSYM    DATA     BIT       SPI0CN0_RXOVRN
      000000D0H.4 SFRSYM    DATA     BIT       PSW_RS1
      000000E8H.7 SFRSYM    DATA     BIT       ADC0CN0_ADEN
LX51 LINKER/LOCATER V4.66.30.0                                                        01/20/2020  14:03:40  PAGE 28


      00000089H   SFRSYM    DATA     BYTE      TMOD
      00000088H   SFRSYM    DATA     BYTE      TCON
      000000CFH   SFRSYM    DATA     BYTE      CRC0FLIP
      000000D0H   SFRSYM    DATA     BIT       PSW_PARITY
      000000A8H.4 SFRSYM    DATA     BIT       IE_ES0
      0000009FH   SFRSYM    DATA     BYTE      CMP0MX
      000000A8H.1 SFRSYM    DATA     BIT       IE_ET0
      000000AAH   SFRSYM    DATA     BYTE      CMP1MX
      000000A8H.3 SFRSYM    DATA     BIT       IE_ET1
      000000D4H   SFRSYM    DATA     BYTE      P0SKIP
      000000A8H.5 SFRSYM    DATA     BIT       IE_ET2
      000000D5H   SFRSYM    DATA     BYTE      P1SKIP
      000000E8H   SFRSYM    DATA     BYTE      ADC0CN0
      000000A8H   SFRSYM    DATA     BIT       IE_EX0
      000000B2H   SFRSYM    DATA     BYTE      ADC0CN1
      000000D8H.6 SFRSYM    DATA     BIT       PCA0CN0_CR
      000000A8H.2 SFRSYM    DATA     BIT       IE_EX1
      00000098H.7 SFRSYM    DATA     BIT       SCON0_SMODE
      000000B5H   SFRSYM    DATA     BYTE      DEVICEID
      000000A9H   SFRSYM    DATA     BYTE      CLKSEL
      000000F8H   SFRSYM    DATA     BIT       SPI0CN0_SPIEN
      000000F0H   SFRSYM    DATA     BYTE      B
      000000BEH   SFRSYM    DATA     BYTE      ADC0H
      000000D2H   SFRSYM    DATA     BYTE      CRC0AUTO
      000000E8H.6 SFRSYM    DATA     BIT       ADC0CN0_ADBMEN
      000000CAH   SFRSYM    DATA     WORD      TMR2RL
      000000BDH   SFRSYM    DATA     BYTE      ADC0L
      00000092H   SFRSYM    DATA     WORD      TMR3RL
      000000D8H   SFRSYM    DATA     BYTE      PCA0CN0
      000000E0H   SFRSYM    DATA     BYTE      ACC
      000000FBH   SFRSYM    DATA     WORD      PCA0CP0
      000000E9H   SFRSYM    DATA     WORD      PCA0CP1
      000000EBH   SFRSYM    DATA     WORD      PCA0CP2
      000000CEH   SFRSYM    DATA     BYTE      CRC0CN0
      0000008CH   SFRSYM    DATA     BYTE      TH0
      000000B8H.4 SFRSYM    DATA     BIT       IP_PS0
      0000008DH   SFRSYM    DATA     BYTE      TH1
      000000FAH   SFRSYM    DATA     BYTE      PCA0H
      000000B8H.1 SFRSYM    DATA     BIT       IP_PT0
      000000B8H.3 SFRSYM    DATA     BIT       IP_PT1
      000000C0H.2 SFRSYM    DATA     BIT       SMB0CN0_ARBLOST
      000000B8H.5 SFRSYM    DATA     BIT       IP_PT2
      0000008AH   SFRSYM    DATA     BYTE      TL0
      000000F8H.1 SFRSYM    DATA     BIT       SPI0CN0_TXBMT
      000000D0H.5 SFRSYM    DATA     BIT       PSW_F0
      000000A8H.6 SFRSYM    DATA     BIT       IE_ESPI0
      0000008BH   SFRSYM    DATA     BYTE      TL1
      000000F9H   SFRSYM    DATA     BYTE      PCA0L
      000000C0H   SFRSYM    DATA     BIT       SMB0CN0_SI
      000000D0H.1 SFRSYM    DATA     BIT       PSW_F1
      00000080H   SFRSYM    DATA     BIT       P0_B0
      000000B8H   SFRSYM    DATA     BIT       IP_PX0
      00000090H   SFRSYM    DATA     BIT       P1_B0
      00000080H.1 SFRSYM    DATA     BIT       P0_B1
      000000B8H.2 SFRSYM    DATA     BIT       IP_PX1
      0000009BH   SFRSYM    DATA     BYTE      CMP0CN0
      00000088H.1 SFRSYM    DATA     BIT       TCON_IE0
      000000A0H   SFRSYM    DATA     BIT       P2_B0
      00000090H.1 SFRSYM    DATA     BIT       P1_B1
      00000080H.2 SFRSYM    DATA     BIT       P0_B2
      000000BFH   SFRSYM    DATA     BYTE      CMP1CN0
      00000088H.3 SFRSYM    DATA     BIT       TCON_IE1
LX51 LINKER/LOCATER V4.66.30.0                                                        01/20/2020  14:03:40  PAGE 29


      000000A0H.1 SFRSYM    DATA     BIT       P2_B1
      00000090H.2 SFRSYM    DATA     BIT       P1_B2
      00000080H.3 SFRSYM    DATA     BIT       P0_B3
      000000C0H   SFRSYM    DATA     BYTE      SMB0CN0
      00000090H.3 SFRSYM    DATA     BIT       P1_B3
      00000080H.4 SFRSYM    DATA     BIT       P0_B4
      00000090H.4 SFRSYM    DATA     BIT       P1_B4
      00000080H.5 SFRSYM    DATA     BIT       P0_B5
      00000090H.5 SFRSYM    DATA     BIT       P1_B5
      00000080H.6 SFRSYM    DATA     BIT       P0_B6
      00000090H.6 SFRSYM    DATA     BIT       P1_B6
      00000080H.7 SFRSYM    DATA     BIT       P0_B7
      00000090H.7 SFRSYM    DATA     BIT       P1_B7
      00000083H   SFRSYM    DATA     BYTE      DPH
      000000C4H   SFRSYM    DATA     BYTE      ADC0GTH
      000000C8H.7 SFRSYM    DATA     BIT       TMR2CN0_TF2H
      000000C8H.3 SFRSYM    DATA     BIT       TMR2CN0_T2SPLIT
      000000D0H.6 SFRSYM    DATA     BIT       PSW_AC
      000000F8H   SFRSYM    DATA     BYTE      SPI0CN0
      000000C7H   SFRSYM    DATA     BYTE      HFO0CAL
      00000088H.5 SFRSYM    DATA     BIT       TCON_TF0
      00000098H   SFRSYM    DATA     BIT       SCON0_RI
      00000082H   SFRSYM    DATA     BYTE      DPL
      00000088H.7 SFRSYM    DATA     BIT       TCON_TF1
      00000099H   SFRSYM    DATA     BYTE      SBUF0
      00000087H   SFRSYM    DATA     BYTE      PCON0
      000000C3H   SFRSYM    DATA     BYTE      ADC0GTL
      000000C8H.6 SFRSYM    DATA     BIT       TMR2CN0_TF2L
      00000098H.1 SFRSYM    DATA     BIT       SCON0_TI
      000000E8H   SFRSYM    DATA     BIT       ADC0CN0_ADCM0
      000000C6H   SFRSYM    DATA     BYTE      ADC0LTH
      00000088H   SFRSYM    DATA     BIT       TCON_IT0
      000000E8H.1 SFRSYM    DATA     BIT       ADC0CN0_ADCM1
      000000EFH   SFRSYM    DATA     BYTE      RSTSRC
      000000FDH   SFRSYM    DATA     BYTE      P0MAT
      000000DEH   SFRSYM    DATA     BYTE      CRC0DAT
      00000088H.2 SFRSYM    DATA     BIT       TCON_IT1
      000000E8H.2 SFRSYM    DATA     BIT       ADC0CN0_ADCM2
      00000098H   SFRSYM    DATA     BYTE      SCON0
      000000F6H   SFRSYM    DATA     BYTE      PRTDRV
      000000EDH   SFRSYM    DATA     BYTE      P1MAT
      000000E8H.3 SFRSYM    DATA     BIT       ADC0CN0_ADWINT
      000000E8H.4 SFRSYM    DATA     BIT       ADC0CN0_ADBUSY
      000000D6H   SFRSYM    DATA     BYTE      SMB0ADM
      000000C5H   SFRSYM    DATA     BYTE      ADC0LTL
      000000F8H.5 SFRSYM    DATA     BIT       SPI0CN0_MODF
      000000B8H.6 SFRSYM    DATA     BIT       IP_PSPI0
      0000009CH   SFRSYM    DATA     BYTE      PCA0CLR
      000000C8H   SFRSYM    DATA     BYTE      TMR2CN0
      00000091H   SFRSYM    DATA     BYTE      TMR3CN0
      000000D7H   SFRSYM    DATA     BYTE      SMB0ADR
      00000088H.4 SFRSYM    DATA     BIT       TCON_TR0
      000000C8H.4 SFRSYM    DATA     BIT       TMR2CN0_TF2CEN
      00000088H.6 SFRSYM    DATA     BIT       TCON_TR1
      000000C2H   SFRSYM    DATA     BYTE      SMB0DAT
      000000CDH   SFRSYM    DATA     BYTE      TMR2H
      000000A1H   SFRSYM    DATA     BYTE      SPI0CFG
      00000095H   SFRSYM    DATA     BYTE      TMR3H
      000000D3H   SFRSYM    DATA     BYTE      CRC0CNT
      00000096H   SFRSYM    DATA     BYTE      PCA0POL
      000000CCH   SFRSYM    DATA     BYTE      TMR2L
      000000F8H.7 SFRSYM    DATA     BIT       SPI0CN0_SPIF
LX51 LINKER/LOCATER V4.66.30.0                                                        01/20/2020  14:03:40  PAGE 30


      00000094H   SFRSYM    DATA     BYTE      TMR3L
      000000DFH   SFRSYM    DATA     BYTE      ADC0PWR
      000000A8H.7 SFRSYM    DATA     BIT       IE_EA
      000000C8H.5 SFRSYM    DATA     BIT       TMR2CN0_TF2LEN
      000000F8H.6 SFRSYM    DATA     BIT       SPI0CN0_WCOL
      000000F8H.2 SFRSYM    DATA     BIT       SPI0CN0_NSSMD0
      000000D0H.7 SFRSYM    DATA     BIT       PSW_CY
      000000A3H   SFRSYM    DATA     BYTE      SPI0DAT
      000000F8H.3 SFRSYM    DATA     BIT       SPI0CN0_NSSMD1
      000000BDH   SFRSYM    DATA     WORD      ADC0
      000000D0H   SFRSYM    DATA     BYTE      PSW
      000000F7H   SFRSYM    DATA     BYTE      PCA0PWM
      000000B6H   SFRSYM    DATA     BYTE      REVID
      000000B7H   SFRSYM    DATA     BYTE      FLKEY
      000000B3H   SFRSYM    DATA     BYTE      ADC0AC

      01001844H   BLOCK     CODE     ---       LVL=0
      01001844H   LINE      CODE     ---       #22
      01001844H   LINE      CODE     ---       #24
      01001847H   LINE      CODE     ---       #25
      0100184AH   LINE      CODE     ---       #26
      0100184DH   LINE      CODE     ---       #27
      01001850H   LINE      CODE     ---       #28
      01001853H   LINE      CODE     ---       #29
      01001856H   LINE      CODE     ---       #30
      01001859H   LINE      CODE     ---       #31
      0100185CH   LINE      CODE     ---       #32
      0100185FH   LINE      CODE     ---       #33
      01001862H   LINE      CODE     ---       #34
      01001865H   LINE      CODE     ---       #35
      01001868H   LINE      CODE     ---       #36
      0100186BH   LINE      CODE     ---       #37
      0100186EH   LINE      CODE     ---       #38
      01001871H   LINE      CODE     ---       #39
      ---         BLOCKEND  ---      ---       LVL=0

      010014DEH   BLOCK     CODE     ---       LVL=0
      010014DEH   BLOCK     CODE     NEAR LAB  LVL=1
      00000057H   SYMBOL    DATA     DWORD     i
      00000021H.3 SYMBOL    BIT      BIT       ea
      ---         BLOCKEND  ---      ---       LVL=1
      010014DEH   LINE      CODE     ---       #47
      010014DEH   LINE      CODE     ---       #60
      010014E1H   LINE      CODE     ---       #63
      010014FEH   LINE      CODE     ---       #64
      010014FFH   LINE      CODE     ---       #65
      01001516H   LINE      CODE     ---       #68
      0100151AH   LINE      CODE     ---       #69
      0100151CH   LINE      CODE     ---       #70
      0100151FH   LINE      CODE     ---       #71
      01001522H   LINE      CODE     ---       #72
      01001526H   LINE      CODE     ---       #76
      ---         BLOCKEND  ---      ---       LVL=0

      01001AF1H   BLOCK     CODE     ---       LVL=0
      01001AF1H   LINE      CODE     ---       #81
      01001AF1H   LINE      CODE     ---       #96
      01001AF4H   LINE      CODE     ---       #113
      01001AF7H   LINE      CODE     ---       #129
      01001AFAH   LINE      CODE     ---       #140
      ---         BLOCKEND  ---      ---       LVL=0

LX51 LINKER/LOCATER V4.66.30.0                                                        01/20/2020  14:03:40  PAGE 31


      01001AFBH   BLOCK     CODE     ---       LVL=0
      01001AFBH   LINE      CODE     ---       #145
      01001AFBH   LINE      CODE     ---       #160
      01001AFEH   LINE      CODE     ---       #177
      01001B01H   LINE      CODE     ---       #193
      01001B04H   LINE      CODE     ---       #204
      ---         BLOCKEND  ---      ---       LVL=0

      01001B3EH   BLOCK     CODE     ---       LVL=0
      01001B3EH   LINE      CODE     ---       #209
      01001B3EH   LINE      CODE     ---       #215
      01001B41H   LINE      CODE     ---       #232
      01001B44H   LINE      CODE     ---       #240
      ---         BLOCKEND  ---      ---       LVL=0

      01000056H   BLOCK     CODE     ---       LVL=0
      01000056H   LINE      CODE     ---       #245
      01000056H   LINE      CODE     ---       #251
      01000059H   LINE      CODE     ---       #254
      ---         BLOCKEND  ---      ---       LVL=0

      01001AC8H   BLOCK     CODE     ---       LVL=0
      01001AC8H   LINE      CODE     ---       #259
      01001AC8H   LINE      CODE     ---       #261
      01001ACAH   LINE      CODE     ---       #271
      01001ACDH   LINE      CODE     ---       #281
      01001AD0H   LINE      CODE     ---       #295
      01001AD3H   LINE      CODE     ---       #305
      01001AD5H   LINE      CODE     ---       #308
      ---         BLOCKEND  ---      ---       LVL=0

      01001B05H   BLOCK     CODE     ---       LVL=0
      01001B05H   LINE      CODE     ---       #313
      01001B05H   LINE      CODE     ---       #316
      01001B08H   LINE      CODE     ---       #330
      01001B0BH   LINE      CODE     ---       #340
      01001B0EH   LINE      CODE     ---       #349
      ---         BLOCKEND  ---      ---       LVL=0

      01001B0FH   BLOCK     CODE     ---       LVL=0
      01001B0FH   LINE      CODE     ---       #351
      01001B0FH   LINE      CODE     ---       #359
      01001B12H   LINE      CODE     ---       #392
      01001B15H   LINE      CODE     ---       #393
      01001B18H   LINE      CODE     ---       #397
      ---         BLOCKEND  ---      ---       LVL=0

      01001B19H   BLOCK     CODE     ---       LVL=0
      01001B19H   LINE      CODE     ---       #399
      01001B19H   LINE      CODE     ---       #409
      01001B1CH   LINE      CODE     ---       #410
      01001B1FH   LINE      CODE     ---       #417
      01001B22H   LINE      CODE     ---       #420
      ---         BLOCKEND  ---      ---       LVL=0

      01001A70H   BLOCK     CODE     ---       LVL=0
      01001A70H   BLOCK     CODE     NEAR LAB  LVL=1
      00000007H   SYMBOL    DATA     BYTE      TCON_save
      ---         BLOCKEND  ---      ---       LVL=1
      01001A70H   LINE      CODE     ---       #422
      01001A70H   LINE      CODE     ---       #426
      01001A72H   LINE      CODE     ---       #428
LX51 LINKER/LOCATER V4.66.30.0                                                        01/20/2020  14:03:40  PAGE 32


      01001A75H   LINE      CODE     ---       #442
      01001A78H   LINE      CODE     ---       #450
      01001A82H   LINE      CODE     ---       #454
      ---         BLOCKEND  ---      ---       LVL=0

      01001A83H   BLOCK     CODE     ---       LVL=0
      01001A83H   BLOCK     CODE     NEAR LAB  LVL=1
      00000007H   SYMBOL    DATA     BYTE      TMR2CN0_TR2_save
      ---         BLOCKEND  ---      ---       LVL=1
      01001A83H   LINE      CODE     ---       #456
      01001A83H   LINE      CODE     ---       #460
      01001A87H   LINE      CODE     ---       #462
      01001A8AH   LINE      CODE     ---       #478
      01001A8DH   LINE      CODE     ---       #485
      01001A90H   LINE      CODE     ---       #492
      01001A93H   LINE      CODE     ---       #497
      01001A95H   LINE      CODE     ---       #500
      ---         BLOCKEND  ---      ---       LVL=0

      01001B23H   BLOCK     CODE     ---       LVL=0
      01001B23H   LINE      CODE     ---       #502
      01001B23H   LINE      CODE     ---       #513
      01001B26H   LINE      CODE     ---       #528
      01001B29H   LINE      CODE     ---       #536
      01001B2CH   LINE      CODE     ---       #539
      ---         BLOCKEND  ---      ---       LVL=0

      0100006EH   BLOCK     CODE     ---       LVL=0
      0100006EH   LINE      CODE     ---       #541
      0100006EH   LINE      CODE     ---       #546
      01000071H   LINE      CODE     ---       #549
      ---         BLOCKEND  ---      ---       LVL=0

      01001B45H   BLOCK     CODE     ---       LVL=0
      01001B45H   LINE      CODE     ---       #551
      01001B45H   LINE      CODE     ---       #564
      01001B48H   LINE      CODE     ---       #583
      01001B4BH   LINE      CODE     ---       #591
      ---         BLOCKEND  ---      ---       LVL=0

      0100005EH   BLOCK     CODE     ---       LVL=0
      0100005EH   BLOCK     CODE     NEAR LAB  LVL=1
      00000007H   SYMBOL    DATA     BYTE      TMR3CN0_TR3_save
      ---         BLOCKEND  ---      ---       LVL=1
      0100005EH   LINE      CODE     ---       #593
      0100005EH   LINE      CODE     ---       #597
      01000062H   LINE      CODE     ---       #599
      01000065H   LINE      CODE     ---       #621
      01000068H   LINE      CODE     ---       #626
      0100006AH   LINE      CODE     ---       #629
      ---         BLOCKEND  ---      ---       LVL=0

      01000019H   BLOCK     CODE     ---       LVL=0
      01000019H   LINE      CODE     ---       #631
      01000019H   LINE      CODE     ---       #638
      ---         BLOCKEND  ---      ---       LVL=0

      ---         MODULE    ---      ---       INTERRUPTS
      01000072H   PUBLIC    CODE     ---       TIMER1_ISR
      0100005AH   PUBLIC    CODE     ---       TIMER3_ISR
      01000052H   PUBLIC    CODE     ---       CMP1_ISR
      01001103H   PUBLIC    CODE     ---       PCA0_ISR
LX51 LINKER/LOCATER V4.66.30.0                                                        01/20/2020  14:03:40  PAGE 33


      0100001AH   PUBLIC    CODE     ---       ADC0EOC_ISR
      000000A2H   SFRSYM    DATA     BYTE      SPI0CKR
      00000080H   SFRSYM    DATA     BYTE      P0
      000000D0H.2 SFRSYM    DATA     BIT       PSW_OV
      00000090H   SFRSYM    DATA     BYTE      P1
      00000097H   SFRSYM    DATA     BYTE      WDTCN
      000000A0H   SFRSYM    DATA     BYTE      P2
      000000BCH   SFRSYM    DATA     BYTE      ADC0CF
      000000C8H   SFRSYM    DATA     BIT       TMR2CN0_T2XCLK
      000000C0H.7 SFRSYM    DATA     BIT       SMB0CN0_MASTER
      000000F9H   SFRSYM    DATA     WORD      PCA0
      000000E6H   SFRSYM    DATA     BYTE      EIE1
      000000C0H.1 SFRSYM    DATA     BIT       SMB0CN0_ACK
      0000008FH   SFRSYM    DATA     BYTE      PSCTL
      000000E4H   SFRSYM    DATA     BYTE      IT01CF
      000000C0H.6 SFRSYM    DATA     BIT       SMB0CN0_TXMODE
      000000ADH   SFRSYM    DATA     BYTE      DERIVID
      000000A4H   SFRSYM    DATA     BYTE      P0MDOUT
      000000A5H   SFRSYM    DATA     BYTE      P1MDOUT
      000000E8H.5 SFRSYM    DATA     BIT       ADC0CN0_ADINT
      000000CBH   SFRSYM    DATA     BYTE      TMR2RLH
      000000A6H   SFRSYM    DATA     BYTE      P2MDOUT
      000000A8H   SFRSYM    DATA     BYTE      IE
      00000093H   SFRSYM    DATA     BYTE      TMR3RLH
      000000F3H   SFRSYM    DATA     BYTE      EIP1
      00000098H.2 SFRSYM    DATA     BIT       SCON0_RB8
      000000CAH   SFRSYM    DATA     BYTE      TMR2RLL
      000000FCH   SFRSYM    DATA     BYTE      PCA0CPH0
      00000092H   SFRSYM    DATA     BYTE      TMR3RLL
      000000EAH   SFRSYM    DATA     BYTE      PCA0CPH1
      00000098H.3 SFRSYM    DATA     BIT       SCON0_TB8
      000000F0H   SFRSYM    DATA     BIT       B_B0
      00000082H   SFRSYM    DATA     WORD      DP
      000000ECH   SFRSYM    DATA     BYTE      PCA0CPH2
      000000A0H.1 SFRSYM    DATA     BIT       BTN0
      000000F0H.1 SFRSYM    DATA     BIT       B_B1
      000000C3H   SFRSYM    DATA     WORD      ADC0GT
      00000090H.1 SFRSYM    DATA     BIT       BTN1
      000000F0H.2 SFRSYM    DATA     BIT       B_B2
      000000FBH   SFRSYM    DATA     BYTE      PCA0CPL0
      000000F0H.3 SFRSYM    DATA     BIT       B_B3
      000000D9H   SFRSYM    DATA     BYTE      PCA0MD
      000000DAH   SFRSYM    DATA     BYTE      PCA0CPM0
      000000E9H   SFRSYM    DATA     BYTE      PCA0CPL1
      000000F0H.4 SFRSYM    DATA     BIT       B_B4
      000000DBH   SFRSYM    DATA     BYTE      PCA0CPM1
      000000EBH   SFRSYM    DATA     BYTE      PCA0CPL2
      000000F0H.5 SFRSYM    DATA     BIT       B_B5
      000000DCH   SFRSYM    DATA     BYTE      PCA0CPM2
      000000B8H   SFRSYM    DATA     BYTE      IP
      000000B9H   SFRSYM    DATA     BYTE      ADC0TK
      000000F0H.6 SFRSYM    DATA     BIT       B_B6
      000000C5H   SFRSYM    DATA     WORD      ADC0LT
      00000098H.5 SFRSYM    DATA     BIT       SCON0_MCE
      000000F0H.7 SFRSYM    DATA     BIT       B_B7
      000000E1H   SFRSYM    DATA     BYTE      XBR0
      000000C1H   SFRSYM    DATA     BYTE      SMB0CF
      000000E2H   SFRSYM    DATA     BYTE      XBR1
      000000C0H.5 SFRSYM    DATA     BIT       SMB0CN0_STA
      000000E3H   SFRSYM    DATA     BYTE      XBR2
      000000BBH   SFRSYM    DATA     BYTE      ADC0MX
      000000E0H   SFRSYM    DATA     BIT       ACC_ACC0
LX51 LINKER/LOCATER V4.66.30.0                                                        01/20/2020  14:03:40  PAGE 34


      000000D1H   SFRSYM    DATA     BYTE      REF0CN
      0000008EH   SFRSYM    DATA     BYTE      CKCON0
      000000E0H.1 SFRSYM    DATA     BIT       ACC_ACC1
      000000C9H   SFRSYM    DATA     BYTE      REG0CN
      000000DDH   SFRSYM    DATA     BYTE      CRC0IN
      000000C8H.2 SFRSYM    DATA     BIT       TMR2CN0_TR2
      000000E0H.2 SFRSYM    DATA     BIT       ACC_ACC2
      000000E0H.3 SFRSYM    DATA     BIT       ACC_ACC3
      00000081H   SFRSYM    DATA     BYTE      SP
      0000009DH   SFRSYM    DATA     BYTE      CMP0MD
      000000E0H.4 SFRSYM    DATA     BIT       ACC_ACC4
      000000B1H   SFRSYM    DATA     BYTE      LFO0CN
      000000ABH   SFRSYM    DATA     BYTE      CMP1MD
      000000D8H   SFRSYM    DATA     BIT       PCA0CN0_CCF0
      000000E0H.5 SFRSYM    DATA     BIT       ACC_ACC5
      000000D8H.1 SFRSYM    DATA     BIT       PCA0CN0_CCF1
      000000E0H.6 SFRSYM    DATA     BIT       ACC_ACC6
      000000CCH   SFRSYM    DATA     WORD      TMR2
      000000D8H.2 SFRSYM    DATA     BIT       PCA0CN0_CCF2
      000000E0H.7 SFRSYM    DATA     BIT       ACC_ACC7
      00000094H   SFRSYM    DATA     WORD      TMR3
      000000C0H.3 SFRSYM    DATA     BIT       SMB0CN0_ACKRQ
      000000FFH   SFRSYM    DATA     BYTE      VDM0CN
      000000F1H   SFRSYM    DATA     BYTE      P0MDIN
      00000098H.4 SFRSYM    DATA     BIT       SCON0_REN
      000000ACH   SFRSYM    DATA     BYTE      SMB0TC
      000000F2H   SFRSYM    DATA     BYTE      P1MDIN
      000000C0H.4 SFRSYM    DATA     BIT       SMB0CN0_STO
      000000FEH   SFRSYM    DATA     BYTE      P0MASK
      000000EEH   SFRSYM    DATA     BYTE      P1MASK
      000000D0H.3 SFRSYM    DATA     BIT       PSW_RS0
      000000D8H.7 SFRSYM    DATA     BIT       PCA0CN0_CF
      0000009EH   SFRSYM    DATA     BYTE      PCA0CENT
      000000F8H.4 SFRSYM    DATA     BIT       SPI0CN0_RXOVRN
      000000D0H.4 SFRSYM    DATA     BIT       PSW_RS1
      000000E8H.7 SFRSYM    DATA     BIT       ADC0CN0_ADEN
      00000089H   SFRSYM    DATA     BYTE      TMOD
      00000088H   SFRSYM    DATA     BYTE      TCON
      000000CFH   SFRSYM    DATA     BYTE      CRC0FLIP
      000000D0H   SFRSYM    DATA     BIT       PSW_PARITY
      000000A8H.4 SFRSYM    DATA     BIT       IE_ES0
      0000009FH   SFRSYM    DATA     BYTE      CMP0MX
      000000A8H.1 SFRSYM    DATA     BIT       IE_ET0
      000000AAH   SFRSYM    DATA     BYTE      CMP1MX
      000000A8H.3 SFRSYM    DATA     BIT       IE_ET1
      000000D4H   SFRSYM    DATA     BYTE      P0SKIP
      000000A8H.5 SFRSYM    DATA     BIT       IE_ET2
      000000D5H   SFRSYM    DATA     BYTE      P1SKIP
      000000E8H   SFRSYM    DATA     BYTE      ADC0CN0
      000000A8H   SFRSYM    DATA     BIT       IE_EX0
      000000B2H   SFRSYM    DATA     BYTE      ADC0CN1
      000000D8H.6 SFRSYM    DATA     BIT       PCA0CN0_CR
      000000A8H.2 SFRSYM    DATA     BIT       IE_EX1
      00000098H.7 SFRSYM    DATA     BIT       SCON0_SMODE
      000000B5H   SFRSYM    DATA     BYTE      DEVICEID
      000000A9H   SFRSYM    DATA     BYTE      CLKSEL
      000000F8H   SFRSYM    DATA     BIT       SPI0CN0_SPIEN
      000000F0H   SFRSYM    DATA     BYTE      B
      000000BEH   SFRSYM    DATA     BYTE      ADC0H
      000000D2H   SFRSYM    DATA     BYTE      CRC0AUTO
      000000E8H.6 SFRSYM    DATA     BIT       ADC0CN0_ADBMEN
      000000CAH   SFRSYM    DATA     WORD      TMR2RL
LX51 LINKER/LOCATER V4.66.30.0                                                        01/20/2020  14:03:40  PAGE 35


      000000BDH   SFRSYM    DATA     BYTE      ADC0L
      00000092H   SFRSYM    DATA     WORD      TMR3RL
      000000D8H   SFRSYM    DATA     BYTE      PCA0CN0
      000000E0H   SFRSYM    DATA     BYTE      ACC
      000000FBH   SFRSYM    DATA     WORD      PCA0CP0
      000000E9H   SFRSYM    DATA     WORD      PCA0CP1
      000000EBH   SFRSYM    DATA     WORD      PCA0CP2
      000000CEH   SFRSYM    DATA     BYTE      CRC0CN0
      00000090H.4 SFRSYM    DATA     BIT       BSP_LED0
      0000008CH   SFRSYM    DATA     BYTE      TH0
      000000B8H.4 SFRSYM    DATA     BIT       IP_PS0
      0000008DH   SFRSYM    DATA     BYTE      TH1
      000000FAH   SFRSYM    DATA     BYTE      PCA0H
      000000B8H.1 SFRSYM    DATA     BIT       IP_PT0
      000000B8H.3 SFRSYM    DATA     BIT       IP_PT1
      000000C0H.2 SFRSYM    DATA     BIT       SMB0CN0_ARBLOST
      000000B8H.5 SFRSYM    DATA     BIT       IP_PT2
      0000008AH   SFRSYM    DATA     BYTE      TL0
      000000F8H.1 SFRSYM    DATA     BIT       SPI0CN0_TXBMT
      000000D0H.5 SFRSYM    DATA     BIT       PSW_F0
      000000A8H.6 SFRSYM    DATA     BIT       IE_ESPI0
      0000008BH   SFRSYM    DATA     BYTE      TL1
      000000F9H   SFRSYM    DATA     BYTE      PCA0L
      000000C0H   SFRSYM    DATA     BIT       SMB0CN0_SI
      000000D0H.1 SFRSYM    DATA     BIT       PSW_F1
      00000080H   SFRSYM    DATA     BIT       P0_B0
      000000B8H   SFRSYM    DATA     BIT       IP_PX0
      00000090H   SFRSYM    DATA     BIT       P1_B0
      00000080H.1 SFRSYM    DATA     BIT       P0_B1
      000000B8H.2 SFRSYM    DATA     BIT       IP_PX1
      0000009BH   SFRSYM    DATA     BYTE      CMP0CN0
      00000088H.1 SFRSYM    DATA     BIT       TCON_IE0
      000000A0H   SFRSYM    DATA     BIT       P2_B0
      00000090H.1 SFRSYM    DATA     BIT       P1_B1
      00000080H.2 SFRSYM    DATA     BIT       P0_B2
      000000BFH   SFRSYM    DATA     BYTE      CMP1CN0
      00000088H.3 SFRSYM    DATA     BIT       TCON_IE1
      000000A0H.1 SFRSYM    DATA     BIT       P2_B1
      00000090H.2 SFRSYM    DATA     BIT       P1_B2
      00000080H.3 SFRSYM    DATA     BIT       P0_B3
      000000C0H   SFRSYM    DATA     BYTE      SMB0CN0
      00000090H.3 SFRSYM    DATA     BIT       P1_B3
      00000080H.4 SFRSYM    DATA     BIT       P0_B4
      00000090H.4 SFRSYM    DATA     BIT       P1_B4
      00000080H.5 SFRSYM    DATA     BIT       P0_B5
      00000090H.5 SFRSYM    DATA     BIT       P1_B5
      00000080H.6 SFRSYM    DATA     BIT       P0_B6
      00000090H.6 SFRSYM    DATA     BIT       P1_B6
      00000080H.7 SFRSYM    DATA     BIT       P0_B7
      00000090H.7 SFRSYM    DATA     BIT       P1_B7
      00000080H.2 SFRSYM    DATA     BIT       BSP_BTN0
      00000083H   SFRSYM    DATA     BYTE      DPH
      000000C4H   SFRSYM    DATA     BYTE      ADC0GTH
      000000C8H.7 SFRSYM    DATA     BIT       TMR2CN0_TF2H
      000000C8H.3 SFRSYM    DATA     BIT       TMR2CN0_T2SPLIT
      000000D0H.6 SFRSYM    DATA     BIT       PSW_AC
      000000F8H   SFRSYM    DATA     BYTE      SPI0CN0
      000000C7H   SFRSYM    DATA     BYTE      HFO0CAL
      00000088H.5 SFRSYM    DATA     BIT       TCON_TF0
      00000098H   SFRSYM    DATA     BIT       SCON0_RI
      00000082H   SFRSYM    DATA     BYTE      DPL
      00000088H.7 SFRSYM    DATA     BIT       TCON_TF1
LX51 LINKER/LOCATER V4.66.30.0                                                        01/20/2020  14:03:40  PAGE 36


      00000099H   SFRSYM    DATA     BYTE      SBUF0
      00000087H   SFRSYM    DATA     BYTE      PCON0
      000000C3H   SFRSYM    DATA     BYTE      ADC0GTL
      000000C8H.6 SFRSYM    DATA     BIT       TMR2CN0_TF2L
      00000098H.1 SFRSYM    DATA     BIT       SCON0_TI
      000000E8H   SFRSYM    DATA     BIT       ADC0CN0_ADCM0
      000000C6H   SFRSYM    DATA     BYTE      ADC0LTH
      00000088H   SFRSYM    DATA     BIT       TCON_IT0
      000000E8H.1 SFRSYM    DATA     BIT       ADC0CN0_ADCM1
      000000EFH   SFRSYM    DATA     BYTE      RSTSRC
      000000FDH   SFRSYM    DATA     BYTE      P0MAT
      000000DEH   SFRSYM    DATA     BYTE      CRC0DAT
      00000088H.2 SFRSYM    DATA     BIT       TCON_IT1
      000000E8H.2 SFRSYM    DATA     BIT       ADC0CN0_ADCM2
      00000098H   SFRSYM    DATA     BYTE      SCON0
      000000F6H   SFRSYM    DATA     BYTE      PRTDRV
      000000EDH   SFRSYM    DATA     BYTE      P1MAT
      000000E8H.3 SFRSYM    DATA     BIT       ADC0CN0_ADWINT
      000000E8H.4 SFRSYM    DATA     BIT       ADC0CN0_ADBUSY
      000000D6H   SFRSYM    DATA     BYTE      SMB0ADM
      000000C5H   SFRSYM    DATA     BYTE      ADC0LTL
      000000F8H.5 SFRSYM    DATA     BIT       SPI0CN0_MODF
      000000B8H.6 SFRSYM    DATA     BIT       IP_PSPI0
      0000009CH   SFRSYM    DATA     BYTE      PCA0CLR
      000000C8H   SFRSYM    DATA     BYTE      TMR2CN0
      00000091H   SFRSYM    DATA     BYTE      TMR3CN0
      000000D7H   SFRSYM    DATA     BYTE      SMB0ADR
      00000088H.4 SFRSYM    DATA     BIT       TCON_TR0
      000000C8H.4 SFRSYM    DATA     BIT       TMR2CN0_TF2CEN
      00000088H.6 SFRSYM    DATA     BIT       TCON_TR1
      000000C2H   SFRSYM    DATA     BYTE      SMB0DAT
      000000CDH   SFRSYM    DATA     BYTE      TMR2H
      000000A1H   SFRSYM    DATA     BYTE      SPI0CFG
      00000095H   SFRSYM    DATA     BYTE      TMR3H
      000000D3H   SFRSYM    DATA     BYTE      CRC0CNT
      00000096H   SFRSYM    DATA     BYTE      PCA0POL
      000000CCH   SFRSYM    DATA     BYTE      TMR2L
      000000F8H.7 SFRSYM    DATA     BIT       SPI0CN0_SPIF
      00000094H   SFRSYM    DATA     BYTE      TMR3L
      000000DFH   SFRSYM    DATA     BYTE      ADC0PWR
      000000A8H.7 SFRSYM    DATA     BIT       IE_EA
      000000C8H.5 SFRSYM    DATA     BIT       TMR2CN0_TF2LEN
      000000F8H.6 SFRSYM    DATA     BIT       SPI0CN0_WCOL
      000000F8H.2 SFRSYM    DATA     BIT       SPI0CN0_NSSMD0
      000000D0H.7 SFRSYM    DATA     BIT       PSW_CY
      000000A3H   SFRSYM    DATA     BYTE      SPI0DAT
      000000F8H.3 SFRSYM    DATA     BIT       SPI0CN0_NSSMD1
      000000BDH   SFRSYM    DATA     WORD      ADC0
      000000D0H   SFRSYM    DATA     BYTE      PSW
      000000F7H   SFRSYM    DATA     BYTE      PCA0PWM
      000000B6H   SFRSYM    DATA     BYTE      REVID
      000000B7H   SFRSYM    DATA     BYTE      FLKEY
      000000B3H   SFRSYM    DATA     BYTE      ADC0AC

      0100001AH   BLOCK     CODE     ---       LVL=0
      0100001AH   LINE      CODE     ---       #21
      0100001AH   LINE      CODE     ---       #50
      ---         BLOCKEND  ---      ---       LVL=0

      01001103H   BLOCK     CODE     ---       LVL=0
      01001110H   BLOCK     CODE     NEAR LAB  LVL=1
      0000005EH   SYMBOL    DATA     ---       xpca_count
LX51 LINKER/LOCATER V4.66.30.0                                                        01/20/2020  14:03:40  PAGE 37


      00000055H   SYMBOL    DATA     WORD      user_timer
      00000060H   SYMBOL    DATA     ---       new_duty
      00000062H   SYMBOL    DATA     ---       new_cpblank_duty
      00000064H   SYMBOL    DATA     BYTE      new_polarity
      ---         BLOCKEND  ---      ---       LVL=1
      01001103H   LINE      CODE     ---       #64
      01001110H   LINE      CODE     ---       #72
      01001118H   LINE      CODE     ---       #73
      01001118H   LINE      CODE     ---       #78
      0100111BH   LINE      CODE     ---       #80
      0100111DH   LINE      CODE     ---       #81
      01001120H   LINE      CODE     ---       #82
      01001122H   LINE      CODE     ---       #83
      01001124H   LINE      CODE     ---       #85
      01001127H   LINE      CODE     ---       #87
      0100112AH   LINE      CODE     ---       #89
      0100112DH   LINE      CODE     ---       #90
      01001130H   LINE      CODE     ---       #91
      01001133H   LINE      CODE     ---       #93
      01001136H   LINE      CODE     ---       #94
      01001136H   LINE      CODE     ---       #95
      01001139H   LINE      CODE     ---       #96
      0100113CH   LINE      CODE     ---       #103
      01001147H   LINE      CODE     ---       #104
      0100114AH   LINE      CODE     ---       #105
      0100114DH   LINE      CODE     ---       #106
      0100114DH   LINE      CODE     ---       #108
      01001150H   LINE      CODE     ---       #109
      01001150H   LINE      CODE     ---       #110
      01001153H   LINE      CODE     ---       #111
      01001156H   LINE      CODE     ---       #118
      01001161H   LINE      CODE     ---       #119
      01001164H   LINE      CODE     ---       #120
      01001167H   LINE      CODE     ---       #121
      01001167H   LINE      CODE     ---       #122
      01001169H   LINE      CODE     ---       #124
      0100116BH   LINE      CODE     ---       #125
      0100116BH   LINE      CODE     ---       #127
      0100116EH   LINE      CODE     ---       #128
      0100116EH   LINE      CODE     ---       #131
      01001170H   LINE      CODE     ---       #132
      01001172H   LINE      CODE     ---       #133
      0100117AH   LINE      CODE     ---       #134
      0100117CH   LINE      CODE     ---       #136
      01001184H   LINE      CODE     ---       #137
      01001184H   LINE      CODE     ---       #138
      01001186H   LINE      CODE     ---       #139
      01001186H   LINE      CODE     ---       #140
      01001186H   LINE      CODE     ---       #141
      ---         BLOCKEND  ---      ---       LVL=0

      01000052H   BLOCK     CODE     ---       LVL=0
      01000052H   LINE      CODE     ---       #152
      01000052H   LINE      CODE     ---       #155
      ---         BLOCKEND  ---      ---       LVL=0

      0100005AH   BLOCK     CODE     ---       LVL=0
      0100005AH   LINE      CODE     ---       #166
      0100005AH   LINE      CODE     ---       #169
      ---         BLOCKEND  ---      ---       LVL=0

      01000072H   BLOCK     CODE     ---       LVL=0
LX51 LINKER/LOCATER V4.66.30.0                                                        01/20/2020  14:03:40  PAGE 38


      01000072H   LINE      CODE     ---       #179
      01000072H   LINE      CODE     ---       #184
      ---         BLOCKEND  ---      ---       LVL=0

      ---         MODULE    ---      ---       MCP_CORE
      00000017H   PUBLIC    DATA     ---       MCP_reset_callback
      0200006BH   PUBLIC    XDATA    ---       mcp_tune
      02000069H   PUBLIC    XDATA    ---       mcp_status
      02000057H   PUBLIC    XDATA    ---       mcp
      00000008H   PUBLIC    DATA     ---       _MCP_tune_callback
      01001B53H   PUBLIC    CODE     ---       MCP_task
      01001973H   PUBLIC    CODE     ---       MCP_init
      000000A2H   SFRSYM    DATA     BYTE      SPI0CKR
      00000080H   SFRSYM    DATA     BYTE      P0
      000000D0H.2 SFRSYM    DATA     BIT       PSW_OV
      00000090H   SFRSYM    DATA     BYTE      P1
      00000097H   SFRSYM    DATA     BYTE      WDTCN
      000000A0H   SFRSYM    DATA     BYTE      P2
      000000BCH   SFRSYM    DATA     BYTE      ADC0CF
      000000C8H   SFRSYM    DATA     BIT       TMR2CN0_T2XCLK
      000000C0H.7 SFRSYM    DATA     BIT       SMB0CN0_MASTER
      000000F9H   SFRSYM    DATA     WORD      PCA0
      000000E6H   SFRSYM    DATA     BYTE      EIE1
      000000C0H.1 SFRSYM    DATA     BIT       SMB0CN0_ACK
      0000008FH   SFRSYM    DATA     BYTE      PSCTL
      000000E4H   SFRSYM    DATA     BYTE      IT01CF
      000000C0H.6 SFRSYM    DATA     BIT       SMB0CN0_TXMODE
      000000ADH   SFRSYM    DATA     BYTE      DERIVID
      000000A4H   SFRSYM    DATA     BYTE      P0MDOUT
      000000A5H   SFRSYM    DATA     BYTE      P1MDOUT
      000000E8H.5 SFRSYM    DATA     BIT       ADC0CN0_ADINT
      000000CBH   SFRSYM    DATA     BYTE      TMR2RLH
      000000A6H   SFRSYM    DATA     BYTE      P2MDOUT
      000000A8H   SFRSYM    DATA     BYTE      IE
      00000093H   SFRSYM    DATA     BYTE      TMR3RLH
      000000F3H   SFRSYM    DATA     BYTE      EIP1
      00000098H.2 SFRSYM    DATA     BIT       SCON0_RB8
      000000CAH   SFRSYM    DATA     BYTE      TMR2RLL
      000000FCH   SFRSYM    DATA     BYTE      PCA0CPH0
      00000092H   SFRSYM    DATA     BYTE      TMR3RLL
      000000EAH   SFRSYM    DATA     BYTE      PCA0CPH1
      00000098H.3 SFRSYM    DATA     BIT       SCON0_TB8
      000000F0H   SFRSYM    DATA     BIT       B_B0
      00000082H   SFRSYM    DATA     WORD      DP
      000000ECH   SFRSYM    DATA     BYTE      PCA0CPH2
      000000A0H.1 SFRSYM    DATA     BIT       BTN0
      000000F0H.1 SFRSYM    DATA     BIT       B_B1
      000000C3H   SFRSYM    DATA     WORD      ADC0GT
      00000090H.1 SFRSYM    DATA     BIT       BTN1
      000000F0H.2 SFRSYM    DATA     BIT       B_B2
      000000FBH   SFRSYM    DATA     BYTE      PCA0CPL0
      000000F0H.3 SFRSYM    DATA     BIT       B_B3
      000000D9H   SFRSYM    DATA     BYTE      PCA0MD
      000000DAH   SFRSYM    DATA     BYTE      PCA0CPM0
      000000E9H   SFRSYM    DATA     BYTE      PCA0CPL1
      000000F0H.4 SFRSYM    DATA     BIT       B_B4
      000000DBH   SFRSYM    DATA     BYTE      PCA0CPM1
      000000EBH   SFRSYM    DATA     BYTE      PCA0CPL2
      000000F0H.5 SFRSYM    DATA     BIT       B_B5
      000000DCH   SFRSYM    DATA     BYTE      PCA0CPM2
      000000B8H   SFRSYM    DATA     BYTE      IP
      000000B9H   SFRSYM    DATA     BYTE      ADC0TK
LX51 LINKER/LOCATER V4.66.30.0                                                        01/20/2020  14:03:40  PAGE 39


      000000F0H.6 SFRSYM    DATA     BIT       B_B6
      000000C5H   SFRSYM    DATA     WORD      ADC0LT
      00000098H.5 SFRSYM    DATA     BIT       SCON0_MCE
      000000F0H.7 SFRSYM    DATA     BIT       B_B7
      000000E1H   SFRSYM    DATA     BYTE      XBR0
      000000C1H   SFRSYM    DATA     BYTE      SMB0CF
      000000E2H   SFRSYM    DATA     BYTE      XBR1
      000000C0H.5 SFRSYM    DATA     BIT       SMB0CN0_STA
      000000E3H   SFRSYM    DATA     BYTE      XBR2
      000000BBH   SFRSYM    DATA     BYTE      ADC0MX
      000000E0H   SFRSYM    DATA     BIT       ACC_ACC0
      000000D1H   SFRSYM    DATA     BYTE      REF0CN
      0000008EH   SFRSYM    DATA     BYTE      CKCON0
      000000E0H.1 SFRSYM    DATA     BIT       ACC_ACC1
      000000C9H   SFRSYM    DATA     BYTE      REG0CN
      000000DDH   SFRSYM    DATA     BYTE      CRC0IN
      000000C8H.2 SFRSYM    DATA     BIT       TMR2CN0_TR2
      000000E0H.2 SFRSYM    DATA     BIT       ACC_ACC2
      000000E0H.3 SFRSYM    DATA     BIT       ACC_ACC3
      00000081H   SFRSYM    DATA     BYTE      SP
      0000009DH   SFRSYM    DATA     BYTE      CMP0MD
      000000E0H.4 SFRSYM    DATA     BIT       ACC_ACC4
      000000B1H   SFRSYM    DATA     BYTE      LFO0CN
      000000ABH   SFRSYM    DATA     BYTE      CMP1MD
      000000D8H   SFRSYM    DATA     BIT       PCA0CN0_CCF0
      000000E0H.5 SFRSYM    DATA     BIT       ACC_ACC5
      000000D8H.1 SFRSYM    DATA     BIT       PCA0CN0_CCF1
      000000E0H.6 SFRSYM    DATA     BIT       ACC_ACC6
      000000CCH   SFRSYM    DATA     WORD      TMR2
      000000D8H.2 SFRSYM    DATA     BIT       PCA0CN0_CCF2
      000000E0H.7 SFRSYM    DATA     BIT       ACC_ACC7
      00000094H   SFRSYM    DATA     WORD      TMR3
      000000C0H.3 SFRSYM    DATA     BIT       SMB0CN0_ACKRQ
      000000FFH   SFRSYM    DATA     BYTE      VDM0CN
      000000F1H   SFRSYM    DATA     BYTE      P0MDIN
      00000098H.4 SFRSYM    DATA     BIT       SCON0_REN
      000000ACH   SFRSYM    DATA     BYTE      SMB0TC
      000000F2H   SFRSYM    DATA     BYTE      P1MDIN
      000000C0H.4 SFRSYM    DATA     BIT       SMB0CN0_STO
      000000FEH   SFRSYM    DATA     BYTE      P0MASK
      000000EEH   SFRSYM    DATA     BYTE      P1MASK
      000000D0H.3 SFRSYM    DATA     BIT       PSW_RS0
      000000D8H.7 SFRSYM    DATA     BIT       PCA0CN0_CF
      0000009EH   SFRSYM    DATA     BYTE      PCA0CENT
      000000F8H.4 SFRSYM    DATA     BIT       SPI0CN0_RXOVRN
      000000D0H.4 SFRSYM    DATA     BIT       PSW_RS1
      000000E8H.7 SFRSYM    DATA     BIT       ADC0CN0_ADEN
      00000089H   SFRSYM    DATA     BYTE      TMOD
      00000088H   SFRSYM    DATA     BYTE      TCON
      000000CFH   SFRSYM    DATA     BYTE      CRC0FLIP
      000000D0H   SFRSYM    DATA     BIT       PSW_PARITY
      000000A8H.4 SFRSYM    DATA     BIT       IE_ES0
      0000009FH   SFRSYM    DATA     BYTE      CMP0MX
      000000A8H.1 SFRSYM    DATA     BIT       IE_ET0
      000000AAH   SFRSYM    DATA     BYTE      CMP1MX
      000000A8H.3 SFRSYM    DATA     BIT       IE_ET1
      000000D4H   SFRSYM    DATA     BYTE      P0SKIP
      000000A8H.5 SFRSYM    DATA     BIT       IE_ET2
      000000D5H   SFRSYM    DATA     BYTE      P1SKIP
      000000E8H   SFRSYM    DATA     BYTE      ADC0CN0
      000000A8H   SFRSYM    DATA     BIT       IE_EX0
      000000B2H   SFRSYM    DATA     BYTE      ADC0CN1
LX51 LINKER/LOCATER V4.66.30.0                                                        01/20/2020  14:03:40  PAGE 40


      000000D8H.6 SFRSYM    DATA     BIT       PCA0CN0_CR
      000000A8H.2 SFRSYM    DATA     BIT       IE_EX1
      00000098H.7 SFRSYM    DATA     BIT       SCON0_SMODE
      000000B5H   SFRSYM    DATA     BYTE      DEVICEID
      000000A9H   SFRSYM    DATA     BYTE      CLKSEL
      000000F8H   SFRSYM    DATA     BIT       SPI0CN0_SPIEN
      000000F0H   SFRSYM    DATA     BYTE      B
      000000BEH   SFRSYM    DATA     BYTE      ADC0H
      000000D2H   SFRSYM    DATA     BYTE      CRC0AUTO
      000000E8H.6 SFRSYM    DATA     BIT       ADC0CN0_ADBMEN
      000000CAH   SFRSYM    DATA     WORD      TMR2RL
      000000BDH   SFRSYM    DATA     BYTE      ADC0L
      00000092H   SFRSYM    DATA     WORD      TMR3RL
      000000D8H   SFRSYM    DATA     BYTE      PCA0CN0
      000000E0H   SFRSYM    DATA     BYTE      ACC
      000000FBH   SFRSYM    DATA     WORD      PCA0CP0
      000000E9H   SFRSYM    DATA     WORD      PCA0CP1
      000000EBH   SFRSYM    DATA     WORD      PCA0CP2
      000000CEH   SFRSYM    DATA     BYTE      CRC0CN0
      00000090H.4 SFRSYM    DATA     BIT       BSP_LED0
      0000008CH   SFRSYM    DATA     BYTE      TH0
      000000B8H.4 SFRSYM    DATA     BIT       IP_PS0
      0000008DH   SFRSYM    DATA     BYTE      TH1
      000000FAH   SFRSYM    DATA     BYTE      PCA0H
      000000B8H.1 SFRSYM    DATA     BIT       IP_PT0
      000000B8H.3 SFRSYM    DATA     BIT       IP_PT1
      000000C0H.2 SFRSYM    DATA     BIT       SMB0CN0_ARBLOST
      000000B8H.5 SFRSYM    DATA     BIT       IP_PT2
      0000008AH   SFRSYM    DATA     BYTE      TL0
      000000F8H.1 SFRSYM    DATA     BIT       SPI0CN0_TXBMT
      000000D0H.5 SFRSYM    DATA     BIT       PSW_F0
      000000A8H.6 SFRSYM    DATA     BIT       IE_ESPI0
      0000008BH   SFRSYM    DATA     BYTE      TL1
      000000F9H   SFRSYM    DATA     BYTE      PCA0L
      000000C0H   SFRSYM    DATA     BIT       SMB0CN0_SI
      000000D0H.1 SFRSYM    DATA     BIT       PSW_F1
      00000080H   SFRSYM    DATA     BIT       P0_B0
      000000B8H   SFRSYM    DATA     BIT       IP_PX0
      00000090H   SFRSYM    DATA     BIT       P1_B0
      00000080H.1 SFRSYM    DATA     BIT       P0_B1
      000000B8H.2 SFRSYM    DATA     BIT       IP_PX1
      0000009BH   SFRSYM    DATA     BYTE      CMP0CN0
      00000088H.1 SFRSYM    DATA     BIT       TCON_IE0
      000000A0H   SFRSYM    DATA     BIT       P2_B0
      00000090H.1 SFRSYM    DATA     BIT       P1_B1
      00000080H.2 SFRSYM    DATA     BIT       P0_B2
      000000BFH   SFRSYM    DATA     BYTE      CMP1CN0
      00000088H.3 SFRSYM    DATA     BIT       TCON_IE1
      000000A0H.1 SFRSYM    DATA     BIT       P2_B1
      00000090H.2 SFRSYM    DATA     BIT       P1_B2
      00000080H.3 SFRSYM    DATA     BIT       P0_B3
      000000C0H   SFRSYM    DATA     BYTE      SMB0CN0
      00000090H.3 SFRSYM    DATA     BIT       P1_B3
      00000080H.4 SFRSYM    DATA     BIT       P0_B4
      00000090H.4 SFRSYM    DATA     BIT       P1_B4
      00000080H.5 SFRSYM    DATA     BIT       P0_B5
      00000090H.5 SFRSYM    DATA     BIT       P1_B5
      00000080H.6 SFRSYM    DATA     BIT       P0_B6
      00000090H.6 SFRSYM    DATA     BIT       P1_B6
      00000080H.7 SFRSYM    DATA     BIT       P0_B7
      00000090H.7 SFRSYM    DATA     BIT       P1_B7
      00000080H.2 SFRSYM    DATA     BIT       BSP_BTN0
LX51 LINKER/LOCATER V4.66.30.0                                                        01/20/2020  14:03:40  PAGE 41


      00000083H   SFRSYM    DATA     BYTE      DPH
      000000C4H   SFRSYM    DATA     BYTE      ADC0GTH
      000000C8H.7 SFRSYM    DATA     BIT       TMR2CN0_TF2H
      000000C8H.3 SFRSYM    DATA     BIT       TMR2CN0_T2SPLIT
      000000D0H.6 SFRSYM    DATA     BIT       PSW_AC
      000000F8H   SFRSYM    DATA     BYTE      SPI0CN0
      000000C7H   SFRSYM    DATA     BYTE      HFO0CAL
      00000088H.5 SFRSYM    DATA     BIT       TCON_TF0
      00000098H   SFRSYM    DATA     BIT       SCON0_RI
      00000082H   SFRSYM    DATA     BYTE      DPL
      00000088H.7 SFRSYM    DATA     BIT       TCON_TF1
      00000099H   SFRSYM    DATA     BYTE      SBUF0
      00000087H   SFRSYM    DATA     BYTE      PCON0
      000000C3H   SFRSYM    DATA     BYTE      ADC0GTL
      000000C8H.6 SFRSYM    DATA     BIT       TMR2CN0_TF2L
      00000098H.1 SFRSYM    DATA     BIT       SCON0_TI
      000000E8H   SFRSYM    DATA     BIT       ADC0CN0_ADCM0
      000000C6H   SFRSYM    DATA     BYTE      ADC0LTH
      00000088H   SFRSYM    DATA     BIT       TCON_IT0
      000000E8H.1 SFRSYM    DATA     BIT       ADC0CN0_ADCM1
      000000EFH   SFRSYM    DATA     BYTE      RSTSRC
      000000FDH   SFRSYM    DATA     BYTE      P0MAT
      000000DEH   SFRSYM    DATA     BYTE      CRC0DAT
      00000088H.2 SFRSYM    DATA     BIT       TCON_IT1
      000000E8H.2 SFRSYM    DATA     BIT       ADC0CN0_ADCM2
      00000098H   SFRSYM    DATA     BYTE      SCON0
      000000F6H   SFRSYM    DATA     BYTE      PRTDRV
      000000EDH   SFRSYM    DATA     BYTE      P1MAT
      000000E8H.3 SFRSYM    DATA     BIT       ADC0CN0_ADWINT
      000000E8H.4 SFRSYM    DATA     BIT       ADC0CN0_ADBUSY
      000000D6H   SFRSYM    DATA     BYTE      SMB0ADM
      000000C5H   SFRSYM    DATA     BYTE      ADC0LTL
      000000F8H.5 SFRSYM    DATA     BIT       SPI0CN0_MODF
      000000B8H.6 SFRSYM    DATA     BIT       IP_PSPI0
      0000009CH   SFRSYM    DATA     BYTE      PCA0CLR
      000000C8H   SFRSYM    DATA     BYTE      TMR2CN0
      00000091H   SFRSYM    DATA     BYTE      TMR3CN0
      000000D7H   SFRSYM    DATA     BYTE      SMB0ADR
      00000088H.4 SFRSYM    DATA     BIT       TCON_TR0
      000000C8H.4 SFRSYM    DATA     BIT       TMR2CN0_TF2CEN
      00000088H.6 SFRSYM    DATA     BIT       TCON_TR1
      000000C2H   SFRSYM    DATA     BYTE      SMB0DAT
      000000CDH   SFRSYM    DATA     BYTE      TMR2H
      000000A1H   SFRSYM    DATA     BYTE      SPI0CFG
      00000095H   SFRSYM    DATA     BYTE      TMR3H
      000000D3H   SFRSYM    DATA     BYTE      CRC0CNT
      00000096H   SFRSYM    DATA     BYTE      PCA0POL
      000000CCH   SFRSYM    DATA     BYTE      TMR2L
      000000F8H.7 SFRSYM    DATA     BIT       SPI0CN0_SPIF
      00000094H   SFRSYM    DATA     BYTE      TMR3L
      000000DFH   SFRSYM    DATA     BYTE      ADC0PWR
      000000A8H.7 SFRSYM    DATA     BIT       IE_EA
      000000C8H.5 SFRSYM    DATA     BIT       TMR2CN0_TF2LEN
      000000F8H.6 SFRSYM    DATA     BIT       SPI0CN0_WCOL
      000000F8H.2 SFRSYM    DATA     BIT       SPI0CN0_NSSMD0
      000000D0H.7 SFRSYM    DATA     BIT       PSW_CY
      000000A3H   SFRSYM    DATA     BYTE      SPI0DAT
      000000F8H.3 SFRSYM    DATA     BIT       SPI0CN0_NSSMD1
      000000BDH   SFRSYM    DATA     WORD      ADC0
      000000D0H   SFRSYM    DATA     BYTE      PSW
      000000F7H   SFRSYM    DATA     BYTE      PCA0PWM
      000000B6H   SFRSYM    DATA     BYTE      REVID
LX51 LINKER/LOCATER V4.66.30.0                                                        01/20/2020  14:03:40  PAGE 42


      000000B7H   SFRSYM    DATA     BYTE      FLKEY
      000000B3H   SFRSYM    DATA     BYTE      ADC0AC
      010007FBH   SYMBOL    CODE     ---       MCP_process_command
      01001999H   SYMBOL    CODE     ---       MCP_get_register_address
      00000094H   SYMBOL    IDATA    ---       MCP_numcnvbuf
      0000000BH   SYMBOL    DATA     BYTE      MCP_cmd_type
      0000009EH   SYMBOL    IDATA    ---       MCP_command
      00000021H.7 SYMBOL    BIT      BIT       MCP_temp1
      01000C1DH   SYMBOL    CODE     ---       MCP_command_task
      0000000CH   SYMBOL    DATA     BYTE      MCP_temp8_1
      0000000DH   SYMBOL    DATA     BYTE      MCP_temp8_2
      02000059H   SYMBOL    XDATA    ---       MCP_status_buffer
      01000F3DH   SYMBOL    CODE     ---       MCP_update_status
      010017A7H   SYMBOL    CODE     ---       _MCP_hex_to_dec
      01001A19H   SYMBOL    CODE     ---       _MCP_send_ascii_value
      0000000EH   SYMBOL    DATA     ---       MCP_command_ptr
      010013D0H   SYMBOL    CODE     ---       _MCP_dec_to_ascnumbuf
      0000000FH   SYMBOL    DATA     BYTE      MCP_status_head
      00000022H.0 SYMBOL    BIT      BIT       MCP_txqueue_lock
      01001191H   SYMBOL    CODE     ---       MCP_status_update_task
      00000010H   SYMBOL    DATA     BYTE      MCP_mode
      0100142DH   SYMBOL    CODE     ---       MCP_receive_command
      00000011H   SYMBOL    DATA     ---       MCP_command_ptr_2
      00000012H   SYMBOL    DATA     WORD      MCP_temp16_1
      00000014H   SYMBOL    DATA     WORD      MCP_temp16_2
      00000016H   SYMBOL    DATA     BYTE      MCP_status_tail
      01001A33H   SYMBOL    CODE     ---       MCP_init_commandbuf
      00000022H.1 SYMBOL    BIT      BIT       MCP_reset_cmd

      01001973H   BLOCK     CODE     ---       LVL=0
      01001973H   LINE      CODE     ---       #180
      01001973H   LINE      CODE     ---       #181
      01001973H   LINE      CODE     ---       #182
      01001975H   LINE      CODE     ---       #183
      01001978H   LINE      CODE     ---       #184
      0100197BH   LINE      CODE     ---       #186
      0100197EH   LINE      CODE     ---       #187
      01001981H   LINE      CODE     ---       #194
      01001984H   LINE      CODE     ---       #195
      01001987H   LINE      CODE     ---       #197
      01001989H   LINE      CODE     ---       #199
      01001990H   LINE      CODE     ---       #205
      01001996H   LINE      CODE     ---       #207
      ---         BLOCKEND  ---      ---       LVL=0

      01001B53H   BLOCK     CODE     ---       LVL=0
      01001B53H   LINE      CODE     ---       #225
      01001B53H   LINE      CODE     ---       #226
      01001B53H   LINE      CODE     ---       #227
      01001B56H   LINE      CODE     ---       #228
      ---         BLOCKEND  ---      ---       LVL=0

      010013D0H   BLOCK     CODE     ---       LVL=0
      00000059H   SYMBOL    DATA     DWORD     value
      010013D8H   BLOCK     CODE     NEAR LAB  LVL=1
      0000005DH   SYMBOL    DATA     BYTE      idx
      00000007H   SYMBOL    DATA     BYTE      bval
      ---         BLOCKEND  ---      ---       LVL=1
      010013D0H   LINE      CODE     ---       #352
      010013D8H   LINE      CODE     ---       #353
      010013D8H   LINE      CODE     ---       #358
      010013DBH   LINE      CODE     ---       #359
LX51 LINKER/LOCATER V4.66.30.0                                                        01/20/2020  14:03:40  PAGE 43


      010013DBH   LINE      CODE     ---       #360
      010013ECH   LINE      CODE     ---       #361
      010013F7H   LINE      CODE     ---       #362
      01001410H   LINE      CODE     ---       #363
      01001423H   LINE      CODE     ---       #364
      01001423H   LINE      CODE     ---       #365
      01001423H   LINE      CODE     ---       #366
      01001423H   LINE      CODE     ---       #367
      0100142AH   LINE      CODE     ---       #369
      0100142CH   LINE      CODE     ---       #370
      ---         BLOCKEND  ---      ---       LVL=0

      01001A33H   BLOCK     CODE     ---       LVL=0
      01001A33H   LINE      CODE     ---       #387
      01001A33H   LINE      CODE     ---       #388
      01001A33H   LINE      CODE     ---       #390
      01001A3CH   LINE      CODE     ---       #391
      01001A3CH   LINE      CODE     ---       #392
      01001A40H   LINE      CODE     ---       #393
      01001A44H   LINE      CODE     ---       #395
      01001A47H   LINE      CODE     ---       #396
      ---         BLOCKEND  ---      ---       LVL=0

      01000C1DH   BLOCK     CODE     ---       LVL=0
      01000C1DH   BLOCK     CODE     NEAR LAB  LVL=1
      00000057H   SYMBOL    DATA     CHAR      PT_YIELD_FLAG
      ---         BLOCKEND  ---      ---       LVL=1
      01000C1DH   LINE      CODE     ---       #419
      01000C1DH   LINE      CODE     ---       #420
      01000C1DH   LINE      CODE     ---       #421
      01000C44H   LINE      CODE     ---       #423
      01000C44H   LINE      CODE     ---       #424
      01000C44H   LINE      CODE     ---       #425
      01000C5CH   LINE      CODE     ---       #427
      01000C61H   LINE      CODE     ---       #428
      01000C61H   LINE      CODE     ---       #429
      01000C64H   LINE      CODE     ---       #432
      01000C6AH   LINE      CODE     ---       #433
      01000C6AH   LINE      CODE     ---       #434
      01000C6DH   LINE      CODE     ---       #435
      01000C6DH   LINE      CODE     ---       #436
      01000C6FH   LINE      CODE     ---       #437
      01000C73H   LINE      CODE     ---       #438
      01000C73H   LINE      CODE     ---       #440
      01000C78H   LINE      CODE     ---       #441
      01000C78H   LINE      CODE     ---       #463
      01000C7EH   LINE      CODE     ---       #464
      01000C7EH   LINE      CODE     ---       #465
      01000C86H   LINE      CODE     ---       #466
      01000C8EH   LINE      CODE     ---       #467
      01000C8EH   LINE      CODE     ---       #468
      01000C8EH   LINE      CODE     ---       #469
      01000C90H   LINE      CODE     ---       #471
      01000C90H   LINE      CODE     ---       #472
      01000C98H   LINE      CODE     ---       #473
      01000CA0H   LINE      CODE     ---       #474
      01000CA8H   LINE      CODE     ---       #475
      01000CB0H   LINE      CODE     ---       #476
      01000CB8H   LINE      CODE     ---       #477
      01000CC0H   LINE      CODE     ---       #478
      01000CC0H   LINE      CODE     ---       #479
      01000CC0H   LINE      CODE     ---       #482
LX51 LINKER/LOCATER V4.66.30.0                                                        01/20/2020  14:03:40  PAGE 44


      01000CC6H   LINE      CODE     ---       #483
      01000CC6H   LINE      CODE     ---       #484
      01000CC9H   LINE      CODE     ---       #486
      01000CE0H   LINE      CODE     ---       #487
      01000CE2H   LINE      CODE     ---       #489
      01000CE8H   LINE      CODE     ---       #490
      01000CE8H   LINE      CODE     ---       #491
      01000D03H   LINE      CODE     ---       #492
      01000D0AH   LINE      CODE     ---       #493
      01000D0CH   LINE      CODE     ---       #494
      01000D0EH   LINE      CODE     ---       #495
      01000D10H   LINE      CODE     ---       #496
      01000D10H   LINE      CODE     ---       #499
      01000D13H   LINE      CODE     ---       #500
      01000D13H   LINE      CODE     ---       #501
      01000D2CH   LINE      CODE     ---       #503
      01000D2FH   LINE      CODE     ---       #504
      01000D36H   LINE      CODE     ---       #505
      01000D36H   LINE      CODE     ---       #506
      01000D38H   LINE      CODE     ---       #507
      01000D3AH   LINE      CODE     ---       #509
      01000D3DH   LINE      CODE     ---       #510
      01000D3FH   LINE      CODE     ---       #511
      01000D3FH   LINE      CODE     ---       #514
      01000D42H   LINE      CODE     ---       #517
      01000D45H   LINE      CODE     ---       #518
      01000D48H   LINE      CODE     ---       #520
      01000D53H   LINE      CODE     ---       #521
      ---         BLOCKEND  ---      ---       LVL=0

      01001191H   BLOCK     CODE     ---       LVL=0
      01001199H   BLOCK     CODE     NEAR LAB  LVL=1
      00000057H   SYMBOL    DATA     CHAR      PT_YIELD_FLAG
      ---         BLOCKEND  ---      ---       LVL=1
      01001191H   LINE      CODE     ---       #544
      01001191H   LINE      CODE     ---       #545
      01001191H   LINE      CODE     ---       #546
      01001196H   LINE      CODE     ---       #547
      01001196H   LINE      CODE     ---       #548
      01001199H   LINE      CODE     ---       #549
      01001199H   LINE      CODE     ---       #551
      010011B8H   LINE      CODE     ---       #553
      010011B8H   LINE      CODE     ---       #554
      010011B8H   LINE      CODE     ---       #555
      010011CEH   LINE      CODE     ---       #557
      010011D0H   LINE      CODE     ---       #558
      010011D6H   LINE      CODE     ---       #559
      010011D6H   LINE      CODE     ---       #560
      010011F1H   LINE      CODE     ---       #561
      010011FCH   LINE      CODE     ---       #562
      01001206H   LINE      CODE     ---       #563
      01001208H   LINE      CODE     ---       #564
      0100120AH   LINE      CODE     ---       #565
      0100120CH   LINE      CODE     ---       #566
      01001217H   LINE      CODE     ---       #567
      ---         BLOCKEND  ---      ---       LVL=0

      0100142DH   BLOCK     CODE     ---       LVL=0
      0100142DH   LINE      CODE     ---       #632
      0100142DH   LINE      CODE     ---       #633
      0100142DH   LINE      CODE     ---       #634
      01001435H   LINE      CODE     ---       #635
LX51 LINKER/LOCATER V4.66.30.0                                                        01/20/2020  14:03:40  PAGE 45


      01001435H   LINE      CODE     ---       #636
      01001439H   LINE      CODE     ---       #638
      0100143FH   LINE      CODE     ---       #639
      0100143FH   LINE      CODE     ---       #640
      01001450H   LINE      CODE     ---       #643
      01001450H   LINE      CODE     ---       #644
      01001453H   LINE      CODE     ---       #645
      01001455H   LINE      CODE     ---       #646
      01001455H   LINE      CODE     ---       #647
      01001466H   LINE      CODE     ---       #650
      01001466H   LINE      CODE     ---       #651
      01001469H   LINE      CODE     ---       #652
      0100146BH   LINE      CODE     ---       #653
      0100146BH   LINE      CODE     ---       #654
      0100146BH   LINE      CODE     ---       #655
      01001471H   LINE      CODE     ---       #656
      01001471H   LINE      CODE     ---       #657
      01001473H   LINE      CODE     ---       #658
      01001473H   LINE      CODE     ---       #660
      01001475H   LINE      CODE     ---       #662
      0100147AH   LINE      CODE     ---       #663
      0100147AH   LINE      CODE     ---       #665
      01001481H   LINE      CODE     ---       #666
      01001484H   LINE      CODE     ---       #667
      01001486H   LINE      CODE     ---       #668
      01001486H   LINE      CODE     ---       #669
      01001486H   LINE      CODE     ---       #670
      01001487H   LINE      CODE     ---       #671
      ---         BLOCKEND  ---      ---       LVL=0

      010017A7H   BLOCK     CODE     ---       LVL=0
      00000007H   SYMBOL    DATA     BYTE      aschex
      010017A7H   LINE      CODE     ---       #690
      010017A7H   LINE      CODE     ---       #691
      010017A7H   LINE      CODE     ---       #692
      010017B3H   LINE      CODE     ---       #693
      010017B3H   LINE      CODE     ---       #694
      010017B8H   LINE      CODE     ---       #695
      010017B8H   LINE      CODE     ---       #696
      010017C4H   LINE      CODE     ---       #697
      010017C4H   LINE      CODE     ---       #698
      010017C9H   LINE      CODE     ---       #699
      010017C9H   LINE      CODE     ---       #700
      010017D5H   LINE      CODE     ---       #701
      010017D5H   LINE      CODE     ---       #702
      010017DAH   LINE      CODE     ---       #703
      010017DAH   LINE      CODE     ---       #705
      010017DCH   LINE      CODE     ---       #706
      ---         BLOCKEND  ---      ---       LVL=0

      01001999H   BLOCK     CODE     ---       LVL=0
      01001999H   BLOCK     CODE     NEAR LAB  LVL=1
      00000007H   SYMBOL    DATA     BYTE      temp_byte
      ---         BLOCKEND  ---      ---       LVL=1
      01001999H   LINE      CODE     ---       #724
      01001999H   LINE      CODE     ---       #725
      01001999H   LINE      CODE     ---       #728
      010019A0H   LINE      CODE     ---       #729
      010019A4H   LINE      CODE     ---       #730
      010019A4H   LINE      CODE     ---       #731
      010019AAH   LINE      CODE     ---       #732
      010019B0H   LINE      CODE     ---       #733
LX51 LINKER/LOCATER V4.66.30.0                                                        01/20/2020  14:03:40  PAGE 46


      010019B4H   LINE      CODE     ---       #734
      010019B4H   LINE      CODE     ---       #735
      010019B9H   LINE      CODE     ---       #736
      010019BBH   LINE      CODE     ---       #737
      010019BBH   LINE      CODE     ---       #738
      010019BBH   LINE      CODE     ---       #740
      010019BCH   LINE      CODE     ---       #741
      ---         BLOCKEND  ---      ---       LVL=0

      010007FBH   BLOCK     CODE     ---       LVL=0
      010007FBH   BLOCK     CODE     NEAR LAB  LVL=1
      00000003H   SYMBOL    DATA     BYTE      bval
      00000058H   SYMBOL    DATA     BYTE      digit_count
      ---         BLOCKEND  ---      ---       LVL=1
      010007FBH   LINE      CODE     ---       #759
      010007FBH   LINE      CODE     ---       #760
      010007FBH   LINE      CODE     ---       #764
      01000800H   LINE      CODE     ---       #766
      01000805H   LINE      CODE     ---       #768
      0100080CH   LINE      CODE     ---       #769
      0100080CH   LINE      CODE     ---       #770
      01000815H   LINE      CODE     ---       #772
      01000819H   LINE      CODE     ---       #773
      0100081CH   LINE      CODE     ---       #774
      0100081FH   LINE      CODE     ---       #775
      01000822H   LINE      CODE     ---       #776
      01000825H   LINE      CODE     ---       #777
      01000828H   LINE      CODE     ---       #778
      0100082BH   LINE      CODE     ---       #779
      0100082EH   LINE      CODE     ---       #781
      01000831H   LINE      CODE     ---       #782
      01000838H   LINE      CODE     ---       #783
      01000840H   LINE      CODE     ---       #785
      01000842H   LINE      CODE     ---       #786
      01000842H   LINE      CODE     ---       #787
      01000853H   LINE      CODE     ---       #790
      01000853H   LINE      CODE     ---       #793
      01000856H   LINE      CODE     ---       #794
      0100085DH   LINE      CODE     ---       #796
      0100085FH   LINE      CODE     ---       #799
      01000861H   LINE      CODE     ---       #800
      01000861H   LINE      CODE     ---       #801
      01000866H   LINE      CODE     ---       #802
      01000866H   LINE      CODE     ---       #804
      01000869H   LINE      CODE     ---       #805
      0100086BH   LINE      CODE     ---       #806
      0100086BH   LINE      CODE     ---       #807
      01000870H   LINE      CODE     ---       #808
      01000870H   LINE      CODE     ---       #810
      01000873H   LINE      CODE     ---       #811
      01000876H   LINE      CODE     ---       #812
      0100087EH   LINE      CODE     ---       #815
      01000880H   LINE      CODE     ---       #816
      01000882H   LINE      CODE     ---       #817
      01000882H   LINE      CODE     ---       #818
      01000889H   LINE      CODE     ---       #819
      01000889H   LINE      CODE     ---       #820
      0100088DH   LINE      CODE     ---       #821
      0100088FH   LINE      CODE     ---       #823
      01000899H   LINE      CODE     ---       #824
      01000899H   LINE      CODE     ---       #825
      0100089BH   LINE      CODE     ---       #827
LX51 LINKER/LOCATER V4.66.30.0                                                        01/20/2020  14:03:40  PAGE 47


      010008A1H   LINE      CODE     ---       #828
      010008A7H   LINE      CODE     ---       #829
      010008A7H   LINE      CODE     ---       #830
      010008BAH   LINE      CODE     ---       #831
      010008BAH   LINE      CODE     ---       #833
      010008BAH   LINE      CODE     ---       #834
      010008BAH   LINE      CODE     ---       #835
      010008BAH   LINE      CODE     ---       #836
      010008BEH   LINE      CODE     ---       #838
      010008C1H   LINE      CODE     ---       #839
      010008C1H   LINE      CODE     ---       #840
      010008C8H   LINE      CODE     ---       #841
      010008C8H   LINE      CODE     ---       #842
      010008CEH   LINE      CODE     ---       #843
      010008CEH   LINE      CODE     ---       #844
      010008CEH   LINE      CODE     ---       #845
      010008D0H   LINE      CODE     ---       #846
      010008D0H   LINE      CODE     ---       #849
      010008DBH   LINE      CODE     ---       #850
      010008DDH   LINE      CODE     ---       #852
      010008DDH   LINE      CODE     ---       #853
      010008E4H   LINE      CODE     ---       #854
      010008E4H   LINE      CODE     ---       #855
      010008E7H   LINE      CODE     ---       #856
      010008E8H   LINE      CODE     ---       #857
      010008E8H   LINE      CODE     ---       #859
      010008F5H   LINE      CODE     ---       #861
      010008F5H   LINE      CODE     ---       #862
      010008F5H   LINE      CODE     ---       #864
      010008F8H   LINE      CODE     ---       #865
      010008FBH   LINE      CODE     ---       #866
      010008FBH   LINE      CODE     ---       #867
      01000902H   LINE      CODE     ---       #868
      01000902H   LINE      CODE     ---       #869
      01000905H   LINE      CODE     ---       #871
      01000908H   LINE      CODE     ---       #872
      01000908H   LINE      CODE     ---       #873
      0100090AH   LINE      CODE     ---       #874
      01000911H   LINE      CODE     ---       #875
      01000911H   LINE      CODE     ---       #876
      01000918H   LINE      CODE     ---       #877
      01000918H   LINE      CODE     ---       #878
      01000922H   LINE      CODE     ---       #879
      01000924H   LINE      CODE     ---       #880
      01000924H   LINE      CODE     ---       #881
      01000924H   LINE      CODE     ---       #882
      01000926H   LINE      CODE     ---       #884
      01000926H   LINE      CODE     ---       #885
      01000933H   LINE      CODE     ---       #887
      01000933H   LINE      CODE     ---       #888
      0100093CH   LINE      CODE     ---       #889
      0100093FH   LINE      CODE     ---       #890
      01000941H   LINE      CODE     ---       #891
      01000941H   LINE      CODE     ---       #892
      01000941H   LINE      CODE     ---       #893
      01000941H   LINE      CODE     ---       #895
      01000944H   LINE      CODE     ---       #896
      01000944H   LINE      CODE     ---       #897
      0100094CH   LINE      CODE     ---       #898
      0100094CH   LINE      CODE     ---       #900
      0100094FH   LINE      CODE     ---       #901
      0100094FH   LINE      CODE     ---       #902
LX51 LINKER/LOCATER V4.66.30.0                                                        01/20/2020  14:03:40  PAGE 48


      01000956H   LINE      CODE     ---       #903
      01000956H   LINE      CODE     ---       #904
      01000959H   LINE      CODE     ---       #905
      01000965H   LINE      CODE     ---       #907
      01000968H   LINE      CODE     ---       #908
      01000968H   LINE      CODE     ---       #909
      01000975H   LINE      CODE     ---       #910
      01000975H   LINE      CODE     ---       #912
      01000978H   LINE      CODE     ---       #913
      01000978H   LINE      CODE     ---       #981
      0100097BH   LINE      CODE     ---       #982
      0100097CH   LINE      CODE     ---       #983
      ---         BLOCKEND  ---      ---       LVL=0

      01000F3DH   BLOCK     CODE     ---       LVL=0
      01000F3DH   LINE      CODE     ---       #1003
      01000F3DH   LINE      CODE     ---       #1004
      01000F3DH   LINE      CODE     ---       #1005
      01000F44H   LINE      CODE     ---       #1006
      01000F44H   LINE      CODE     ---       #1007
      01000F4BH   LINE      CODE     ---       #1008
      01000F4BH   LINE      CODE     ---       #1009
      01000F55H   LINE      CODE     ---       #1012
      01000F5EH   LINE      CODE     ---       #1013
      01000F69H   LINE      CODE     ---       #1016
      01000F72H   LINE      CODE     ---       #1017
      01000F7BH   LINE      CODE     ---       #1018
      01000F7BH   LINE      CODE     ---       #1019
      01000F7DH   LINE      CODE     ---       #1020
      01000F7EH   LINE      CODE     ---       #1021
      01000F85H   LINE      CODE     ---       #1022
      01000F85H   LINE      CODE     ---       #1024
      01000F88H   LINE      CODE     ---       #1025
      01000F89H   LINE      CODE     ---       #1026
      01000F90H   LINE      CODE     ---       #1027
      01000F90H   LINE      CODE     ---       #1028
      01000F97H   LINE      CODE     ---       #1029
      01000F97H   LINE      CODE     ---       #1030
      01000FA0H   LINE      CODE     ---       #1033
      01000FA9H   LINE      CODE     ---       #1034
      01000FB4H   LINE      CODE     ---       #1037
      01000FBDH   LINE      CODE     ---       #1038
      01000FC6H   LINE      CODE     ---       #1041
      01000FCFH   LINE      CODE     ---       #1042
      01000FD9H   LINE      CODE     ---       #1043
      01000FD9H   LINE      CODE     ---       #1044
      01000FDDH   LINE      CODE     ---       #1045
      01000FDEH   LINE      CODE     ---       #1047
      01000FDEH   LINE      CODE     ---       #1049
      01000FE1H   LINE      CODE     ---       #1050
      01000FE1H   LINE      CODE     ---       #1051
      ---         BLOCKEND  ---      ---       LVL=0

      01001A19H   BLOCK     CODE     ---       LVL=0
      00000006H   SYMBOL    DATA     WORD      value
      01001A19H   BLOCK     CODE     NEAR LAB  LVL=1
      00000007H   SYMBOL    DATA     BYTE      idx
      ---         BLOCKEND  ---      ---       LVL=1
      01001A19H   LINE      CODE     ---       #1069
      01001A19H   LINE      CODE     ---       #1070
      01001A19H   LINE      CODE     ---       #1074
      01001A1FH   LINE      CODE     ---       #1076
LX51 LINKER/LOCATER V4.66.30.0                                                        01/20/2020  14:03:40  PAGE 49


      01001A23H   LINE      CODE     ---       #1077
      01001A23H   LINE      CODE     ---       #1078
      01001A2FH   LINE      CODE     ---       #1079
      01001A32H   LINE      CODE     ---       #1080
      ---         BLOCKEND  ---      ---       LVL=0

      ---         MODULE    ---      ---       MCP_REGISTERS
      00000048H   PUBLIC    DATA     ---       MCP_reg16_status_update_map
      02000020H   PUBLIC    XDATA    ---       MCP_8_bit_registers
      00000046H   PUBLIC    DATA     WORD      MCP_reg8_status_update_map
      00000042H   PUBLIC    DATA     ---       MCP_reg16_dirty_bit_map
      00000040H   PUBLIC    DATA     WORD      MCP_reg8_dirty_bit_map
      02000000H   PUBLIC    XDATA    ---       MCP_16_bit_registers
      01001B8CH   PUBLIC    CONST    ---       MCP_reg16_access_type
      01001B8AH   PUBLIC    CONST    WORD      MCP_reg8_access_type
      010016FCH   PUBLIC    CODE     ---       _MCP_is_16bit_status_update_enabled
      010017DDH   PUBLIC    CODE     ---       _MCP_is_8bit_status_update_enabled
      00000021H.3 PUBLIC    BIT      BIT       ?_MCP_status_update_register?BIT
      01001295H   PUBLIC    CODE     ---       _MCP_status_update_register
      010019DEH   PUBLIC    CODE     ---       _MCP_get_16bit_register
      01001AE4H   PUBLIC    CODE     ---       _MCP_get_8bit_register
      00000021H.4 PUBLIC    BIT      BIT       ?_MCP_set_16bit_register?BIT
      01001308H   PUBLIC    CODE     ---       _MCP_set_16bit_register
      00000021H.4 PUBLIC    BIT      BIT       ?_MCP_set_8bit_register?BIT
      010015FBH   PUBLIC    CODE     ---       _MCP_set_8bit_register
      01001218H   PUBLIC    CODE     ---       MCP_init_registers
      000000A2H   SFRSYM    DATA     BYTE      SPI0CKR
      00000080H   SFRSYM    DATA     BYTE      P0
      000000D0H.2 SFRSYM    DATA     BIT       PSW_OV
      00000090H   SFRSYM    DATA     BYTE      P1
      00000097H   SFRSYM    DATA     BYTE      WDTCN
      000000A0H   SFRSYM    DATA     BYTE      P2
      000000BCH   SFRSYM    DATA     BYTE      ADC0CF
      000000C8H   SFRSYM    DATA     BIT       TMR2CN0_T2XCLK
      000000C0H.7 SFRSYM    DATA     BIT       SMB0CN0_MASTER
      000000F9H   SFRSYM    DATA     WORD      PCA0
      000000E6H   SFRSYM    DATA     BYTE      EIE1
      000000C0H.1 SFRSYM    DATA     BIT       SMB0CN0_ACK
      0000008FH   SFRSYM    DATA     BYTE      PSCTL
      000000E4H   SFRSYM    DATA     BYTE      IT01CF
      000000C0H.6 SFRSYM    DATA     BIT       SMB0CN0_TXMODE
      000000ADH   SFRSYM    DATA     BYTE      DERIVID
      000000A4H   SFRSYM    DATA     BYTE      P0MDOUT
      000000A5H   SFRSYM    DATA     BYTE      P1MDOUT
      000000E8H.5 SFRSYM    DATA     BIT       ADC0CN0_ADINT
      000000CBH   SFRSYM    DATA     BYTE      TMR2RLH
      000000A6H   SFRSYM    DATA     BYTE      P2MDOUT
      000000A8H   SFRSYM    DATA     BYTE      IE
      00000093H   SFRSYM    DATA     BYTE      TMR3RLH
      000000F3H   SFRSYM    DATA     BYTE      EIP1
      00000098H.2 SFRSYM    DATA     BIT       SCON0_RB8
      000000CAH   SFRSYM    DATA     BYTE      TMR2RLL
      000000FCH   SFRSYM    DATA     BYTE      PCA0CPH0
      00000092H   SFRSYM    DATA     BYTE      TMR3RLL
      000000EAH   SFRSYM    DATA     BYTE      PCA0CPH1
      00000098H.3 SFRSYM    DATA     BIT       SCON0_TB8
      000000F0H   SFRSYM    DATA     BIT       B_B0
      00000082H   SFRSYM    DATA     WORD      DP
      000000ECH   SFRSYM    DATA     BYTE      PCA0CPH2
      000000A0H.1 SFRSYM    DATA     BIT       BTN0
      000000F0H.1 SFRSYM    DATA     BIT       B_B1
      000000C3H   SFRSYM    DATA     WORD      ADC0GT
LX51 LINKER/LOCATER V4.66.30.0                                                        01/20/2020  14:03:40  PAGE 50


      00000090H.1 SFRSYM    DATA     BIT       BTN1
      000000F0H.2 SFRSYM    DATA     BIT       B_B2
      000000FBH   SFRSYM    DATA     BYTE      PCA0CPL0
      000000F0H.3 SFRSYM    DATA     BIT       B_B3
      000000D9H   SFRSYM    DATA     BYTE      PCA0MD
      000000DAH   SFRSYM    DATA     BYTE      PCA0CPM0
      000000E9H   SFRSYM    DATA     BYTE      PCA0CPL1
      000000F0H.4 SFRSYM    DATA     BIT       B_B4
      000000DBH   SFRSYM    DATA     BYTE      PCA0CPM1
      000000EBH   SFRSYM    DATA     BYTE      PCA0CPL2
      000000F0H.5 SFRSYM    DATA     BIT       B_B5
      000000DCH   SFRSYM    DATA     BYTE      PCA0CPM2
      000000B8H   SFRSYM    DATA     BYTE      IP
      000000B9H   SFRSYM    DATA     BYTE      ADC0TK
      000000F0H.6 SFRSYM    DATA     BIT       B_B6
      000000C5H   SFRSYM    DATA     WORD      ADC0LT
      00000098H.5 SFRSYM    DATA     BIT       SCON0_MCE
      000000F0H.7 SFRSYM    DATA     BIT       B_B7
      000000E1H   SFRSYM    DATA     BYTE      XBR0
      000000C1H   SFRSYM    DATA     BYTE      SMB0CF
      000000E2H   SFRSYM    DATA     BYTE      XBR1
      000000C0H.5 SFRSYM    DATA     BIT       SMB0CN0_STA
      000000E3H   SFRSYM    DATA     BYTE      XBR2
      000000BBH   SFRSYM    DATA     BYTE      ADC0MX
      000000E0H   SFRSYM    DATA     BIT       ACC_ACC0
      000000D1H   SFRSYM    DATA     BYTE      REF0CN
      0000008EH   SFRSYM    DATA     BYTE      CKCON0
      000000E0H.1 SFRSYM    DATA     BIT       ACC_ACC1
      000000C9H   SFRSYM    DATA     BYTE      REG0CN
      000000DDH   SFRSYM    DATA     BYTE      CRC0IN
      000000C8H.2 SFRSYM    DATA     BIT       TMR2CN0_TR2
      000000E0H.2 SFRSYM    DATA     BIT       ACC_ACC2
      000000E0H.3 SFRSYM    DATA     BIT       ACC_ACC3
      00000081H   SFRSYM    DATA     BYTE      SP
      0000009DH   SFRSYM    DATA     BYTE      CMP0MD
      000000E0H.4 SFRSYM    DATA     BIT       ACC_ACC4
      000000B1H   SFRSYM    DATA     BYTE      LFO0CN
      000000ABH   SFRSYM    DATA     BYTE      CMP1MD
      000000D8H   SFRSYM    DATA     BIT       PCA0CN0_CCF0
      000000E0H.5 SFRSYM    DATA     BIT       ACC_ACC5
      000000D8H.1 SFRSYM    DATA     BIT       PCA0CN0_CCF1
      000000E0H.6 SFRSYM    DATA     BIT       ACC_ACC6
      000000CCH   SFRSYM    DATA     WORD      TMR2
      000000D8H.2 SFRSYM    DATA     BIT       PCA0CN0_CCF2
      000000E0H.7 SFRSYM    DATA     BIT       ACC_ACC7
      00000094H   SFRSYM    DATA     WORD      TMR3
      000000C0H.3 SFRSYM    DATA     BIT       SMB0CN0_ACKRQ
      000000FFH   SFRSYM    DATA     BYTE      VDM0CN
      000000F1H   SFRSYM    DATA     BYTE      P0MDIN
      00000098H.4 SFRSYM    DATA     BIT       SCON0_REN
      000000ACH   SFRSYM    DATA     BYTE      SMB0TC
      000000F2H   SFRSYM    DATA     BYTE      P1MDIN
      000000C0H.4 SFRSYM    DATA     BIT       SMB0CN0_STO
      000000FEH   SFRSYM    DATA     BYTE      P0MASK
      000000EEH   SFRSYM    DATA     BYTE      P1MASK
      000000D0H.3 SFRSYM    DATA     BIT       PSW_RS0
      000000D8H.7 SFRSYM    DATA     BIT       PCA0CN0_CF
      0000009EH   SFRSYM    DATA     BYTE      PCA0CENT
      000000F8H.4 SFRSYM    DATA     BIT       SPI0CN0_RXOVRN
      000000D0H.4 SFRSYM    DATA     BIT       PSW_RS1
      000000E8H.7 SFRSYM    DATA     BIT       ADC0CN0_ADEN
      00000089H   SFRSYM    DATA     BYTE      TMOD
LX51 LINKER/LOCATER V4.66.30.0                                                        01/20/2020  14:03:40  PAGE 51


      00000088H   SFRSYM    DATA     BYTE      TCON
      000000CFH   SFRSYM    DATA     BYTE      CRC0FLIP
      000000D0H   SFRSYM    DATA     BIT       PSW_PARITY
      000000A8H.4 SFRSYM    DATA     BIT       IE_ES0
      0000009FH   SFRSYM    DATA     BYTE      CMP0MX
      000000A8H.1 SFRSYM    DATA     BIT       IE_ET0
      000000AAH   SFRSYM    DATA     BYTE      CMP1MX
      000000A8H.3 SFRSYM    DATA     BIT       IE_ET1
      000000D4H   SFRSYM    DATA     BYTE      P0SKIP
      000000A8H.5 SFRSYM    DATA     BIT       IE_ET2
      000000D5H   SFRSYM    DATA     BYTE      P1SKIP
      000000E8H   SFRSYM    DATA     BYTE      ADC0CN0
      000000A8H   SFRSYM    DATA     BIT       IE_EX0
      000000B2H   SFRSYM    DATA     BYTE      ADC0CN1
      000000D8H.6 SFRSYM    DATA     BIT       PCA0CN0_CR
      000000A8H.2 SFRSYM    DATA     BIT       IE_EX1
      00000098H.7 SFRSYM    DATA     BIT       SCON0_SMODE
      000000B5H   SFRSYM    DATA     BYTE      DEVICEID
      000000A9H   SFRSYM    DATA     BYTE      CLKSEL
      000000F8H   SFRSYM    DATA     BIT       SPI0CN0_SPIEN
      000000F0H   SFRSYM    DATA     BYTE      B
      000000BEH   SFRSYM    DATA     BYTE      ADC0H
      000000D2H   SFRSYM    DATA     BYTE      CRC0AUTO
      000000E8H.6 SFRSYM    DATA     BIT       ADC0CN0_ADBMEN
      000000CAH   SFRSYM    DATA     WORD      TMR2RL
      000000BDH   SFRSYM    DATA     BYTE      ADC0L
      00000092H   SFRSYM    DATA     WORD      TMR3RL
      000000D8H   SFRSYM    DATA     BYTE      PCA0CN0
      000000E0H   SFRSYM    DATA     BYTE      ACC
      000000FBH   SFRSYM    DATA     WORD      PCA0CP0
      000000E9H   SFRSYM    DATA     WORD      PCA0CP1
      000000EBH   SFRSYM    DATA     WORD      PCA0CP2
      000000CEH   SFRSYM    DATA     BYTE      CRC0CN0
      00000090H.4 SFRSYM    DATA     BIT       BSP_LED0
      0000008CH   SFRSYM    DATA     BYTE      TH0
      000000B8H.4 SFRSYM    DATA     BIT       IP_PS0
      0000008DH   SFRSYM    DATA     BYTE      TH1
      000000FAH   SFRSYM    DATA     BYTE      PCA0H
      000000B8H.1 SFRSYM    DATA     BIT       IP_PT0
      000000B8H.3 SFRSYM    DATA     BIT       IP_PT1
      000000C0H.2 SFRSYM    DATA     BIT       SMB0CN0_ARBLOST
      000000B8H.5 SFRSYM    DATA     BIT       IP_PT2
      0000008AH   SFRSYM    DATA     BYTE      TL0
      000000F8H.1 SFRSYM    DATA     BIT       SPI0CN0_TXBMT
      000000D0H.5 SFRSYM    DATA     BIT       PSW_F0
      000000A8H.6 SFRSYM    DATA     BIT       IE_ESPI0
      0000008BH   SFRSYM    DATA     BYTE      TL1
      000000F9H   SFRSYM    DATA     BYTE      PCA0L
      000000C0H   SFRSYM    DATA     BIT       SMB0CN0_SI
      000000D0H.1 SFRSYM    DATA     BIT       PSW_F1
      00000080H   SFRSYM    DATA     BIT       P0_B0
      000000B8H   SFRSYM    DATA     BIT       IP_PX0
      00000090H   SFRSYM    DATA     BIT       P1_B0
      00000080H.1 SFRSYM    DATA     BIT       P0_B1
      000000B8H.2 SFRSYM    DATA     BIT       IP_PX1
      0000009BH   SFRSYM    DATA     BYTE      CMP0CN0
      00000088H.1 SFRSYM    DATA     BIT       TCON_IE0
      000000A0H   SFRSYM    DATA     BIT       P2_B0
      00000090H.1 SFRSYM    DATA     BIT       P1_B1
      00000080H.2 SFRSYM    DATA     BIT       P0_B2
      000000BFH   SFRSYM    DATA     BYTE      CMP1CN0
      00000088H.3 SFRSYM    DATA     BIT       TCON_IE1
LX51 LINKER/LOCATER V4.66.30.0                                                        01/20/2020  14:03:40  PAGE 52


      000000A0H.1 SFRSYM    DATA     BIT       P2_B1
      00000090H.2 SFRSYM    DATA     BIT       P1_B2
      00000080H.3 SFRSYM    DATA     BIT       P0_B3
      000000C0H   SFRSYM    DATA     BYTE      SMB0CN0
      00000090H.3 SFRSYM    DATA     BIT       P1_B3
      00000080H.4 SFRSYM    DATA     BIT       P0_B4
      00000090H.4 SFRSYM    DATA     BIT       P1_B4
      00000080H.5 SFRSYM    DATA     BIT       P0_B5
      00000090H.5 SFRSYM    DATA     BIT       P1_B5
      00000080H.6 SFRSYM    DATA     BIT       P0_B6
      00000090H.6 SFRSYM    DATA     BIT       P1_B6
      00000080H.7 SFRSYM    DATA     BIT       P0_B7
      00000090H.7 SFRSYM    DATA     BIT       P1_B7
      00000080H.2 SFRSYM    DATA     BIT       BSP_BTN0
      00000083H   SFRSYM    DATA     BYTE      DPH
      000000C4H   SFRSYM    DATA     BYTE      ADC0GTH
      000000C8H.7 SFRSYM    DATA     BIT       TMR2CN0_TF2H
      000000C8H.3 SFRSYM    DATA     BIT       TMR2CN0_T2SPLIT
      000000D0H.6 SFRSYM    DATA     BIT       PSW_AC
      000000F8H   SFRSYM    DATA     BYTE      SPI0CN0
      000000C7H   SFRSYM    DATA     BYTE      HFO0CAL
      00000088H.5 SFRSYM    DATA     BIT       TCON_TF0
      00000098H   SFRSYM    DATA     BIT       SCON0_RI
      00000082H   SFRSYM    DATA     BYTE      DPL
      00000088H.7 SFRSYM    DATA     BIT       TCON_TF1
      00000099H   SFRSYM    DATA     BYTE      SBUF0
      00000087H   SFRSYM    DATA     BYTE      PCON0
      000000C3H   SFRSYM    DATA     BYTE      ADC0GTL
      000000C8H.6 SFRSYM    DATA     BIT       TMR2CN0_TF2L
      00000098H.1 SFRSYM    DATA     BIT       SCON0_TI
      000000E8H   SFRSYM    DATA     BIT       ADC0CN0_ADCM0
      000000C6H   SFRSYM    DATA     BYTE      ADC0LTH
      00000088H   SFRSYM    DATA     BIT       TCON_IT0
      000000E8H.1 SFRSYM    DATA     BIT       ADC0CN0_ADCM1
      000000EFH   SFRSYM    DATA     BYTE      RSTSRC
      000000FDH   SFRSYM    DATA     BYTE      P0MAT
      000000DEH   SFRSYM    DATA     BYTE      CRC0DAT
      00000088H.2 SFRSYM    DATA     BIT       TCON_IT1
      000000E8H.2 SFRSYM    DATA     BIT       ADC0CN0_ADCM2
      00000098H   SFRSYM    DATA     BYTE      SCON0
      000000F6H   SFRSYM    DATA     BYTE      PRTDRV
      000000EDH   SFRSYM    DATA     BYTE      P1MAT
      000000E8H.3 SFRSYM    DATA     BIT       ADC0CN0_ADWINT
      000000E8H.4 SFRSYM    DATA     BIT       ADC0CN0_ADBUSY
      000000D6H   SFRSYM    DATA     BYTE      SMB0ADM
      000000C5H   SFRSYM    DATA     BYTE      ADC0LTL
      000000F8H.5 SFRSYM    DATA     BIT       SPI0CN0_MODF
      000000B8H.6 SFRSYM    DATA     BIT       IP_PSPI0
      0000009CH   SFRSYM    DATA     BYTE      PCA0CLR
      000000C8H   SFRSYM    DATA     BYTE      TMR2CN0
      00000091H   SFRSYM    DATA     BYTE      TMR3CN0
      000000D7H   SFRSYM    DATA     BYTE      SMB0ADR
      00000088H.4 SFRSYM    DATA     BIT       TCON_TR0
      000000C8H.4 SFRSYM    DATA     BIT       TMR2CN0_TF2CEN
      00000088H.6 SFRSYM    DATA     BIT       TCON_TR1
      000000C2H   SFRSYM    DATA     BYTE      SMB0DAT
      000000CDH   SFRSYM    DATA     BYTE      TMR2H
      000000A1H   SFRSYM    DATA     BYTE      SPI0CFG
      00000095H   SFRSYM    DATA     BYTE      TMR3H
      000000D3H   SFRSYM    DATA     BYTE      CRC0CNT
      00000096H   SFRSYM    DATA     BYTE      PCA0POL
      000000CCH   SFRSYM    DATA     BYTE      TMR2L
LX51 LINKER/LOCATER V4.66.30.0                                                        01/20/2020  14:03:40  PAGE 53


      000000F8H.7 SFRSYM    DATA     BIT       SPI0CN0_SPIF
      00000094H   SFRSYM    DATA     BYTE      TMR3L
      000000DFH   SFRSYM    DATA     BYTE      ADC0PWR
      000000A8H.7 SFRSYM    DATA     BIT       IE_EA
      000000C8H.5 SFRSYM    DATA     BIT       TMR2CN0_TF2LEN
      000000F8H.6 SFRSYM    DATA     BIT       SPI0CN0_WCOL
      000000F8H.2 SFRSYM    DATA     BIT       SPI0CN0_NSSMD0
      000000D0H.7 SFRSYM    DATA     BIT       PSW_CY
      000000A3H   SFRSYM    DATA     BYTE      SPI0DAT
      000000F8H.3 SFRSYM    DATA     BIT       SPI0CN0_NSSMD1
      000000BDH   SFRSYM    DATA     WORD      ADC0
      000000D0H   SFRSYM    DATA     BYTE      PSW
      000000F7H   SFRSYM    DATA     BYTE      PCA0PWM
      000000B6H   SFRSYM    DATA     BYTE      REVID
      000000B7H   SFRSYM    DATA     BYTE      FLKEY
      000000B3H   SFRSYM    DATA     BYTE      ADC0AC
      01000003H   SYMBOL    CODE     ---       _MCP_check_address

      01001218H   BLOCK     CODE     ---       LVL=0
      01001218H   LINE      CODE     ---       #198
      01001218H   LINE      CODE     ---       #199
      01001218H   LINE      CODE     ---       #201
      0100121EH   LINE      CODE     ---       #202
      01001221H   LINE      CODE     ---       #203
      01001223H   LINE      CODE     ---       #205
      01001227H   LINE      CODE     ---       #210
      0100122BH   LINE      CODE     ---       #211
      0100122FH   LINE      CODE     ---       #213
      01001233H   LINE      CODE     ---       #214
      01001236H   LINE      CODE     ---       #215
      01001239H   LINE      CODE     ---       #218
      0100123FH   LINE      CODE     ---       #219
      01001245H   LINE      CODE     ---       #220
      0100124BH   LINE      CODE     ---       #221
      01001251H   LINE      CODE     ---       #222
      01001258H   LINE      CODE     ---       #225
      01001262H   LINE      CODE     ---       #226
      01001269H   LINE      CODE     ---       #227
      0100126FH   LINE      CODE     ---       #228
      01001277H   LINE      CODE     ---       #230
      01001280H   LINE      CODE     ---       #232
      0100128AH   LINE      CODE     ---       #235
      01001294H   LINE      CODE     ---       #236
      ---         BLOCKEND  ---      ---       LVL=0

      010015FBH   BLOCK     CODE     ---       LVL=0
      00000004H   SYMBOL    DATA     BYTE      address
      00000005H   SYMBOL    DATA     BYTE      value
      00000021H.4 SYMBOL    BIT      BIT       external_access
      010015FDH   BLOCK     CODE     NEAR LAB  LVL=1
      00000006H   SYMBOL    DATA     WORD      temp16
      ---         BLOCKEND  ---      ---       LVL=1
      010015FBH   LINE      CODE     ---       #263
      010015FDH   LINE      CODE     ---       #264
      010015FDH   LINE      CODE     ---       #267
      01001603H   LINE      CODE     ---       #268
      01001603H   LINE      CODE     ---       #269
      01001604H   LINE      CODE     ---       #270
      01001604H   LINE      CODE     ---       #272
      01001615H   LINE      CODE     ---       #274
      01001626H   LINE      CODE     ---       #275
      01001626H   LINE      CODE     ---       #276
LX51 LINKER/LOCATER V4.66.30.0                                                        01/20/2020  14:03:40  PAGE 54


      01001628H   LINE      CODE     ---       #277
      01001628H   LINE      CODE     ---       #279
      01001634H   LINE      CODE     ---       #281
      0100163AH   LINE      CODE     ---       #283
      0100163BH   LINE      CODE     ---       #284
      ---         BLOCKEND  ---      ---       LVL=0

      01001308H   BLOCK     CODE     ---       LVL=0
      00000007H   SYMBOL    DATA     BYTE      address
      0000005AH   SYMBOL    DATA     WORD      value
      00000021H.4 SYMBOL    BIT      BIT       external_access
      0100130CH   BLOCK     CODE     NEAR LAB  LVL=1
      00000021H.5 SYMBOL    BIT      BIT       int_status
      0000005CH   SYMBOL    DATA     ---       ptr
      00000006H   SYMBOL    DATA     BYTE      byte_num
      00000007H   SYMBOL    DATA     BYTE      bit_mask
      ---         BLOCKEND  ---      ---       LVL=1
      01001308H   LINE      CODE     ---       #312
      0100130CH   LINE      CODE     ---       #313
      0100130CH   LINE      CODE     ---       #320
      01001312H   LINE      CODE     ---       #321
      01001312H   LINE      CODE     ---       #322
      01001313H   LINE      CODE     ---       #323
      01001313H   LINE      CODE     ---       #325
      01001319H   LINE      CODE     ---       #327
      01001328H   LINE      CODE     ---       #329
      01001331H   LINE      CODE     ---       #330
      01001341H   LINE      CODE     ---       #332
      0100134CH   LINE      CODE     ---       #333
      0100134CH   LINE      CODE     ---       #334
      0100134EH   LINE      CODE     ---       #335
      0100134EH   LINE      CODE     ---       #337
      01001354H   LINE      CODE     ---       #339
      01001361H   LINE      CODE     ---       #341
      01001365H   LINE      CODE     ---       #343
      0100136CH   LINE      CODE     ---       #345
      0100136DH   LINE      CODE     ---       #346
      ---         BLOCKEND  ---      ---       LVL=0
      00000007H   SYMBOL    DATA     BYTE      address
      00000005H   SYMBOL    DATA     BYTE      value
      00000007H   SYMBOL    DATA     BYTE      address
      00000004H   SYMBOL    DATA     WORD      value
      00000082H   SYMBOL    DATA     ---       ptr
      00000006H   SYMBOL    DATA     BYTE      byte_num
      00000007H   SYMBOL    DATA     BYTE      bit_mask

      01001AE4H   BLOCK     CODE     ---       LVL=0
      00000007H   SYMBOL    DATA     BYTE      address
      01001AE4H   LINE      CODE     ---       #427
      01001AE4H   LINE      CODE     ---       #428
      01001AE4H   LINE      CODE     ---       #429
      01001AF0H   LINE      CODE     ---       #430
      ---         BLOCKEND  ---      ---       LVL=0

      010019DEH   BLOCK     CODE     ---       LVL=0
      00000007H   SYMBOL    DATA     BYTE      address
      010019DEH   BLOCK     CODE     NEAR LAB  LVL=1
      00000021H.4 SYMBOL    BIT      BIT       int_status
      00000006H   SYMBOL    DATA     WORD      value
      00000082H   SYMBOL    DATA     ---       ptr
      ---         BLOCKEND  ---      ---       LVL=1
      010019DEH   LINE      CODE     ---       #446
LX51 LINKER/LOCATER V4.66.30.0                                                        01/20/2020  14:03:40  PAGE 55


      010019DEH   LINE      CODE     ---       #447
      010019DEH   LINE      CODE     ---       #453
      010019EEH   LINE      CODE     ---       #455
      010019F4H   LINE      CODE     ---       #457
      010019F9H   LINE      CODE     ---       #459
      010019FDH   LINE      CODE     ---       #461
      010019FDH   LINE      CODE     ---       #462
      ---         BLOCKEND  ---      ---       LVL=0
      00000007H   SYMBOL    DATA     BYTE      address
      00000007H   SYMBOL    DATA     BYTE      address
      00000006H   SYMBOL    DATA     WORD      value
      00000082H   SYMBOL    DATA     ---       ptr

      01001295H   BLOCK     CODE     ---       LVL=0
      00000059H   SYMBOL    DATA     BYTE      address
      00000021H.3 SYMBOL    BIT      BIT       enable
      01001297H   BLOCK     CODE     NEAR LAB  LVL=1
      00000006H   SYMBOL    DATA     WORD      temp16
      00000007H   SYMBOL    DATA     BYTE      byte_num
      00000006H   SYMBOL    DATA     BYTE      bit_mask
      ---         BLOCKEND  ---      ---       LVL=1
      01001295H   LINE      CODE     ---       #536
      01001297H   LINE      CODE     ---       #537
      01001297H   LINE      CODE     ---       #542
      0100129CH   LINE      CODE     ---       #543
      0100129CH   LINE      CODE     ---       #544
      0100129DH   LINE      CODE     ---       #545
      0100129DH   LINE      CODE     ---       #547
      010012AEH   LINE      CODE     ---       #549
      010012B5H   LINE      CODE     ---       #550
      010012B5H   LINE      CODE     ---       #551
      010012B9H   LINE      CODE     ---       #552
      010012B9H   LINE      CODE     ---       #553
      010012BEH   LINE      CODE     ---       #555
      010012C0H   LINE      CODE     ---       #557
      010012C0H   LINE      CODE     ---       #558
      010012CBH   LINE      CODE     ---       #560
      010012CBH   LINE      CODE     ---       #561
      010012CDH   LINE      CODE     ---       #565
      010012D4H   LINE      CODE     ---       #566
      010012D4H   LINE      CODE     ---       #567
      010012DCH   LINE      CODE     ---       #569
      010012E4H   LINE      CODE     ---       #570
      010012F5H   LINE      CODE     ---       #572
      010012FDH   LINE      CODE     ---       #573
      010012FDH   LINE      CODE     ---       #574
      010012FFH   LINE      CODE     ---       #576
      01001301H   LINE      CODE     ---       #578
      01001301H   LINE      CODE     ---       #579
      01001306H   LINE      CODE     ---       #581
      01001306H   LINE      CODE     ---       #582
      01001306H   LINE      CODE     ---       #583
      01001307H   LINE      CODE     ---       #584
      ---         BLOCKEND  ---      ---       LVL=0

      010017DDH   BLOCK     CODE     ---       LVL=0
      00000007H   SYMBOL    DATA     BYTE      address
      010017DDH   BLOCK     CODE     NEAR LAB  LVL=1
      00000006H   SYMBOL    DATA     WORD      temp16
      ---         BLOCKEND  ---      ---       LVL=1
      010017DDH   LINE      CODE     ---       #602
      010017DDH   LINE      CODE     ---       #603
LX51 LINKER/LOCATER V4.66.30.0                                                        01/20/2020  14:03:40  PAGE 56


      010017DDH   LINE      CODE     ---       #606
      010017EEH   LINE      CODE     ---       #608
      01001802H   LINE      CODE     ---       #610
      01001802H   LINE      CODE     ---       #611
      0100180EH   LINE      CODE     ---       #612
      01001810H   LINE      CODE     ---       #613
      01001810H   LINE      CODE     ---       #615
      01001811H   LINE      CODE     ---       #616
      ---         BLOCKEND  ---      ---       LVL=0

      010016FCH   BLOCK     CODE     ---       LVL=0
      00000007H   SYMBOL    DATA     BYTE      address
      010016FCH   BLOCK     CODE     NEAR LAB  LVL=1
      00000006H   SYMBOL    DATA     BYTE      byte_num
      00000007H   SYMBOL    DATA     BYTE      bit_mask
      ---         BLOCKEND  ---      ---       LVL=1
      010016FCH   LINE      CODE     ---       #634
      010016FCH   LINE      CODE     ---       #635
      010016FCH   LINE      CODE     ---       #639
      01001702H   LINE      CODE     ---       #641
      0100170AH   LINE      CODE     ---       #642
      0100171AH   LINE      CODE     ---       #644
      0100172AH   LINE      CODE     ---       #646
      0100172AH   LINE      CODE     ---       #647
      01001734H   LINE      CODE     ---       #648
      01001736H   LINE      CODE     ---       #649
      01001736H   LINE      CODE     ---       #651
      01001737H   LINE      CODE     ---       #652
      ---         BLOCKEND  ---      ---       LVL=0

      01000003H   BLOCK     CODE     ---       LVL=0
      00000007H   SYMBOL    DATA     BYTE      address
      01000003H   LINE      CODE     ---       #672
      01000003H   LINE      CODE     ---       #673
      01000003H   LINE      CODE     ---       #674
      01000015H   LINE      CODE     ---       #679
      01000015H   LINE      CODE     ---       #680
      01000017H   LINE      CODE     ---       #681
      01000017H   LINE      CODE     ---       #683
      01000018H   LINE      CODE     ---       #684
      ---         BLOCKEND  ---      ---       LVL=0

      ---         MODULE    ---      ---       ?C_STARTUP
      01000000H   PUBLIC    CODE     NEAR LAB  ?C_STARTUP
      000000E0H   SFRSYM    DATA     BYTE      ACC
      000000F0H   SFRSYM    DATA     BYTE      B
      00000083H   SFRSYM    DATA     BYTE      DPH
      00000082H   SFRSYM    DATA     BYTE      DPL
      000000A0H   SFRSYM    DATA     BYTE      PPAGE_SFR
      00000081H   SFRSYM    DATA     BYTE      SP
      00000000H   SYMBOL    NUMBER   ---       IBPSTACK
      00000100H   SYMBOL    NUMBER   ---       IBPSTACKTOP
      00000080H   SYMBOL    NUMBER   ---       IDATALEN
      0100107AH   SYMBOL    CODE     NEAR LAB  IDATALOOP
      00000000H   SYMBOL    NUMBER   ---       PBPSTACK
      00000100H   SYMBOL    NUMBER   ---       PBPSTACKTOP
      00000000H   SYMBOL    NUMBER   ---       PDATALEN
      00000000H   SYMBOL    NUMBER   ---       PDATASTART
      00000000H   SYMBOL    NUMBER   ---       PPAGE
      00000000H   SYMBOL    NUMBER   ---       PPAGEENABLE
      01001074H   SYMBOL    CODE     NEAR LAB  STARTUP1
      00000000H   SYMBOL    NUMBER   ---       XBPSTACK
LX51 LINKER/LOCATER V4.66.30.0                                                        01/20/2020  14:03:40  PAGE 57


      00010000H   SYMBOL    NUMBER   ---       XBPSTACKTOP
      00000000H   SYMBOL    NUMBER   ---       XDATALEN
      00000000H   SYMBOL    NUMBER   ---       XDATASTART

      01000000H   BLOCK     CODE     NEAR LAB  LVL=0
      01000000H   LINE      CODE     ---       #126
      ---         BLOCKEND  ---      ---       LVL=0

      01001074H   BLOCK     CODE     NEAR LAB  LVL=0
      01001074H   LINE      CODE     ---       #134
      01001077H   LINE      CODE     ---       #138
      01001079H   LINE      CODE     ---       #139
      0100107AH   LINE      CODE     ---       #140
      0100107BH   LINE      CODE     ---       #141
      0100107DH   LINE      CODE     ---       #190
      01001080H   LINE      CODE     ---       #201
      ---         BLOCKEND  ---      ---       LVL=0

      ---         MODULE    ---      ---       UART_DRIVER
      0000006DH   PUBLIC    DATA     ---       UART_tx_buffer_tail
      0000006CH   PUBLIC    DATA     ---       UART_rx_buffer_tail
      00000084H   PUBLIC    IDATA    ---       UART_tx_buffer
      00000074H   PUBLIC    IDATA    ---       UART_rx_buffer
      0000006BH   PUBLIC    DATA     ---       UART_tx_buffer_head
      0000006AH   PUBLIC    DATA     ---       UART_rx_buffer_head
      00000022H.5 PUBLIC    BIT      BIT       UART_tx_busy
      01001488H   PUBLIC    CODE     ---       UART0_ISR
      01001A96H   PUBLIC    CODE     ---       UART_get_tx_buffer_free_bytes
      010018FCH   PUBLIC    CODE     ---       _UART_receive_byte
      010018A3H   PUBLIC    CODE     ---       _UART_send_byte
      000000A2H   SFRSYM    DATA     BYTE      SPI0CKR
      00000080H   SFRSYM    DATA     BYTE      P0
      000000D0H.2 SFRSYM    DATA     BIT       PSW_OV
      00000090H   SFRSYM    DATA     BYTE      P1
      00000097H   SFRSYM    DATA     BYTE      WDTCN
      000000A0H   SFRSYM    DATA     BYTE      P2
      000000BCH   SFRSYM    DATA     BYTE      ADC0CF
      000000C8H   SFRSYM    DATA     BIT       TMR2CN0_T2XCLK
      000000C0H.7 SFRSYM    DATA     BIT       SMB0CN0_MASTER
      000000F9H   SFRSYM    DATA     WORD      PCA0
      000000E6H   SFRSYM    DATA     BYTE      EIE1
      000000C0H.1 SFRSYM    DATA     BIT       SMB0CN0_ACK
      0000008FH   SFRSYM    DATA     BYTE      PSCTL
      000000E4H   SFRSYM    DATA     BYTE      IT01CF
      000000C0H.6 SFRSYM    DATA     BIT       SMB0CN0_TXMODE
      000000ADH   SFRSYM    DATA     BYTE      DERIVID
      000000A4H   SFRSYM    DATA     BYTE      P0MDOUT
      000000A5H   SFRSYM    DATA     BYTE      P1MDOUT
      000000E8H.5 SFRSYM    DATA     BIT       ADC0CN0_ADINT
      000000CBH   SFRSYM    DATA     BYTE      TMR2RLH
      000000A6H   SFRSYM    DATA     BYTE      P2MDOUT
      000000A8H   SFRSYM    DATA     BYTE      IE
      00000093H   SFRSYM    DATA     BYTE      TMR3RLH
      000000F3H   SFRSYM    DATA     BYTE      EIP1
      00000098H.2 SFRSYM    DATA     BIT       SCON0_RB8
      000000CAH   SFRSYM    DATA     BYTE      TMR2RLL
      000000FCH   SFRSYM    DATA     BYTE      PCA0CPH0
      00000092H   SFRSYM    DATA     BYTE      TMR3RLL
      000000EAH   SFRSYM    DATA     BYTE      PCA0CPH1
      00000098H.3 SFRSYM    DATA     BIT       SCON0_TB8
      000000F0H   SFRSYM    DATA     BIT       B_B0
      00000082H   SFRSYM    DATA     WORD      DP
LX51 LINKER/LOCATER V4.66.30.0                                                        01/20/2020  14:03:40  PAGE 58


      000000ECH   SFRSYM    DATA     BYTE      PCA0CPH2
      000000A0H.1 SFRSYM    DATA     BIT       BTN0
      000000F0H.1 SFRSYM    DATA     BIT       B_B1
      000000C3H   SFRSYM    DATA     WORD      ADC0GT
      00000090H.1 SFRSYM    DATA     BIT       BTN1
      000000F0H.2 SFRSYM    DATA     BIT       B_B2
      000000FBH   SFRSYM    DATA     BYTE      PCA0CPL0
      000000F0H.3 SFRSYM    DATA     BIT       B_B3
      000000D9H   SFRSYM    DATA     BYTE      PCA0MD
      000000DAH   SFRSYM    DATA     BYTE      PCA0CPM0
      000000E9H   SFRSYM    DATA     BYTE      PCA0CPL1
      000000F0H.4 SFRSYM    DATA     BIT       B_B4
      000000DBH   SFRSYM    DATA     BYTE      PCA0CPM1
      000000EBH   SFRSYM    DATA     BYTE      PCA0CPL2
      000000F0H.5 SFRSYM    DATA     BIT       B_B5
      000000DCH   SFRSYM    DATA     BYTE      PCA0CPM2
      000000B8H   SFRSYM    DATA     BYTE      IP
      000000B9H   SFRSYM    DATA     BYTE      ADC0TK
      000000F0H.6 SFRSYM    DATA     BIT       B_B6
      000000C5H   SFRSYM    DATA     WORD      ADC0LT
      00000098H.5 SFRSYM    DATA     BIT       SCON0_MCE
      000000F0H.7 SFRSYM    DATA     BIT       B_B7
      000000E1H   SFRSYM    DATA     BYTE      XBR0
      000000C1H   SFRSYM    DATA     BYTE      SMB0CF
      000000E2H   SFRSYM    DATA     BYTE      XBR1
      000000C0H.5 SFRSYM    DATA     BIT       SMB0CN0_STA
      000000E3H   SFRSYM    DATA     BYTE      XBR2
      000000BBH   SFRSYM    DATA     BYTE      ADC0MX
      000000E0H   SFRSYM    DATA     BIT       ACC_ACC0
      000000D1H   SFRSYM    DATA     BYTE      REF0CN
      0000008EH   SFRSYM    DATA     BYTE      CKCON0
      000000E0H.1 SFRSYM    DATA     BIT       ACC_ACC1
      000000C9H   SFRSYM    DATA     BYTE      REG0CN
      000000DDH   SFRSYM    DATA     BYTE      CRC0IN
      000000C8H.2 SFRSYM    DATA     BIT       TMR2CN0_TR2
      000000E0H.2 SFRSYM    DATA     BIT       ACC_ACC2
      000000E0H.3 SFRSYM    DATA     BIT       ACC_ACC3
      00000081H   SFRSYM    DATA     BYTE      SP
      0000009DH   SFRSYM    DATA     BYTE      CMP0MD
      000000E0H.4 SFRSYM    DATA     BIT       ACC_ACC4
      000000B1H   SFRSYM    DATA     BYTE      LFO0CN
      000000ABH   SFRSYM    DATA     BYTE      CMP1MD
      000000D8H   SFRSYM    DATA     BIT       PCA0CN0_CCF0
      000000E0H.5 SFRSYM    DATA     BIT       ACC_ACC5
      000000D8H.1 SFRSYM    DATA     BIT       PCA0CN0_CCF1
      000000E0H.6 SFRSYM    DATA     BIT       ACC_ACC6
      000000CCH   SFRSYM    DATA     WORD      TMR2
      000000D8H.2 SFRSYM    DATA     BIT       PCA0CN0_CCF2
      000000E0H.7 SFRSYM    DATA     BIT       ACC_ACC7
      00000094H   SFRSYM    DATA     WORD      TMR3
      000000C0H.3 SFRSYM    DATA     BIT       SMB0CN0_ACKRQ
      000000FFH   SFRSYM    DATA     BYTE      VDM0CN
      000000F1H   SFRSYM    DATA     BYTE      P0MDIN
      00000098H.4 SFRSYM    DATA     BIT       SCON0_REN
      000000ACH   SFRSYM    DATA     BYTE      SMB0TC
      000000F2H   SFRSYM    DATA     BYTE      P1MDIN
      000000C0H.4 SFRSYM    DATA     BIT       SMB0CN0_STO
      000000FEH   SFRSYM    DATA     BYTE      P0MASK
      000000EEH   SFRSYM    DATA     BYTE      P1MASK
      000000D0H.3 SFRSYM    DATA     BIT       PSW_RS0
      000000D8H.7 SFRSYM    DATA     BIT       PCA0CN0_CF
      0000009EH   SFRSYM    DATA     BYTE      PCA0CENT
LX51 LINKER/LOCATER V4.66.30.0                                                        01/20/2020  14:03:40  PAGE 59


      000000F8H.4 SFRSYM    DATA     BIT       SPI0CN0_RXOVRN
      000000D0H.4 SFRSYM    DATA     BIT       PSW_RS1
      000000E8H.7 SFRSYM    DATA     BIT       ADC0CN0_ADEN
      00000089H   SFRSYM    DATA     BYTE      TMOD
      00000088H   SFRSYM    DATA     BYTE      TCON
      000000CFH   SFRSYM    DATA     BYTE      CRC0FLIP
      000000D0H   SFRSYM    DATA     BIT       PSW_PARITY
      000000A8H.4 SFRSYM    DATA     BIT       IE_ES0
      0000009FH   SFRSYM    DATA     BYTE      CMP0MX
      000000A8H.1 SFRSYM    DATA     BIT       IE_ET0
      000000AAH   SFRSYM    DATA     BYTE      CMP1MX
      000000A8H.3 SFRSYM    DATA     BIT       IE_ET1
      000000D4H   SFRSYM    DATA     BYTE      P0SKIP
      000000A8H.5 SFRSYM    DATA     BIT       IE_ET2
      000000D5H   SFRSYM    DATA     BYTE      P1SKIP
      000000E8H   SFRSYM    DATA     BYTE      ADC0CN0
      000000A8H   SFRSYM    DATA     BIT       IE_EX0
      000000B2H   SFRSYM    DATA     BYTE      ADC0CN1
      000000D8H.6 SFRSYM    DATA     BIT       PCA0CN0_CR
      000000A8H.2 SFRSYM    DATA     BIT       IE_EX1
      00000098H.7 SFRSYM    DATA     BIT       SCON0_SMODE
      000000B5H   SFRSYM    DATA     BYTE      DEVICEID
      000000A9H   SFRSYM    DATA     BYTE      CLKSEL
      000000F8H   SFRSYM    DATA     BIT       SPI0CN0_SPIEN
      000000F0H   SFRSYM    DATA     BYTE      B
      000000BEH   SFRSYM    DATA     BYTE      ADC0H
      000000D2H   SFRSYM    DATA     BYTE      CRC0AUTO
      000000E8H.6 SFRSYM    DATA     BIT       ADC0CN0_ADBMEN
      000000CAH   SFRSYM    DATA     WORD      TMR2RL
      000000BDH   SFRSYM    DATA     BYTE      ADC0L
      00000092H   SFRSYM    DATA     WORD      TMR3RL
      000000D8H   SFRSYM    DATA     BYTE      PCA0CN0
      000000E0H   SFRSYM    DATA     BYTE      ACC
      000000FBH   SFRSYM    DATA     WORD      PCA0CP0
      000000E9H   SFRSYM    DATA     WORD      PCA0CP1
      000000EBH   SFRSYM    DATA     WORD      PCA0CP2
      000000CEH   SFRSYM    DATA     BYTE      CRC0CN0
      00000090H.4 SFRSYM    DATA     BIT       BSP_LED0
      0000008CH   SFRSYM    DATA     BYTE      TH0
      000000B8H.4 SFRSYM    DATA     BIT       IP_PS0
      0000008DH   SFRSYM    DATA     BYTE      TH1
      000000FAH   SFRSYM    DATA     BYTE      PCA0H
      000000B8H.1 SFRSYM    DATA     BIT       IP_PT0
      000000B8H.3 SFRSYM    DATA     BIT       IP_PT1
      000000C0H.2 SFRSYM    DATA     BIT       SMB0CN0_ARBLOST
      000000B8H.5 SFRSYM    DATA     BIT       IP_PT2
      0000008AH   SFRSYM    DATA     BYTE      TL0
      000000F8H.1 SFRSYM    DATA     BIT       SPI0CN0_TXBMT
      000000D0H.5 SFRSYM    DATA     BIT       PSW_F0
      000000A8H.6 SFRSYM    DATA     BIT       IE_ESPI0
      0000008BH   SFRSYM    DATA     BYTE      TL1
      000000F9H   SFRSYM    DATA     BYTE      PCA0L
      000000C0H   SFRSYM    DATA     BIT       SMB0CN0_SI
      000000D0H.1 SFRSYM    DATA     BIT       PSW_F1
      00000080H   SFRSYM    DATA     BIT       P0_B0
      000000B8H   SFRSYM    DATA     BIT       IP_PX0
      00000090H   SFRSYM    DATA     BIT       P1_B0
      00000080H.1 SFRSYM    DATA     BIT       P0_B1
      000000B8H.2 SFRSYM    DATA     BIT       IP_PX1
      0000009BH   SFRSYM    DATA     BYTE      CMP0CN0
      00000088H.1 SFRSYM    DATA     BIT       TCON_IE0
      000000A0H   SFRSYM    DATA     BIT       P2_B0
LX51 LINKER/LOCATER V4.66.30.0                                                        01/20/2020  14:03:40  PAGE 60


      00000090H.1 SFRSYM    DATA     BIT       P1_B1
      00000080H.2 SFRSYM    DATA     BIT       P0_B2
      000000BFH   SFRSYM    DATA     BYTE      CMP1CN0
      00000088H.3 SFRSYM    DATA     BIT       TCON_IE1
      000000A0H.1 SFRSYM    DATA     BIT       P2_B1
      00000090H.2 SFRSYM    DATA     BIT       P1_B2
      00000080H.3 SFRSYM    DATA     BIT       P0_B3
      000000C0H   SFRSYM    DATA     BYTE      SMB0CN0
      00000090H.3 SFRSYM    DATA     BIT       P1_B3
      00000080H.4 SFRSYM    DATA     BIT       P0_B4
      00000090H.4 SFRSYM    DATA     BIT       P1_B4
      00000080H.5 SFRSYM    DATA     BIT       P0_B5
      00000090H.5 SFRSYM    DATA     BIT       P1_B5
      00000080H.6 SFRSYM    DATA     BIT       P0_B6
      00000090H.6 SFRSYM    DATA     BIT       P1_B6
      00000080H.7 SFRSYM    DATA     BIT       P0_B7
      00000090H.7 SFRSYM    DATA     BIT       P1_B7
      00000080H.2 SFRSYM    DATA     BIT       BSP_BTN0
      00000083H   SFRSYM    DATA     BYTE      DPH
      000000C4H   SFRSYM    DATA     BYTE      ADC0GTH
      000000C8H.7 SFRSYM    DATA     BIT       TMR2CN0_TF2H
      000000C8H.3 SFRSYM    DATA     BIT       TMR2CN0_T2SPLIT
      000000D0H.6 SFRSYM    DATA     BIT       PSW_AC
      000000F8H   SFRSYM    DATA     BYTE      SPI0CN0
      000000C7H   SFRSYM    DATA     BYTE      HFO0CAL
      00000088H.5 SFRSYM    DATA     BIT       TCON_TF0
      00000098H   SFRSYM    DATA     BIT       SCON0_RI
      00000082H   SFRSYM    DATA     BYTE      DPL
      00000088H.7 SFRSYM    DATA     BIT       TCON_TF1
      00000099H   SFRSYM    DATA     BYTE      SBUF0
      00000087H   SFRSYM    DATA     BYTE      PCON0
      000000C3H   SFRSYM    DATA     BYTE      ADC0GTL
      000000C8H.6 SFRSYM    DATA     BIT       TMR2CN0_TF2L
      00000098H.1 SFRSYM    DATA     BIT       SCON0_TI
      000000E8H   SFRSYM    DATA     BIT       ADC0CN0_ADCM0
      000000C6H   SFRSYM    DATA     BYTE      ADC0LTH
      00000088H   SFRSYM    DATA     BIT       TCON_IT0
      000000E8H.1 SFRSYM    DATA     BIT       ADC0CN0_ADCM1
      000000EFH   SFRSYM    DATA     BYTE      RSTSRC
      000000FDH   SFRSYM    DATA     BYTE      P0MAT
      000000DEH   SFRSYM    DATA     BYTE      CRC0DAT
      00000088H.2 SFRSYM    DATA     BIT       TCON_IT1
      000000E8H.2 SFRSYM    DATA     BIT       ADC0CN0_ADCM2
      00000098H   SFRSYM    DATA     BYTE      SCON0
      000000F6H   SFRSYM    DATA     BYTE      PRTDRV
      000000EDH   SFRSYM    DATA     BYTE      P1MAT
      000000E8H.3 SFRSYM    DATA     BIT       ADC0CN0_ADWINT
      000000E8H.4 SFRSYM    DATA     BIT       ADC0CN0_ADBUSY
      000000D6H   SFRSYM    DATA     BYTE      SMB0ADM
      000000C5H   SFRSYM    DATA     BYTE      ADC0LTL
      000000F8H.5 SFRSYM    DATA     BIT       SPI0CN0_MODF
      000000B8H.6 SFRSYM    DATA     BIT       IP_PSPI0
      0000009CH   SFRSYM    DATA     BYTE      PCA0CLR
      000000C8H   SFRSYM    DATA     BYTE      TMR2CN0
      00000091H   SFRSYM    DATA     BYTE      TMR3CN0
      000000D7H   SFRSYM    DATA     BYTE      SMB0ADR
      00000088H.4 SFRSYM    DATA     BIT       TCON_TR0
      000000C8H.4 SFRSYM    DATA     BIT       TMR2CN0_TF2CEN
      00000088H.6 SFRSYM    DATA     BIT       TCON_TR1
      000000C2H   SFRSYM    DATA     BYTE      SMB0DAT
      000000CDH   SFRSYM    DATA     BYTE      TMR2H
      000000A1H   SFRSYM    DATA     BYTE      SPI0CFG
LX51 LINKER/LOCATER V4.66.30.0                                                        01/20/2020  14:03:40  PAGE 61


      00000095H   SFRSYM    DATA     BYTE      TMR3H
      000000D3H   SFRSYM    DATA     BYTE      CRC0CNT
      00000096H   SFRSYM    DATA     BYTE      PCA0POL
      000000CCH   SFRSYM    DATA     BYTE      TMR2L
      000000F8H.7 SFRSYM    DATA     BIT       SPI0CN0_SPIF
      00000094H   SFRSYM    DATA     BYTE      TMR3L
      000000DFH   SFRSYM    DATA     BYTE      ADC0PWR
      000000A8H.7 SFRSYM    DATA     BIT       IE_EA
      000000C8H.5 SFRSYM    DATA     BIT       TMR2CN0_TF2LEN
      000000F8H.6 SFRSYM    DATA     BIT       SPI0CN0_WCOL
      000000F8H.2 SFRSYM    DATA     BIT       SPI0CN0_NSSMD0
      000000D0H.7 SFRSYM    DATA     BIT       PSW_CY
      000000A3H   SFRSYM    DATA     BYTE      SPI0DAT
      000000F8H.3 SFRSYM    DATA     BIT       SPI0CN0_NSSMD1
      000000BDH   SFRSYM    DATA     WORD      ADC0
      000000D0H   SFRSYM    DATA     BYTE      PSW
      000000F7H   SFRSYM    DATA     BYTE      PCA0PWM
      000000B6H   SFRSYM    DATA     BYTE      REVID
      000000B7H   SFRSYM    DATA     BYTE      FLKEY
      000000B3H   SFRSYM    DATA     BYTE      ADC0AC

      010018A3H   BLOCK     CODE     ---       LVL=0
      00000007H   SYMBOL    DATA     BYTE      value
      010018A3H   LINE      CODE     ---       #138
      010018A3H   LINE      CODE     ---       #139
      010018A3H   LINE      CODE     ---       #141
      010018B4H   LINE      CODE     ---       #142
      010018B4H   LINE      CODE     ---       #143
      010018B7H   LINE      CODE     ---       #144
      010018B7H   LINE      CODE     ---       #147
      010018BBH   LINE      CODE     ---       #149
      010018BDH   LINE      CODE     ---       #150
      010018C7H   LINE      CODE     ---       #151
      010018C9H   LINE      CODE     ---       #153
      010018CCH   LINE      CODE     ---       #154
      010018CCH   LINE      CODE     ---       #156
      010018CEH   LINE      CODE     ---       #157
      010018CEH   LINE      CODE     ---       #159
      010018D0H   LINE      CODE     ---       #160
      ---         BLOCKEND  ---      ---       LVL=0

      010018FCH   BLOCK     CODE     ---       LVL=0
      00000007H   SYMBOL    DATA     ---       value
      010018FCH   LINE      CODE     ---       #180
      010018FCH   LINE      CODE     ---       #181
      010018FCH   LINE      CODE     ---       #183
      0100190BH   LINE      CODE     ---       #184
      0100190BH   LINE      CODE     ---       #185
      0100190EH   LINE      CODE     ---       #186
      0100190EH   LINE      CODE     ---       #189
      01001914H   LINE      CODE     ---       #191
      01001916H   LINE      CODE     ---       #192
      01001920H   LINE      CODE     ---       #193
      01001922H   LINE      CODE     ---       #195
      01001924H   LINE      CODE     ---       #196
      ---         BLOCKEND  ---      ---       LVL=0

      01001A96H   BLOCK     CODE     ---       LVL=0
      01001A96H   LINE      CODE     ---       #214
      01001A96H   LINE      CODE     ---       #215
      01001A96H   LINE      CODE     ---       #216
      01001A9CH   LINE      CODE     ---       #217
LX51 LINKER/LOCATER V4.66.30.0                                                        01/20/2020  14:03:40  PAGE 62


      01001A9CH   LINE      CODE     ---       #218
      01001AA5H   LINE      CODE     ---       #219
      01001AA5H   LINE      CODE     ---       #221
      01001AA5H   LINE      CODE     ---       #222
      01001AA7H   LINE      CODE     ---       #223
      01001AA7H   LINE      CODE     ---       #225
      ---         BLOCKEND  ---      ---       LVL=0

      01001488H   BLOCK     CODE     ---       LVL=0
      01001488H   LINE      CODE     ---       #238
      01001493H   LINE      CODE     ---       #240
      01001496H   LINE      CODE     ---       #241
      01001496H   LINE      CODE     ---       #243
      01001498H   LINE      CODE     ---       #264
      010014A9H   LINE      CODE     ---       #265
      010014A9H   LINE      CODE     ---       #266
      010014ADH   LINE      CODE     ---       #267
      010014B7H   LINE      CODE     ---       #268
      010014B7H   LINE      CODE     ---       #271
      010014B7H   LINE      CODE     ---       #274
      010014BAH   LINE      CODE     ---       #275
      010014BAH   LINE      CODE     ---       #277
      010014BCH   LINE      CODE     ---       #280
      010014BEH   LINE      CODE     ---       #282
      010014C4H   LINE      CODE     ---       #283
      010014C4H   LINE      CODE     ---       #287
      010014C6H   LINE      CODE     ---       #288
      010014CBH   LINE      CODE     ---       #289
      010014D5H   LINE      CODE     ---       #290
      010014D5H   LINE      CODE     ---       #291
      010014D5H   LINE      CODE     ---       #292
      ---         BLOCKEND  ---      ---       LVL=0

      ---         MODULE    ---      ---       ADC
      02000083H   PUBLIC    XDATA    ---       adc_result
      00000072H   PUBLIC    DATA     BYTE      adc_flags
      01001B90H   PUBLIC    CONST    ---       adc_mux
      010016BDH   PUBLIC    CODE     ---       ADC_task
      000000A2H   SFRSYM    DATA     BYTE      SPI0CKR
      00000080H   SFRSYM    DATA     BYTE      P0
      000000D0H.2 SFRSYM    DATA     BIT       PSW_OV
      00000090H   SFRSYM    DATA     BYTE      P1
      00000097H   SFRSYM    DATA     BYTE      WDTCN
      000000A0H   SFRSYM    DATA     BYTE      P2
      000000BCH   SFRSYM    DATA     BYTE      ADC0CF
      000000C8H   SFRSYM    DATA     BIT       TMR2CN0_T2XCLK
      000000C0H.7 SFRSYM    DATA     BIT       SMB0CN0_MASTER
      000000F9H   SFRSYM    DATA     WORD      PCA0
      000000E6H   SFRSYM    DATA     BYTE      EIE1
      000000C0H.1 SFRSYM    DATA     BIT       SMB0CN0_ACK
      0000008FH   SFRSYM    DATA     BYTE      PSCTL
      000000E4H   SFRSYM    DATA     BYTE      IT01CF
      000000C0H.6 SFRSYM    DATA     BIT       SMB0CN0_TXMODE
      000000ADH   SFRSYM    DATA     BYTE      DERIVID
      000000A4H   SFRSYM    DATA     BYTE      P0MDOUT
      000000A5H   SFRSYM    DATA     BYTE      P1MDOUT
      000000E8H.5 SFRSYM    DATA     BIT       ADC0CN0_ADINT
      000000CBH   SFRSYM    DATA     BYTE      TMR2RLH
      000000A6H   SFRSYM    DATA     BYTE      P2MDOUT
      000000A8H   SFRSYM    DATA     BYTE      IE
      00000093H   SFRSYM    DATA     BYTE      TMR3RLH
      000000F3H   SFRSYM    DATA     BYTE      EIP1
LX51 LINKER/LOCATER V4.66.30.0                                                        01/20/2020  14:03:40  PAGE 63


      00000098H.2 SFRSYM    DATA     BIT       SCON0_RB8
      000000CAH   SFRSYM    DATA     BYTE      TMR2RLL
      000000FCH   SFRSYM    DATA     BYTE      PCA0CPH0
      00000092H   SFRSYM    DATA     BYTE      TMR3RLL
      000000EAH   SFRSYM    DATA     BYTE      PCA0CPH1
      00000098H.3 SFRSYM    DATA     BIT       SCON0_TB8
      000000F0H   SFRSYM    DATA     BIT       B_B0
      00000082H   SFRSYM    DATA     WORD      DP
      000000ECH   SFRSYM    DATA     BYTE      PCA0CPH2
      000000A0H.1 SFRSYM    DATA     BIT       BTN0
      000000F0H.1 SFRSYM    DATA     BIT       B_B1
      000000C3H   SFRSYM    DATA     WORD      ADC0GT
      00000090H.1 SFRSYM    DATA     BIT       BTN1
      000000F0H.2 SFRSYM    DATA     BIT       B_B2
      000000FBH   SFRSYM    DATA     BYTE      PCA0CPL0
      000000F0H.3 SFRSYM    DATA     BIT       B_B3
      000000D9H   SFRSYM    DATA     BYTE      PCA0MD
      000000DAH   SFRSYM    DATA     BYTE      PCA0CPM0
      000000E9H   SFRSYM    DATA     BYTE      PCA0CPL1
      000000F0H.4 SFRSYM    DATA     BIT       B_B4
      000000DBH   SFRSYM    DATA     BYTE      PCA0CPM1
      000000EBH   SFRSYM    DATA     BYTE      PCA0CPL2
      000000F0H.5 SFRSYM    DATA     BIT       B_B5
      000000DCH   SFRSYM    DATA     BYTE      PCA0CPM2
      000000B8H   SFRSYM    DATA     BYTE      IP
      000000B9H   SFRSYM    DATA     BYTE      ADC0TK
      000000F0H.6 SFRSYM    DATA     BIT       B_B6
      000000C5H   SFRSYM    DATA     WORD      ADC0LT
      00000098H.5 SFRSYM    DATA     BIT       SCON0_MCE
      000000F0H.7 SFRSYM    DATA     BIT       B_B7
      000000E1H   SFRSYM    DATA     BYTE      XBR0
      000000C1H   SFRSYM    DATA     BYTE      SMB0CF
      000000E2H   SFRSYM    DATA     BYTE      XBR1
      000000C0H.5 SFRSYM    DATA     BIT       SMB0CN0_STA
      000000E3H   SFRSYM    DATA     BYTE      XBR2
      000000BBH   SFRSYM    DATA     BYTE      ADC0MX
      000000E0H   SFRSYM    DATA     BIT       ACC_ACC0
      000000D1H   SFRSYM    DATA     BYTE      REF0CN
      0000008EH   SFRSYM    DATA     BYTE      CKCON0
      000000E0H.1 SFRSYM    DATA     BIT       ACC_ACC1
      000000C9H   SFRSYM    DATA     BYTE      REG0CN
      000000DDH   SFRSYM    DATA     BYTE      CRC0IN
      000000C8H.2 SFRSYM    DATA     BIT       TMR2CN0_TR2
      000000E0H.2 SFRSYM    DATA     BIT       ACC_ACC2
      000000E0H.3 SFRSYM    DATA     BIT       ACC_ACC3
      00000081H   SFRSYM    DATA     BYTE      SP
      0000009DH   SFRSYM    DATA     BYTE      CMP0MD
      000000E0H.4 SFRSYM    DATA     BIT       ACC_ACC4
      000000B1H   SFRSYM    DATA     BYTE      LFO0CN
      000000ABH   SFRSYM    DATA     BYTE      CMP1MD
      000000D8H   SFRSYM    DATA     BIT       PCA0CN0_CCF0
      000000E0H.5 SFRSYM    DATA     BIT       ACC_ACC5
      000000D8H.1 SFRSYM    DATA     BIT       PCA0CN0_CCF1
      000000E0H.6 SFRSYM    DATA     BIT       ACC_ACC6
      000000CCH   SFRSYM    DATA     WORD      TMR2
      000000D8H.2 SFRSYM    DATA     BIT       PCA0CN0_CCF2
      000000E0H.7 SFRSYM    DATA     BIT       ACC_ACC7
      00000094H   SFRSYM    DATA     WORD      TMR3
      000000C0H.3 SFRSYM    DATA     BIT       SMB0CN0_ACKRQ
      000000FFH   SFRSYM    DATA     BYTE      VDM0CN
      000000F1H   SFRSYM    DATA     BYTE      P0MDIN
      00000098H.4 SFRSYM    DATA     BIT       SCON0_REN
LX51 LINKER/LOCATER V4.66.30.0                                                        01/20/2020  14:03:40  PAGE 64


      000000ACH   SFRSYM    DATA     BYTE      SMB0TC
      000000F2H   SFRSYM    DATA     BYTE      P1MDIN
      000000C0H.4 SFRSYM    DATA     BIT       SMB0CN0_STO
      000000FEH   SFRSYM    DATA     BYTE      P0MASK
      000000EEH   SFRSYM    DATA     BYTE      P1MASK
      000000D0H.3 SFRSYM    DATA     BIT       PSW_RS0
      000000D8H.7 SFRSYM    DATA     BIT       PCA0CN0_CF
      0000009EH   SFRSYM    DATA     BYTE      PCA0CENT
      000000F8H.4 SFRSYM    DATA     BIT       SPI0CN0_RXOVRN
      000000D0H.4 SFRSYM    DATA     BIT       PSW_RS1
      000000E8H.7 SFRSYM    DATA     BIT       ADC0CN0_ADEN
      00000089H   SFRSYM    DATA     BYTE      TMOD
      00000088H   SFRSYM    DATA     BYTE      TCON
      000000CFH   SFRSYM    DATA     BYTE      CRC0FLIP
      000000D0H   SFRSYM    DATA     BIT       PSW_PARITY
      000000A8H.4 SFRSYM    DATA     BIT       IE_ES0
      0000009FH   SFRSYM    DATA     BYTE      CMP0MX
      000000A8H.1 SFRSYM    DATA     BIT       IE_ET0
      000000AAH   SFRSYM    DATA     BYTE      CMP1MX
      000000A8H.3 SFRSYM    DATA     BIT       IE_ET1
      000000D4H   SFRSYM    DATA     BYTE      P0SKIP
      000000A8H.5 SFRSYM    DATA     BIT       IE_ET2
      000000D5H   SFRSYM    DATA     BYTE      P1SKIP
      000000E8H   SFRSYM    DATA     BYTE      ADC0CN0
      000000A8H   SFRSYM    DATA     BIT       IE_EX0
      000000B2H   SFRSYM    DATA     BYTE      ADC0CN1
      000000D8H.6 SFRSYM    DATA     BIT       PCA0CN0_CR
      000000A8H.2 SFRSYM    DATA     BIT       IE_EX1
      00000098H.7 SFRSYM    DATA     BIT       SCON0_SMODE
      000000B5H   SFRSYM    DATA     BYTE      DEVICEID
      000000A9H   SFRSYM    DATA     BYTE      CLKSEL
      000000F8H   SFRSYM    DATA     BIT       SPI0CN0_SPIEN
      000000F0H   SFRSYM    DATA     BYTE      B
      000000BEH   SFRSYM    DATA     BYTE      ADC0H
      000000D2H   SFRSYM    DATA     BYTE      CRC0AUTO
      000000E8H.6 SFRSYM    DATA     BIT       ADC0CN0_ADBMEN
      000000CAH   SFRSYM    DATA     WORD      TMR2RL
      000000BDH   SFRSYM    DATA     BYTE      ADC0L
      00000092H   SFRSYM    DATA     WORD      TMR3RL
      000000D8H   SFRSYM    DATA     BYTE      PCA0CN0
      000000E0H   SFRSYM    DATA     BYTE      ACC
      000000FBH   SFRSYM    DATA     WORD      PCA0CP0
      000000E9H   SFRSYM    DATA     WORD      PCA0CP1
      000000EBH   SFRSYM    DATA     WORD      PCA0CP2
      000000CEH   SFRSYM    DATA     BYTE      CRC0CN0
      00000090H.4 SFRSYM    DATA     BIT       BSP_LED0
      0000008CH   SFRSYM    DATA     BYTE      TH0
      000000B8H.4 SFRSYM    DATA     BIT       IP_PS0
      0000008DH   SFRSYM    DATA     BYTE      TH1
      000000FAH   SFRSYM    DATA     BYTE      PCA0H
      000000B8H.1 SFRSYM    DATA     BIT       IP_PT0
      000000B8H.3 SFRSYM    DATA     BIT       IP_PT1
      000000C0H.2 SFRSYM    DATA     BIT       SMB0CN0_ARBLOST
      000000B8H.5 SFRSYM    DATA     BIT       IP_PT2
      0000008AH   SFRSYM    DATA     BYTE      TL0
      000000F8H.1 SFRSYM    DATA     BIT       SPI0CN0_TXBMT
      000000D0H.5 SFRSYM    DATA     BIT       PSW_F0
      000000A8H.6 SFRSYM    DATA     BIT       IE_ESPI0
      0000008BH   SFRSYM    DATA     BYTE      TL1
      000000F9H   SFRSYM    DATA     BYTE      PCA0L
      000000C0H   SFRSYM    DATA     BIT       SMB0CN0_SI
      000000D0H.1 SFRSYM    DATA     BIT       PSW_F1
LX51 LINKER/LOCATER V4.66.30.0                                                        01/20/2020  14:03:40  PAGE 65


      00000080H   SFRSYM    DATA     BIT       P0_B0
      000000B8H   SFRSYM    DATA     BIT       IP_PX0
      00000090H   SFRSYM    DATA     BIT       P1_B0
      00000080H.1 SFRSYM    DATA     BIT       P0_B1
      000000B8H.2 SFRSYM    DATA     BIT       IP_PX1
      0000009BH   SFRSYM    DATA     BYTE      CMP0CN0
      00000088H.1 SFRSYM    DATA     BIT       TCON_IE0
      000000A0H   SFRSYM    DATA     BIT       P2_B0
      00000090H.1 SFRSYM    DATA     BIT       P1_B1
      00000080H.2 SFRSYM    DATA     BIT       P0_B2
      000000BFH   SFRSYM    DATA     BYTE      CMP1CN0
      00000088H.3 SFRSYM    DATA     BIT       TCON_IE1
      000000A0H.1 SFRSYM    DATA     BIT       P2_B1
      00000090H.2 SFRSYM    DATA     BIT       P1_B2
      00000080H.3 SFRSYM    DATA     BIT       P0_B3
      000000C0H   SFRSYM    DATA     BYTE      SMB0CN0
      00000090H.3 SFRSYM    DATA     BIT       P1_B3
      00000080H.4 SFRSYM    DATA     BIT       P0_B4
      00000090H.4 SFRSYM    DATA     BIT       P1_B4
      00000080H.5 SFRSYM    DATA     BIT       P0_B5
      00000090H.5 SFRSYM    DATA     BIT       P1_B5
      00000080H.6 SFRSYM    DATA     BIT       P0_B6
      00000090H.6 SFRSYM    DATA     BIT       P1_B6
      00000080H.7 SFRSYM    DATA     BIT       P0_B7
      00000090H.7 SFRSYM    DATA     BIT       P1_B7
      00000080H.2 SFRSYM    DATA     BIT       BSP_BTN0
      00000083H   SFRSYM    DATA     BYTE      DPH
      000000C4H   SFRSYM    DATA     BYTE      ADC0GTH
      000000C8H.7 SFRSYM    DATA     BIT       TMR2CN0_TF2H
      000000C8H.3 SFRSYM    DATA     BIT       TMR2CN0_T2SPLIT
      000000D0H.6 SFRSYM    DATA     BIT       PSW_AC
      000000F8H   SFRSYM    DATA     BYTE      SPI0CN0
      000000C7H   SFRSYM    DATA     BYTE      HFO0CAL
      00000088H.5 SFRSYM    DATA     BIT       TCON_TF0
      00000098H   SFRSYM    DATA     BIT       SCON0_RI
      00000082H   SFRSYM    DATA     BYTE      DPL
      00000088H.7 SFRSYM    DATA     BIT       TCON_TF1
      00000099H   SFRSYM    DATA     BYTE      SBUF0
      00000087H   SFRSYM    DATA     BYTE      PCON0
      000000C3H   SFRSYM    DATA     BYTE      ADC0GTL
      000000C8H.6 SFRSYM    DATA     BIT       TMR2CN0_TF2L
      00000098H.1 SFRSYM    DATA     BIT       SCON0_TI
      000000E8H   SFRSYM    DATA     BIT       ADC0CN0_ADCM0
      000000C6H   SFRSYM    DATA     BYTE      ADC0LTH
      00000088H   SFRSYM    DATA     BIT       TCON_IT0
      000000E8H.1 SFRSYM    DATA     BIT       ADC0CN0_ADCM1
      000000EFH   SFRSYM    DATA     BYTE      RSTSRC
      000000FDH   SFRSYM    DATA     BYTE      P0MAT
      000000DEH   SFRSYM    DATA     BYTE      CRC0DAT
      00000088H.2 SFRSYM    DATA     BIT       TCON_IT1
      000000E8H.2 SFRSYM    DATA     BIT       ADC0CN0_ADCM2
      00000098H   SFRSYM    DATA     BYTE      SCON0
      000000F6H   SFRSYM    DATA     BYTE      PRTDRV
      000000EDH   SFRSYM    DATA     BYTE      P1MAT
      000000E8H.3 SFRSYM    DATA     BIT       ADC0CN0_ADWINT
      000000E8H.4 SFRSYM    DATA     BIT       ADC0CN0_ADBUSY
      000000D6H   SFRSYM    DATA     BYTE      SMB0ADM
      000000C5H   SFRSYM    DATA     BYTE      ADC0LTL
      000000F8H.5 SFRSYM    DATA     BIT       SPI0CN0_MODF
      000000B8H.6 SFRSYM    DATA     BIT       IP_PSPI0
      0000009CH   SFRSYM    DATA     BYTE      PCA0CLR
      000000C8H   SFRSYM    DATA     BYTE      TMR2CN0
LX51 LINKER/LOCATER V4.66.30.0                                                        01/20/2020  14:03:40  PAGE 66


      00000091H   SFRSYM    DATA     BYTE      TMR3CN0
      000000D7H   SFRSYM    DATA     BYTE      SMB0ADR
      00000088H.4 SFRSYM    DATA     BIT       TCON_TR0
      000000C8H.4 SFRSYM    DATA     BIT       TMR2CN0_TF2CEN
      00000088H.6 SFRSYM    DATA     BIT       TCON_TR1
      000000C2H   SFRSYM    DATA     BYTE      SMB0DAT
      000000CDH   SFRSYM    DATA     BYTE      TMR2H
      000000A1H   SFRSYM    DATA     BYTE      SPI0CFG
      00000095H   SFRSYM    DATA     BYTE      TMR3H
      000000D3H   SFRSYM    DATA     BYTE      CRC0CNT
      00000096H   SFRSYM    DATA     BYTE      PCA0POL
      000000CCH   SFRSYM    DATA     BYTE      TMR2L
      000000F8H.7 SFRSYM    DATA     BIT       SPI0CN0_SPIF
      00000094H   SFRSYM    DATA     BYTE      TMR3L
      000000DFH   SFRSYM    DATA     BYTE      ADC0PWR
      000000A8H.7 SFRSYM    DATA     BIT       IE_EA
      000000C8H.5 SFRSYM    DATA     BIT       TMR2CN0_TF2LEN
      000000F8H.6 SFRSYM    DATA     BIT       SPI0CN0_WCOL
      000000F8H.2 SFRSYM    DATA     BIT       SPI0CN0_NSSMD0
      000000D0H.7 SFRSYM    DATA     BIT       PSW_CY
      000000A3H   SFRSYM    DATA     BYTE      SPI0DAT
      000000F8H.3 SFRSYM    DATA     BIT       SPI0CN0_NSSMD1
      000000BDH   SFRSYM    DATA     WORD      ADC0
      000000D0H   SFRSYM    DATA     BYTE      PSW
      000000F7H   SFRSYM    DATA     BYTE      PCA0PWM
      000000B6H   SFRSYM    DATA     BYTE      REVID
      000000B7H   SFRSYM    DATA     BYTE      FLKEY
      000000B3H   SFRSYM    DATA     BYTE      ADC0AC
      000000B2H   SYMBOL    IDATA    BYTE      adc_index

      010016BDH   BLOCK     CODE     ---       LVL=0
      010016BDH   LINE      CODE     ---       #97
      010016BDH   LINE      CODE     ---       #98
      010016BDH   LINE      CODE     ---       #99
      010016C0H   LINE      CODE     ---       #100
      010016C0H   LINE      CODE     ---       #101
      010016D6H   LINE      CODE     ---       #102
      010016D8H   LINE      CODE     ---       #104
      010016E5H   LINE      CODE     ---       #105
      010016E8H   LINE      CODE     ---       #106
      010016EEH   LINE      CODE     ---       #107
      010016EEH   LINE      CODE     ---       #108
      010016F0H   LINE      CODE     ---       #109
      010016F0H   LINE      CODE     ---       #110
      010016F9H   LINE      CODE     ---       #112
      010016FBH   LINE      CODE     ---       #113
      010016FBH   LINE      CODE     ---       #114
      ---         BLOCKEND  ---      ---       LVL=0

      ---         MODULE    ---      ---       BTN
      00000073H   PUBLIC    DATA     BYTE      btn_released_time
      01001874H   PUBLIC    CODE     ---       btn_process
      010019BDH   PUBLIC    CODE     ---       is_btn1_pressed
      000000A2H   SFRSYM    DATA     BYTE      SPI0CKR
      00000080H   SFRSYM    DATA     BYTE      P0
      000000D0H.2 SFRSYM    DATA     BIT       PSW_OV
      00000090H   SFRSYM    DATA     BYTE      P1
      00000097H   SFRSYM    DATA     BYTE      WDTCN
      000000A0H   SFRSYM    DATA     BYTE      P2
      000000BCH   SFRSYM    DATA     BYTE      ADC0CF
      000000C8H   SFRSYM    DATA     BIT       TMR2CN0_T2XCLK
      000000C0H.7 SFRSYM    DATA     BIT       SMB0CN0_MASTER
LX51 LINKER/LOCATER V4.66.30.0                                                        01/20/2020  14:03:40  PAGE 67


      000000F9H   SFRSYM    DATA     WORD      PCA0
      000000E6H   SFRSYM    DATA     BYTE      EIE1
      000000C0H.1 SFRSYM    DATA     BIT       SMB0CN0_ACK
      0000008FH   SFRSYM    DATA     BYTE      PSCTL
      000000E4H   SFRSYM    DATA     BYTE      IT01CF
      000000C0H.6 SFRSYM    DATA     BIT       SMB0CN0_TXMODE
      000000ADH   SFRSYM    DATA     BYTE      DERIVID
      000000A4H   SFRSYM    DATA     BYTE      P0MDOUT
      000000A5H   SFRSYM    DATA     BYTE      P1MDOUT
      000000E8H.5 SFRSYM    DATA     BIT       ADC0CN0_ADINT
      000000CBH   SFRSYM    DATA     BYTE      TMR2RLH
      000000A6H   SFRSYM    DATA     BYTE      P2MDOUT
      000000A8H   SFRSYM    DATA     BYTE      IE
      00000093H   SFRSYM    DATA     BYTE      TMR3RLH
      000000F3H   SFRSYM    DATA     BYTE      EIP1
      00000098H.2 SFRSYM    DATA     BIT       SCON0_RB8
      000000CAH   SFRSYM    DATA     BYTE      TMR2RLL
      000000FCH   SFRSYM    DATA     BYTE      PCA0CPH0
      00000092H   SFRSYM    DATA     BYTE      TMR3RLL
      000000EAH   SFRSYM    DATA     BYTE      PCA0CPH1
      00000098H.3 SFRSYM    DATA     BIT       SCON0_TB8
      000000F0H   SFRSYM    DATA     BIT       B_B0
      00000082H   SFRSYM    DATA     WORD      DP
      000000ECH   SFRSYM    DATA     BYTE      PCA0CPH2
      000000A0H.1 SFRSYM    DATA     BIT       BTN0
      000000F0H.1 SFRSYM    DATA     BIT       B_B1
      000000C3H   SFRSYM    DATA     WORD      ADC0GT
      00000090H.1 SFRSYM    DATA     BIT       BTN1
      000000F0H.2 SFRSYM    DATA     BIT       B_B2
      000000FBH   SFRSYM    DATA     BYTE      PCA0CPL0
      000000F0H.3 SFRSYM    DATA     BIT       B_B3
      000000D9H   SFRSYM    DATA     BYTE      PCA0MD
      000000DAH   SFRSYM    DATA     BYTE      PCA0CPM0
      000000E9H   SFRSYM    DATA     BYTE      PCA0CPL1
      000000F0H.4 SFRSYM    DATA     BIT       B_B4
      000000DBH   SFRSYM    DATA     BYTE      PCA0CPM1
      000000EBH   SFRSYM    DATA     BYTE      PCA0CPL2
      000000F0H.5 SFRSYM    DATA     BIT       B_B5
      000000DCH   SFRSYM    DATA     BYTE      PCA0CPM2
      000000B8H   SFRSYM    DATA     BYTE      IP
      000000B9H   SFRSYM    DATA     BYTE      ADC0TK
      000000F0H.6 SFRSYM    DATA     BIT       B_B6
      000000C5H   SFRSYM    DATA     WORD      ADC0LT
      00000098H.5 SFRSYM    DATA     BIT       SCON0_MCE
      000000F0H.7 SFRSYM    DATA     BIT       B_B7
      000000E1H   SFRSYM    DATA     BYTE      XBR0
      000000C1H   SFRSYM    DATA     BYTE      SMB0CF
      000000E2H   SFRSYM    DATA     BYTE      XBR1
      000000C0H.5 SFRSYM    DATA     BIT       SMB0CN0_STA
      000000E3H   SFRSYM    DATA     BYTE      XBR2
      000000BBH   SFRSYM    DATA     BYTE      ADC0MX
      000000E0H   SFRSYM    DATA     BIT       ACC_ACC0
      000000D1H   SFRSYM    DATA     BYTE      REF0CN
      0000008EH   SFRSYM    DATA     BYTE      CKCON0
      000000E0H.1 SFRSYM    DATA     BIT       ACC_ACC1
      000000C9H   SFRSYM    DATA     BYTE      REG0CN
      000000DDH   SFRSYM    DATA     BYTE      CRC0IN
      000000C8H.2 SFRSYM    DATA     BIT       TMR2CN0_TR2
      000000E0H.2 SFRSYM    DATA     BIT       ACC_ACC2
      000000E0H.3 SFRSYM    DATA     BIT       ACC_ACC3
      00000081H   SFRSYM    DATA     BYTE      SP
      0000009DH   SFRSYM    DATA     BYTE      CMP0MD
LX51 LINKER/LOCATER V4.66.30.0                                                        01/20/2020  14:03:40  PAGE 68


      000000E0H.4 SFRSYM    DATA     BIT       ACC_ACC4
      000000B1H   SFRSYM    DATA     BYTE      LFO0CN
      000000ABH   SFRSYM    DATA     BYTE      CMP1MD
      000000D8H   SFRSYM    DATA     BIT       PCA0CN0_CCF0
      000000E0H.5 SFRSYM    DATA     BIT       ACC_ACC5
      000000D8H.1 SFRSYM    DATA     BIT       PCA0CN0_CCF1
      000000E0H.6 SFRSYM    DATA     BIT       ACC_ACC6
      000000CCH   SFRSYM    DATA     WORD      TMR2
      000000D8H.2 SFRSYM    DATA     BIT       PCA0CN0_CCF2
      000000E0H.7 SFRSYM    DATA     BIT       ACC_ACC7
      00000094H   SFRSYM    DATA     WORD      TMR3
      000000C0H.3 SFRSYM    DATA     BIT       SMB0CN0_ACKRQ
      000000FFH   SFRSYM    DATA     BYTE      VDM0CN
      000000F1H   SFRSYM    DATA     BYTE      P0MDIN
      00000098H.4 SFRSYM    DATA     BIT       SCON0_REN
      000000ACH   SFRSYM    DATA     BYTE      SMB0TC
      000000F2H   SFRSYM    DATA     BYTE      P1MDIN
      000000C0H.4 SFRSYM    DATA     BIT       SMB0CN0_STO
      000000FEH   SFRSYM    DATA     BYTE      P0MASK
      000000EEH   SFRSYM    DATA     BYTE      P1MASK
      000000D0H.3 SFRSYM    DATA     BIT       PSW_RS0
      000000D8H.7 SFRSYM    DATA     BIT       PCA0CN0_CF
      0000009EH   SFRSYM    DATA     BYTE      PCA0CENT
      000000F8H.4 SFRSYM    DATA     BIT       SPI0CN0_RXOVRN
      000000D0H.4 SFRSYM    DATA     BIT       PSW_RS1
      000000E8H.7 SFRSYM    DATA     BIT       ADC0CN0_ADEN
      00000089H   SFRSYM    DATA     BYTE      TMOD
      00000088H   SFRSYM    DATA     BYTE      TCON
      000000CFH   SFRSYM    DATA     BYTE      CRC0FLIP
      000000D0H   SFRSYM    DATA     BIT       PSW_PARITY
      000000A8H.4 SFRSYM    DATA     BIT       IE_ES0
      0000009FH   SFRSYM    DATA     BYTE      CMP0MX
      000000A8H.1 SFRSYM    DATA     BIT       IE_ET0
      000000AAH   SFRSYM    DATA     BYTE      CMP1MX
      000000A8H.3 SFRSYM    DATA     BIT       IE_ET1
      000000D4H   SFRSYM    DATA     BYTE      P0SKIP
      000000A8H.5 SFRSYM    DATA     BIT       IE_ET2
      000000D5H   SFRSYM    DATA     BYTE      P1SKIP
      000000E8H   SFRSYM    DATA     BYTE      ADC0CN0
      000000A8H   SFRSYM    DATA     BIT       IE_EX0
      000000B2H   SFRSYM    DATA     BYTE      ADC0CN1
      000000D8H.6 SFRSYM    DATA     BIT       PCA0CN0_CR
      000000A8H.2 SFRSYM    DATA     BIT       IE_EX1
      00000098H.7 SFRSYM    DATA     BIT       SCON0_SMODE
      000000B5H   SFRSYM    DATA     BYTE      DEVICEID
      000000A9H   SFRSYM    DATA     BYTE      CLKSEL
      000000F8H   SFRSYM    DATA     BIT       SPI0CN0_SPIEN
      000000F0H   SFRSYM    DATA     BYTE      B
      000000BEH   SFRSYM    DATA     BYTE      ADC0H
      000000D2H   SFRSYM    DATA     BYTE      CRC0AUTO
      000000E8H.6 SFRSYM    DATA     BIT       ADC0CN0_ADBMEN
      000000CAH   SFRSYM    DATA     WORD      TMR2RL
      000000BDH   SFRSYM    DATA     BYTE      ADC0L
      00000092H   SFRSYM    DATA     WORD      TMR3RL
      000000D8H   SFRSYM    DATA     BYTE      PCA0CN0
      000000E0H   SFRSYM    DATA     BYTE      ACC
      000000FBH   SFRSYM    DATA     WORD      PCA0CP0
      000000E9H   SFRSYM    DATA     WORD      PCA0CP1
      000000EBH   SFRSYM    DATA     WORD      PCA0CP2
      000000CEH   SFRSYM    DATA     BYTE      CRC0CN0
      00000090H.4 SFRSYM    DATA     BIT       BSP_LED0
      0000008CH   SFRSYM    DATA     BYTE      TH0
LX51 LINKER/LOCATER V4.66.30.0                                                        01/20/2020  14:03:40  PAGE 69


      000000B8H.4 SFRSYM    DATA     BIT       IP_PS0
      0000008DH   SFRSYM    DATA     BYTE      TH1
      000000FAH   SFRSYM    DATA     BYTE      PCA0H
      000000B8H.1 SFRSYM    DATA     BIT       IP_PT0
      000000B8H.3 SFRSYM    DATA     BIT       IP_PT1
      000000C0H.2 SFRSYM    DATA     BIT       SMB0CN0_ARBLOST
      000000B8H.5 SFRSYM    DATA     BIT       IP_PT2
      0000008AH   SFRSYM    DATA     BYTE      TL0
      000000F8H.1 SFRSYM    DATA     BIT       SPI0CN0_TXBMT
      000000D0H.5 SFRSYM    DATA     BIT       PSW_F0
      000000A8H.6 SFRSYM    DATA     BIT       IE_ESPI0
      0000008BH   SFRSYM    DATA     BYTE      TL1
      000000F9H   SFRSYM    DATA     BYTE      PCA0L
      000000C0H   SFRSYM    DATA     BIT       SMB0CN0_SI
      000000D0H.1 SFRSYM    DATA     BIT       PSW_F1
      00000080H   SFRSYM    DATA     BIT       P0_B0
      000000B8H   SFRSYM    DATA     BIT       IP_PX0
      00000090H   SFRSYM    DATA     BIT       P1_B0
      00000080H.1 SFRSYM    DATA     BIT       P0_B1
      000000B8H.2 SFRSYM    DATA     BIT       IP_PX1
      0000009BH   SFRSYM    DATA     BYTE      CMP0CN0
      00000088H.1 SFRSYM    DATA     BIT       TCON_IE0
      000000A0H   SFRSYM    DATA     BIT       P2_B0
      00000090H.1 SFRSYM    DATA     BIT       P1_B1
      00000080H.2 SFRSYM    DATA     BIT       P0_B2
      000000BFH   SFRSYM    DATA     BYTE      CMP1CN0
      00000088H.3 SFRSYM    DATA     BIT       TCON_IE1
      000000A0H.1 SFRSYM    DATA     BIT       P2_B1
      00000090H.2 SFRSYM    DATA     BIT       P1_B2
      00000080H.3 SFRSYM    DATA     BIT       P0_B3
      000000C0H   SFRSYM    DATA     BYTE      SMB0CN0
      00000090H.3 SFRSYM    DATA     BIT       P1_B3
      00000080H.4 SFRSYM    DATA     BIT       P0_B4
      00000090H.4 SFRSYM    DATA     BIT       P1_B4
      00000080H.5 SFRSYM    DATA     BIT       P0_B5
      00000090H.5 SFRSYM    DATA     BIT       P1_B5
      00000080H.6 SFRSYM    DATA     BIT       P0_B6
      00000090H.6 SFRSYM    DATA     BIT       P1_B6
      00000080H.7 SFRSYM    DATA     BIT       P0_B7
      00000090H.7 SFRSYM    DATA     BIT       P1_B7
      00000080H.2 SFRSYM    DATA     BIT       BSP_BTN0
      00000083H   SFRSYM    DATA     BYTE      DPH
      000000C4H   SFRSYM    DATA     BYTE      ADC0GTH
      000000C8H.7 SFRSYM    DATA     BIT       TMR2CN0_TF2H
      000000C8H.3 SFRSYM    DATA     BIT       TMR2CN0_T2SPLIT
      000000D0H.6 SFRSYM    DATA     BIT       PSW_AC
      000000F8H   SFRSYM    DATA     BYTE      SPI0CN0
      000000C7H   SFRSYM    DATA     BYTE      HFO0CAL
      00000088H.5 SFRSYM    DATA     BIT       TCON_TF0
      00000098H   SFRSYM    DATA     BIT       SCON0_RI
      00000082H   SFRSYM    DATA     BYTE      DPL
      00000088H.7 SFRSYM    DATA     BIT       TCON_TF1
      00000099H   SFRSYM    DATA     BYTE      SBUF0
      00000087H   SFRSYM    DATA     BYTE      PCON0
      000000C3H   SFRSYM    DATA     BYTE      ADC0GTL
      000000C8H.6 SFRSYM    DATA     BIT       TMR2CN0_TF2L
      00000098H.1 SFRSYM    DATA     BIT       SCON0_TI
      000000E8H   SFRSYM    DATA     BIT       ADC0CN0_ADCM0
      000000C6H   SFRSYM    DATA     BYTE      ADC0LTH
      00000088H   SFRSYM    DATA     BIT       TCON_IT0
      000000E8H.1 SFRSYM    DATA     BIT       ADC0CN0_ADCM1
      000000EFH   SFRSYM    DATA     BYTE      RSTSRC
LX51 LINKER/LOCATER V4.66.30.0                                                        01/20/2020  14:03:40  PAGE 70


      000000FDH   SFRSYM    DATA     BYTE      P0MAT
      000000DEH   SFRSYM    DATA     BYTE      CRC0DAT
      00000088H.2 SFRSYM    DATA     BIT       TCON_IT1
      000000E8H.2 SFRSYM    DATA     BIT       ADC0CN0_ADCM2
      00000098H   SFRSYM    DATA     BYTE      SCON0
      000000F6H   SFRSYM    DATA     BYTE      PRTDRV
      000000EDH   SFRSYM    DATA     BYTE      P1MAT
      000000E8H.3 SFRSYM    DATA     BIT       ADC0CN0_ADWINT
      000000E8H.4 SFRSYM    DATA     BIT       ADC0CN0_ADBUSY
      000000D6H   SFRSYM    DATA     BYTE      SMB0ADM
      000000C5H   SFRSYM    DATA     BYTE      ADC0LTL
      000000F8H.5 SFRSYM    DATA     BIT       SPI0CN0_MODF
      000000B8H.6 SFRSYM    DATA     BIT       IP_PSPI0
      0000009CH   SFRSYM    DATA     BYTE      PCA0CLR
      000000C8H   SFRSYM    DATA     BYTE      TMR2CN0
      00000091H   SFRSYM    DATA     BYTE      TMR3CN0
      000000D7H   SFRSYM    DATA     BYTE      SMB0ADR
      00000088H.4 SFRSYM    DATA     BIT       TCON_TR0
      000000C8H.4 SFRSYM    DATA     BIT       TMR2CN0_TF2CEN
      00000088H.6 SFRSYM    DATA     BIT       TCON_TR1
      000000C2H   SFRSYM    DATA     BYTE      SMB0DAT
      000000CDH   SFRSYM    DATA     BYTE      TMR2H
      000000A1H   SFRSYM    DATA     BYTE      SPI0CFG
      00000095H   SFRSYM    DATA     BYTE      TMR3H
      000000D3H   SFRSYM    DATA     BYTE      CRC0CNT
      00000096H   SFRSYM    DATA     BYTE      PCA0POL
      000000CCH   SFRSYM    DATA     BYTE      TMR2L
      000000F8H.7 SFRSYM    DATA     BIT       SPI0CN0_SPIF
      00000094H   SFRSYM    DATA     BYTE      TMR3L
      000000DFH   SFRSYM    DATA     BYTE      ADC0PWR
      000000A8H.7 SFRSYM    DATA     BIT       IE_EA
      000000C8H.5 SFRSYM    DATA     BIT       TMR2CN0_TF2LEN
      000000F8H.6 SFRSYM    DATA     BIT       SPI0CN0_WCOL
      000000F8H.2 SFRSYM    DATA     BIT       SPI0CN0_NSSMD0
      000000D0H.7 SFRSYM    DATA     BIT       PSW_CY
      000000A3H   SFRSYM    DATA     BYTE      SPI0DAT
      000000F8H.3 SFRSYM    DATA     BIT       SPI0CN0_NSSMD1
      000000BDH   SFRSYM    DATA     WORD      ADC0
      000000D0H   SFRSYM    DATA     BYTE      PSW
      000000F7H   SFRSYM    DATA     BYTE      PCA0PWM
      000000B6H   SFRSYM    DATA     BYTE      REVID
      000000B7H   SFRSYM    DATA     BYTE      FLKEY
      000000B3H   SFRSYM    DATA     BYTE      ADC0AC
      0200008DH   SYMBOL    XDATA    BYTE      api_btn1_state
      0200008EH   SYMBOL    XDATA    BYTE      btn1_state

      010019BDH   BLOCK     CODE     ---       LVL=0
      010019BDH   LINE      CODE     ---       #54
      010019BDH   LINE      CODE     ---       #55
      010019BDH   LINE      CODE     ---       #56
      010019C0H   LINE      CODE     ---       #58
      010019CEH   LINE      CODE     ---       #59
      010019CEH   LINE      CODE     ---       #60
      010019D0H   LINE      CODE     ---       #61
      010019D3H   LINE      CODE     ---       #62
      010019D3H   LINE      CODE     ---       #63
      010019DBH   LINE      CODE     ---       #64
      010019DDH   LINE      CODE     ---       #65
      ---         BLOCKEND  ---      ---       LVL=0

      01001874H   BLOCK     CODE     ---       LVL=0
      01001874H   BLOCK     CODE     NEAR LAB  LVL=1
LX51 LINKER/LOCATER V4.66.30.0                                                        01/20/2020  14:03:40  PAGE 71


      00000007H   SYMBOL    DATA     BYTE      curtime
      ---         BLOCKEND  ---      ---       LVL=1
      01001874H   LINE      CODE     ---       #77
      01001874H   LINE      CODE     ---       #78
      01001874H   LINE      CODE     ---       #81
      01001877H   LINE      CODE     ---       #82
      01001877H   LINE      CODE     ---       #83
      0100187DH   LINE      CODE     ---       #84
      0100187EH   LINE      CODE     ---       #85
      01001884H   LINE      CODE     ---       #86
      01001884H   LINE      CODE     ---       #87
      01001887H   LINE      CODE     ---       #90
      0100188EH   LINE      CODE     ---       #91
      0100188EH   LINE      CODE     ---       #92
      01001891H   LINE      CODE     ---       #93
      01001893H   LINE      CODE     ---       #94
      01001894H   LINE      CODE     ---       #96
      01001894H   LINE      CODE     ---       #97
      0100189DH   LINE      CODE     ---       #98
      0100189DH   LINE      CODE     ---       #100
      010018A2H   LINE      CODE     ---       #101
      010018A2H   LINE      CODE     ---       #102
      010018A2H   LINE      CODE     ---       #103
      010018A2H   LINE      CODE     ---       #104
      ---         BLOCKEND  ---      ---       LVL=0

      ---         MODULE    ---      ---       COMP
      000000A2H   SFRSYM    DATA     BYTE      SPI0CKR
      00000080H   SFRSYM    DATA     BYTE      P0
      000000D0H.2 SFRSYM    DATA     BIT       PSW_OV
      00000090H   SFRSYM    DATA     BYTE      P1
      00000097H   SFRSYM    DATA     BYTE      WDTCN
      000000A0H   SFRSYM    DATA     BYTE      P2
      000000BCH   SFRSYM    DATA     BYTE      ADC0CF
      000000C8H   SFRSYM    DATA     BIT       TMR2CN0_T2XCLK
      000000C0H.7 SFRSYM    DATA     BIT       SMB0CN0_MASTER
      000000F9H   SFRSYM    DATA     WORD      PCA0
      000000E6H   SFRSYM    DATA     BYTE      EIE1
      000000C0H.1 SFRSYM    DATA     BIT       SMB0CN0_ACK
      0000008FH   SFRSYM    DATA     BYTE      PSCTL
      000000E4H   SFRSYM    DATA     BYTE      IT01CF
      000000C0H.6 SFRSYM    DATA     BIT       SMB0CN0_TXMODE
      000000ADH   SFRSYM    DATA     BYTE      DERIVID
      000000A4H   SFRSYM    DATA     BYTE      P0MDOUT
      000000A5H   SFRSYM    DATA     BYTE      P1MDOUT
      000000E8H.5 SFRSYM    DATA     BIT       ADC0CN0_ADINT
      000000CBH   SFRSYM    DATA     BYTE      TMR2RLH
      000000A6H   SFRSYM    DATA     BYTE      P2MDOUT
      000000A8H   SFRSYM    DATA     BYTE      IE
      00000093H   SFRSYM    DATA     BYTE      TMR3RLH
      000000F3H   SFRSYM    DATA     BYTE      EIP1
      00000098H.2 SFRSYM    DATA     BIT       SCON0_RB8
      000000CAH   SFRSYM    DATA     BYTE      TMR2RLL
      000000FCH   SFRSYM    DATA     BYTE      PCA0CPH0
      00000092H   SFRSYM    DATA     BYTE      TMR3RLL
      000000EAH   SFRSYM    DATA     BYTE      PCA0CPH1
      00000098H.3 SFRSYM    DATA     BIT       SCON0_TB8
      000000F0H   SFRSYM    DATA     BIT       B_B0
      00000082H   SFRSYM    DATA     WORD      DP
      000000ECH   SFRSYM    DATA     BYTE      PCA0CPH2
      000000A0H.1 SFRSYM    DATA     BIT       BTN0
      000000F0H.1 SFRSYM    DATA     BIT       B_B1
LX51 LINKER/LOCATER V4.66.30.0                                                        01/20/2020  14:03:40  PAGE 72


      000000C3H   SFRSYM    DATA     WORD      ADC0GT
      00000090H.1 SFRSYM    DATA     BIT       BTN1
      000000F0H.2 SFRSYM    DATA     BIT       B_B2
      000000FBH   SFRSYM    DATA     BYTE      PCA0CPL0
      000000F0H.3 SFRSYM    DATA     BIT       B_B3
      000000D9H   SFRSYM    DATA     BYTE      PCA0MD
      000000DAH   SFRSYM    DATA     BYTE      PCA0CPM0
      000000E9H   SFRSYM    DATA     BYTE      PCA0CPL1
      000000F0H.4 SFRSYM    DATA     BIT       B_B4
      000000DBH   SFRSYM    DATA     BYTE      PCA0CPM1
      000000EBH   SFRSYM    DATA     BYTE      PCA0CPL2
      000000F0H.5 SFRSYM    DATA     BIT       B_B5
      000000DCH   SFRSYM    DATA     BYTE      PCA0CPM2
      000000B8H   SFRSYM    DATA     BYTE      IP
      000000B9H   SFRSYM    DATA     BYTE      ADC0TK
      000000F0H.6 SFRSYM    DATA     BIT       B_B6
      000000C5H   SFRSYM    DATA     WORD      ADC0LT
      00000098H.5 SFRSYM    DATA     BIT       SCON0_MCE
      000000F0H.7 SFRSYM    DATA     BIT       B_B7
      000000E1H   SFRSYM    DATA     BYTE      XBR0
      000000C1H   SFRSYM    DATA     BYTE      SMB0CF
      000000E2H   SFRSYM    DATA     BYTE      XBR1
      000000C0H.5 SFRSYM    DATA     BIT       SMB0CN0_STA
      000000E3H   SFRSYM    DATA     BYTE      XBR2
      000000BBH   SFRSYM    DATA     BYTE      ADC0MX
      000000E0H   SFRSYM    DATA     BIT       ACC_ACC0
      000000D1H   SFRSYM    DATA     BYTE      REF0CN
      0000008EH   SFRSYM    DATA     BYTE      CKCON0
      000000E0H.1 SFRSYM    DATA     BIT       ACC_ACC1
      000000C9H   SFRSYM    DATA     BYTE      REG0CN
      000000DDH   SFRSYM    DATA     BYTE      CRC0IN
      000000C8H.2 SFRSYM    DATA     BIT       TMR2CN0_TR2
      000000E0H.2 SFRSYM    DATA     BIT       ACC_ACC2
      000000E0H.3 SFRSYM    DATA     BIT       ACC_ACC3
      00000081H   SFRSYM    DATA     BYTE      SP
      0000009DH   SFRSYM    DATA     BYTE      CMP0MD
      000000E0H.4 SFRSYM    DATA     BIT       ACC_ACC4
      000000B1H   SFRSYM    DATA     BYTE      LFO0CN
      000000ABH   SFRSYM    DATA     BYTE      CMP1MD
      000000D8H   SFRSYM    DATA     BIT       PCA0CN0_CCF0
      000000E0H.5 SFRSYM    DATA     BIT       ACC_ACC5
      000000D8H.1 SFRSYM    DATA     BIT       PCA0CN0_CCF1
      000000E0H.6 SFRSYM    DATA     BIT       ACC_ACC6
      000000CCH   SFRSYM    DATA     WORD      TMR2
      000000D8H.2 SFRSYM    DATA     BIT       PCA0CN0_CCF2
      000000E0H.7 SFRSYM    DATA     BIT       ACC_ACC7
      00000094H   SFRSYM    DATA     WORD      TMR3
      000000C0H.3 SFRSYM    DATA     BIT       SMB0CN0_ACKRQ
      000000FFH   SFRSYM    DATA     BYTE      VDM0CN
      000000F1H   SFRSYM    DATA     BYTE      P0MDIN
      00000098H.4 SFRSYM    DATA     BIT       SCON0_REN
      000000ACH   SFRSYM    DATA     BYTE      SMB0TC
      000000F2H   SFRSYM    DATA     BYTE      P1MDIN
      000000C0H.4 SFRSYM    DATA     BIT       SMB0CN0_STO
      000000FEH   SFRSYM    DATA     BYTE      P0MASK
      000000EEH   SFRSYM    DATA     BYTE      P1MASK
      000000D0H.3 SFRSYM    DATA     BIT       PSW_RS0
      000000D8H.7 SFRSYM    DATA     BIT       PCA0CN0_CF
      0000009EH   SFRSYM    DATA     BYTE      PCA0CENT
      000000F8H.4 SFRSYM    DATA     BIT       SPI0CN0_RXOVRN
      000000D0H.4 SFRSYM    DATA     BIT       PSW_RS1
      000000E8H.7 SFRSYM    DATA     BIT       ADC0CN0_ADEN
LX51 LINKER/LOCATER V4.66.30.0                                                        01/20/2020  14:03:40  PAGE 73


      00000089H   SFRSYM    DATA     BYTE      TMOD
      00000088H   SFRSYM    DATA     BYTE      TCON
      000000CFH   SFRSYM    DATA     BYTE      CRC0FLIP
      000000D0H   SFRSYM    DATA     BIT       PSW_PARITY
      000000A8H.4 SFRSYM    DATA     BIT       IE_ES0
      0000009FH   SFRSYM    DATA     BYTE      CMP0MX
      000000A8H.1 SFRSYM    DATA     BIT       IE_ET0
      000000AAH   SFRSYM    DATA     BYTE      CMP1MX
      000000A8H.3 SFRSYM    DATA     BIT       IE_ET1
      000000D4H   SFRSYM    DATA     BYTE      P0SKIP
      000000A8H.5 SFRSYM    DATA     BIT       IE_ET2
      000000D5H   SFRSYM    DATA     BYTE      P1SKIP
      000000E8H   SFRSYM    DATA     BYTE      ADC0CN0
      000000A8H   SFRSYM    DATA     BIT       IE_EX0
      000000B2H   SFRSYM    DATA     BYTE      ADC0CN1
      000000D8H.6 SFRSYM    DATA     BIT       PCA0CN0_CR
      000000A8H.2 SFRSYM    DATA     BIT       IE_EX1
      00000098H.7 SFRSYM    DATA     BIT       SCON0_SMODE
      000000B5H   SFRSYM    DATA     BYTE      DEVICEID
      000000A9H   SFRSYM    DATA     BYTE      CLKSEL
      000000F8H   SFRSYM    DATA     BIT       SPI0CN0_SPIEN
      000000F0H   SFRSYM    DATA     BYTE      B
      000000BEH   SFRSYM    DATA     BYTE      ADC0H
      000000D2H   SFRSYM    DATA     BYTE      CRC0AUTO
      000000E8H.6 SFRSYM    DATA     BIT       ADC0CN0_ADBMEN
      000000CAH   SFRSYM    DATA     WORD      TMR2RL
      000000BDH   SFRSYM    DATA     BYTE      ADC0L
      00000092H   SFRSYM    DATA     WORD      TMR3RL
      000000D8H   SFRSYM    DATA     BYTE      PCA0CN0
      000000E0H   SFRSYM    DATA     BYTE      ACC
      000000FBH   SFRSYM    DATA     WORD      PCA0CP0
      000000E9H   SFRSYM    DATA     WORD      PCA0CP1
      000000EBH   SFRSYM    DATA     WORD      PCA0CP2
      000000CEH   SFRSYM    DATA     BYTE      CRC0CN0
      00000090H.4 SFRSYM    DATA     BIT       BSP_LED0
      0000008CH   SFRSYM    DATA     BYTE      TH0
      000000B8H.4 SFRSYM    DATA     BIT       IP_PS0
      0000008DH   SFRSYM    DATA     BYTE      TH1
      000000FAH   SFRSYM    DATA     BYTE      PCA0H
      000000B8H.1 SFRSYM    DATA     BIT       IP_PT0
      000000B8H.3 SFRSYM    DATA     BIT       IP_PT1
      000000C0H.2 SFRSYM    DATA     BIT       SMB0CN0_ARBLOST
      000000B8H.5 SFRSYM    DATA     BIT       IP_PT2
      0000008AH   SFRSYM    DATA     BYTE      TL0
      000000F8H.1 SFRSYM    DATA     BIT       SPI0CN0_TXBMT
      000000D0H.5 SFRSYM    DATA     BIT       PSW_F0
      000000A8H.6 SFRSYM    DATA     BIT       IE_ESPI0
      0000008BH   SFRSYM    DATA     BYTE      TL1
      000000F9H   SFRSYM    DATA     BYTE      PCA0L
      000000C0H   SFRSYM    DATA     BIT       SMB0CN0_SI
      000000D0H.1 SFRSYM    DATA     BIT       PSW_F1
      00000080H   SFRSYM    DATA     BIT       P0_B0
      000000B8H   SFRSYM    DATA     BIT       IP_PX0
      00000090H   SFRSYM    DATA     BIT       P1_B0
      00000080H.1 SFRSYM    DATA     BIT       P0_B1
      000000B8H.2 SFRSYM    DATA     BIT       IP_PX1
      0000009BH   SFRSYM    DATA     BYTE      CMP0CN0
      00000088H.1 SFRSYM    DATA     BIT       TCON_IE0
      000000A0H   SFRSYM    DATA     BIT       P2_B0
      00000090H.1 SFRSYM    DATA     BIT       P1_B1
      00000080H.2 SFRSYM    DATA     BIT       P0_B2
      000000BFH   SFRSYM    DATA     BYTE      CMP1CN0
LX51 LINKER/LOCATER V4.66.30.0                                                        01/20/2020  14:03:40  PAGE 74


      00000088H.3 SFRSYM    DATA     BIT       TCON_IE1
      000000A0H.1 SFRSYM    DATA     BIT       P2_B1
      00000090H.2 SFRSYM    DATA     BIT       P1_B2
      00000080H.3 SFRSYM    DATA     BIT       P0_B3
      000000C0H   SFRSYM    DATA     BYTE      SMB0CN0
      00000090H.3 SFRSYM    DATA     BIT       P1_B3
      00000080H.4 SFRSYM    DATA     BIT       P0_B4
      00000090H.4 SFRSYM    DATA     BIT       P1_B4
      00000080H.5 SFRSYM    DATA     BIT       P0_B5
      00000090H.5 SFRSYM    DATA     BIT       P1_B5
      00000080H.6 SFRSYM    DATA     BIT       P0_B6
      00000090H.6 SFRSYM    DATA     BIT       P1_B6
      00000080H.7 SFRSYM    DATA     BIT       P0_B7
      00000090H.7 SFRSYM    DATA     BIT       P1_B7
      00000080H.2 SFRSYM    DATA     BIT       BSP_BTN0
      00000083H   SFRSYM    DATA     BYTE      DPH
      000000C4H   SFRSYM    DATA     BYTE      ADC0GTH
      000000C8H.7 SFRSYM    DATA     BIT       TMR2CN0_TF2H
      000000C8H.3 SFRSYM    DATA     BIT       TMR2CN0_T2SPLIT
      000000D0H.6 SFRSYM    DATA     BIT       PSW_AC
      000000F8H   SFRSYM    DATA     BYTE      SPI0CN0
      000000C7H   SFRSYM    DATA     BYTE      HFO0CAL
      00000088H.5 SFRSYM    DATA     BIT       TCON_TF0
      00000098H   SFRSYM    DATA     BIT       SCON0_RI
      00000082H   SFRSYM    DATA     BYTE      DPL
      00000088H.7 SFRSYM    DATA     BIT       TCON_TF1
      00000099H   SFRSYM    DATA     BYTE      SBUF0
      00000087H   SFRSYM    DATA     BYTE      PCON0
      000000C3H   SFRSYM    DATA     BYTE      ADC0GTL
      000000C8H.6 SFRSYM    DATA     BIT       TMR2CN0_TF2L
      00000098H.1 SFRSYM    DATA     BIT       SCON0_TI
      000000E8H   SFRSYM    DATA     BIT       ADC0CN0_ADCM0
      000000C6H   SFRSYM    DATA     BYTE      ADC0LTH
      00000088H   SFRSYM    DATA     BIT       TCON_IT0
      000000E8H.1 SFRSYM    DATA     BIT       ADC0CN0_ADCM1
      000000EFH   SFRSYM    DATA     BYTE      RSTSRC
      000000FDH   SFRSYM    DATA     BYTE      P0MAT
      000000DEH   SFRSYM    DATA     BYTE      CRC0DAT
      00000088H.2 SFRSYM    DATA     BIT       TCON_IT1
      000000E8H.2 SFRSYM    DATA     BIT       ADC0CN0_ADCM2
      00000098H   SFRSYM    DATA     BYTE      SCON0
      000000F6H   SFRSYM    DATA     BYTE      PRTDRV
      000000EDH   SFRSYM    DATA     BYTE      P1MAT
      000000E8H.3 SFRSYM    DATA     BIT       ADC0CN0_ADWINT
      000000E8H.4 SFRSYM    DATA     BIT       ADC0CN0_ADBUSY
      000000D6H   SFRSYM    DATA     BYTE      SMB0ADM
      000000C5H   SFRSYM    DATA     BYTE      ADC0LTL
      000000F8H.5 SFRSYM    DATA     BIT       SPI0CN0_MODF
      000000B8H.6 SFRSYM    DATA     BIT       IP_PSPI0
      0000009CH   SFRSYM    DATA     BYTE      PCA0CLR
      000000C8H   SFRSYM    DATA     BYTE      TMR2CN0
      00000091H   SFRSYM    DATA     BYTE      TMR3CN0
      000000D7H   SFRSYM    DATA     BYTE      SMB0ADR
      00000088H.4 SFRSYM    DATA     BIT       TCON_TR0
      000000C8H.4 SFRSYM    DATA     BIT       TMR2CN0_TF2CEN
      00000088H.6 SFRSYM    DATA     BIT       TCON_TR1
      000000C2H   SFRSYM    DATA     BYTE      SMB0DAT
      000000CDH   SFRSYM    DATA     BYTE      TMR2H
      000000A1H   SFRSYM    DATA     BYTE      SPI0CFG
      00000095H   SFRSYM    DATA     BYTE      TMR3H
      000000D3H   SFRSYM    DATA     BYTE      CRC0CNT
      00000096H   SFRSYM    DATA     BYTE      PCA0POL
LX51 LINKER/LOCATER V4.66.30.0                                                        01/20/2020  14:03:40  PAGE 75


      000000CCH   SFRSYM    DATA     BYTE      TMR2L
      000000F8H.7 SFRSYM    DATA     BIT       SPI0CN0_SPIF
      00000094H   SFRSYM    DATA     BYTE      TMR3L
      000000DFH   SFRSYM    DATA     BYTE      ADC0PWR
      000000A8H.7 SFRSYM    DATA     BIT       IE_EA
      000000C8H.5 SFRSYM    DATA     BIT       TMR2CN0_TF2LEN
      000000F8H.6 SFRSYM    DATA     BIT       SPI0CN0_WCOL
      000000F8H.2 SFRSYM    DATA     BIT       SPI0CN0_NSSMD0
      000000D0H.7 SFRSYM    DATA     BIT       PSW_CY
      000000A3H   SFRSYM    DATA     BYTE      SPI0DAT
      000000F8H.3 SFRSYM    DATA     BIT       SPI0CN0_NSSMD1
      000000BDH   SFRSYM    DATA     WORD      ADC0
      000000D0H   SFRSYM    DATA     BYTE      PSW
      000000F7H   SFRSYM    DATA     BYTE      PCA0PWM
      000000B6H   SFRSYM    DATA     BYTE      REVID
      000000B7H   SFRSYM    DATA     BYTE      FLKEY
      000000B3H   SFRSYM    DATA     BYTE      ADC0AC

      ---         MODULE    ---      ---       MOTOR
      0000003EH   PUBLIC    DATA     ---       SLR_minimum_duty
      00000021H.2 PUBLIC    BIT      BIT       SLW_pwm_updated
      00000021H.1 PUBLIC    BIT      BIT       SLW_rpm_updated
      02000056H   PUBLIC    XDATA    BYTE      zc_total_count
      0000003AH   PUBLIC    DATA     ---       zc_time
      02000052H   PUBLIC    XDATA    WORD      SLR_motor_current
      00000039H   PUBLIC    DATA     BYTE      zc_count
      0200004DH   PUBLIC    XDATA    WORD      SLW_motor_max_rpm
      02000049H   PUBLIC    XDATA    DWORD     zc_total_per_mech_rotation
      02000048H   PUBLIC    XDATA    BYTE      SLW_current_limit
      00000021H.0 PUBLIC    BIT      BIT       speed_updated
      02000046H   PUBLIC    XDATA    WORD      SLR_motor_voltage
      02000045H   PUBLIC    XDATA    BYTE      num_poles
      00000020H.6 PUBLIC    BIT      BIT       SLR_motor_stalled
      02000044H   PUBLIC    XDATA    BYTE      SLW_oc_debounce
      00000037H   PUBLIC    DATA     WORD      SLR_pwm_duty
      00000033H   PUBLIC    DATA     ---       time_per_rotate
      02000042H   PUBLIC    XDATA    WORD      error_event_time
      02000040H   PUBLIC    XDATA    WORD      SLW_target_pwm_duty
      00000020H.5 PUBLIC    BIT      BIT       SLW_user_direction
      00000020H.4 PUBLIC    BIT      BIT       pid_flag
      00000032H   PUBLIC    DATA     BYTE      commutation_index
      00000031H   PUBLIC    DATA     BYTE      open_phase
      0000002DH   PUBLIC    DATA     ---       zc_commutate_time
      0200003FH   PUBLIC    XDATA    BYTE      pre_port1
      0200003DH   PUBLIC    XDATA    WORD      SLR_motor_current_rpm
      00000020H.3 PUBLIC    BIT      BIT       last_motor_stalled
      0000002BH   PUBLIC    DATA     WORD      SLW_target_rpm
      00000020H.2 PUBLIC    BIT      BIT       handle_motor_error
      00000027H   PUBLIC    DATA     ---       prev_zc_time
      000000B3H   PUBLIC    IDATA    BYTE      SLR_motor_state
      00000025H   PUBLIC    DATA     WORD      SLR_minimum_rpm
      02000034H   PUBLIC    XDATA    BYTE      pre_p1skip
      02000033H   PUBLIC    XDATA    BYTE      pre_p0skip
      02000032H   PUBLIC    XDATA    BYTE      pid_calc_interval
      01001B84H   PUBLIC    CONST    ---       active_gpio
      01001B7EH   PUBLIC    CONST    ---       freeterminal
      01001B72H   PUBLIC    CONST    ---       skipPattern
      01001B66H   PUBLIC    CONST    ---       compMux
      01001B60H   PUBLIC    CONST    ---       start_delay
      01001A48H   PUBLIC    CODE     ---       _SL_MTR_change_num_poles
      01001AB9H   PUBLIC    CODE     ---       SL_MTR_time
      01001B2DH   PUBLIC    CODE     ---       MTR_calculate_pid
LX51 LINKER/LOCATER V4.66.30.0                                                        01/20/2020  14:03:40  PAGE 76


      01001738H   PUBLIC    CODE     ---       MTR_save_zero_crossing_time
      0100156FH   PUBLIC    CODE     ---       MTR_calculate_motor_rpm
      01000673H   PUBLIC    CODE     ---       MTR_do_quickstart
      010004E2H   PUBLIC    CODE     ---       MTR_start_spinning
      010015BFH   PUBLIC    CODE     ---       MTR_commutate
      01001527H   PUBLIC    CODE     ---       MTR_pre_commutation
      0100136EH   PUBLIC    CODE     ---       MTR_check_motor_spinning
      0100163CH   PUBLIC    CODE     ---       SL_MTR_stop_motor
      01001925H   PUBLIC    CODE     ---       SL_MTR_start_motor
      01001770H   PUBLIC    CODE     ---       SL_MTR_motor
      010018D1H   PUBLIC    CODE     ---       SL_MTR_init
      000000A2H   SFRSYM    DATA     BYTE      SPI0CKR
      00000080H   SFRSYM    DATA     BYTE      P0
      000000D0H.2 SFRSYM    DATA     BIT       PSW_OV
      00000090H   SFRSYM    DATA     BYTE      P1
      00000097H   SFRSYM    DATA     BYTE      WDTCN
      000000A0H   SFRSYM    DATA     BYTE      P2
      000000BCH   SFRSYM    DATA     BYTE      ADC0CF
      000000C8H   SFRSYM    DATA     BIT       TMR2CN0_T2XCLK
      000000C0H.7 SFRSYM    DATA     BIT       SMB0CN0_MASTER
      000000F9H   SFRSYM    DATA     WORD      PCA0
      000000E6H   SFRSYM    DATA     BYTE      EIE1
      000000C0H.1 SFRSYM    DATA     BIT       SMB0CN0_ACK
      0000008FH   SFRSYM    DATA     BYTE      PSCTL
      000000E4H   SFRSYM    DATA     BYTE      IT01CF
      000000C0H.6 SFRSYM    DATA     BIT       SMB0CN0_TXMODE
      000000ADH   SFRSYM    DATA     BYTE      DERIVID
      000000A4H   SFRSYM    DATA     BYTE      P0MDOUT
      000000A5H   SFRSYM    DATA     BYTE      P1MDOUT
      000000E8H.5 SFRSYM    DATA     BIT       ADC0CN0_ADINT
      000000CBH   SFRSYM    DATA     BYTE      TMR2RLH
      000000A6H   SFRSYM    DATA     BYTE      P2MDOUT
      000000A8H   SFRSYM    DATA     BYTE      IE
      00000093H   SFRSYM    DATA     BYTE      TMR3RLH
      000000F3H   SFRSYM    DATA     BYTE      EIP1
      00000098H.2 SFRSYM    DATA     BIT       SCON0_RB8
      000000CAH   SFRSYM    DATA     BYTE      TMR2RLL
      000000FCH   SFRSYM    DATA     BYTE      PCA0CPH0
      00000092H   SFRSYM    DATA     BYTE      TMR3RLL
      000000EAH   SFRSYM    DATA     BYTE      PCA0CPH1
      00000098H.3 SFRSYM    DATA     BIT       SCON0_TB8
      000000F0H   SFRSYM    DATA     BIT       B_B0
      00000082H   SFRSYM    DATA     WORD      DP
      000000ECH   SFRSYM    DATA     BYTE      PCA0CPH2
      000000A0H.1 SFRSYM    DATA     BIT       BTN0
      000000F0H.1 SFRSYM    DATA     BIT       B_B1
      000000C3H   SFRSYM    DATA     WORD      ADC0GT
      00000090H.1 SFRSYM    DATA     BIT       BTN1
      000000F0H.2 SFRSYM    DATA     BIT       B_B2
      000000FBH   SFRSYM    DATA     BYTE      PCA0CPL0
      000000F0H.3 SFRSYM    DATA     BIT       B_B3
      000000D9H   SFRSYM    DATA     BYTE      PCA0MD
      000000DAH   SFRSYM    DATA     BYTE      PCA0CPM0
      000000E9H   SFRSYM    DATA     BYTE      PCA0CPL1
      000000F0H.4 SFRSYM    DATA     BIT       B_B4
      000000DBH   SFRSYM    DATA     BYTE      PCA0CPM1
      000000EBH   SFRSYM    DATA     BYTE      PCA0CPL2
      000000F0H.5 SFRSYM    DATA     BIT       B_B5
      000000DCH   SFRSYM    DATA     BYTE      PCA0CPM2
      000000B8H   SFRSYM    DATA     BYTE      IP
      000000B9H   SFRSYM    DATA     BYTE      ADC0TK
      000000F0H.6 SFRSYM    DATA     BIT       B_B6
LX51 LINKER/LOCATER V4.66.30.0                                                        01/20/2020  14:03:40  PAGE 77


      000000C5H   SFRSYM    DATA     WORD      ADC0LT
      00000098H.5 SFRSYM    DATA     BIT       SCON0_MCE
      000000F0H.7 SFRSYM    DATA     BIT       B_B7
      000000E1H   SFRSYM    DATA     BYTE      XBR0
      000000C1H   SFRSYM    DATA     BYTE      SMB0CF
      000000E2H   SFRSYM    DATA     BYTE      XBR1
      000000C0H.5 SFRSYM    DATA     BIT       SMB0CN0_STA
      000000E3H   SFRSYM    DATA     BYTE      XBR2
      000000BBH   SFRSYM    DATA     BYTE      ADC0MX
      000000E0H   SFRSYM    DATA     BIT       ACC_ACC0
      000000D1H   SFRSYM    DATA     BYTE      REF0CN
      0000008EH   SFRSYM    DATA     BYTE      CKCON0
      000000E0H.1 SFRSYM    DATA     BIT       ACC_ACC1
      000000C9H   SFRSYM    DATA     BYTE      REG0CN
      000000DDH   SFRSYM    DATA     BYTE      CRC0IN
      000000C8H.2 SFRSYM    DATA     BIT       TMR2CN0_TR2
      000000E0H.2 SFRSYM    DATA     BIT       ACC_ACC2
      000000E0H.3 SFRSYM    DATA     BIT       ACC_ACC3
      00000081H   SFRSYM    DATA     BYTE      SP
      0000009DH   SFRSYM    DATA     BYTE      CMP0MD
      000000E0H.4 SFRSYM    DATA     BIT       ACC_ACC4
      000000B1H   SFRSYM    DATA     BYTE      LFO0CN
      000000ABH   SFRSYM    DATA     BYTE      CMP1MD
      000000D8H   SFRSYM    DATA     BIT       PCA0CN0_CCF0
      000000E0H.5 SFRSYM    DATA     BIT       ACC_ACC5
      000000D8H.1 SFRSYM    DATA     BIT       PCA0CN0_CCF1
      000000E0H.6 SFRSYM    DATA     BIT       ACC_ACC6
      000000CCH   SFRSYM    DATA     WORD      TMR2
      000000D8H.2 SFRSYM    DATA     BIT       PCA0CN0_CCF2
      000000E0H.7 SFRSYM    DATA     BIT       ACC_ACC7
      00000094H   SFRSYM    DATA     WORD      TMR3
      000000C0H.3 SFRSYM    DATA     BIT       SMB0CN0_ACKRQ
      000000FFH   SFRSYM    DATA     BYTE      VDM0CN
      000000F1H   SFRSYM    DATA     BYTE      P0MDIN
      00000098H.4 SFRSYM    DATA     BIT       SCON0_REN
      000000ACH   SFRSYM    DATA     BYTE      SMB0TC
      000000F2H   SFRSYM    DATA     BYTE      P1MDIN
      000000C0H.4 SFRSYM    DATA     BIT       SMB0CN0_STO
      000000FEH   SFRSYM    DATA     BYTE      P0MASK
      000000EEH   SFRSYM    DATA     BYTE      P1MASK
      000000D0H.3 SFRSYM    DATA     BIT       PSW_RS0
      000000D8H.7 SFRSYM    DATA     BIT       PCA0CN0_CF
      0000009EH   SFRSYM    DATA     BYTE      PCA0CENT
      000000F8H.4 SFRSYM    DATA     BIT       SPI0CN0_RXOVRN
      000000D0H.4 SFRSYM    DATA     BIT       PSW_RS1
      000000E8H.7 SFRSYM    DATA     BIT       ADC0CN0_ADEN
      00000089H   SFRSYM    DATA     BYTE      TMOD
      00000088H   SFRSYM    DATA     BYTE      TCON
      000000CFH   SFRSYM    DATA     BYTE      CRC0FLIP
      000000D0H   SFRSYM    DATA     BIT       PSW_PARITY
      000000A8H.4 SFRSYM    DATA     BIT       IE_ES0
      0000009FH   SFRSYM    DATA     BYTE      CMP0MX
      000000A8H.1 SFRSYM    DATA     BIT       IE_ET0
      000000AAH   SFRSYM    DATA     BYTE      CMP1MX
      000000A8H.3 SFRSYM    DATA     BIT       IE_ET1
      000000D4H   SFRSYM    DATA     BYTE      P0SKIP
      000000A8H.5 SFRSYM    DATA     BIT       IE_ET2
      000000D5H   SFRSYM    DATA     BYTE      P1SKIP
      000000E8H   SFRSYM    DATA     BYTE      ADC0CN0
      000000A8H   SFRSYM    DATA     BIT       IE_EX0
      000000B2H   SFRSYM    DATA     BYTE      ADC0CN1
      000000D8H.6 SFRSYM    DATA     BIT       PCA0CN0_CR
LX51 LINKER/LOCATER V4.66.30.0                                                        01/20/2020  14:03:40  PAGE 78


      000000A8H.2 SFRSYM    DATA     BIT       IE_EX1
      00000098H.7 SFRSYM    DATA     BIT       SCON0_SMODE
      000000B5H   SFRSYM    DATA     BYTE      DEVICEID
      000000A9H   SFRSYM    DATA     BYTE      CLKSEL
      000000F8H   SFRSYM    DATA     BIT       SPI0CN0_SPIEN
      000000F0H   SFRSYM    DATA     BYTE      B
      000000BEH   SFRSYM    DATA     BYTE      ADC0H
      000000D2H   SFRSYM    DATA     BYTE      CRC0AUTO
      000000E8H.6 SFRSYM    DATA     BIT       ADC0CN0_ADBMEN
      000000CAH   SFRSYM    DATA     WORD      TMR2RL
      000000BDH   SFRSYM    DATA     BYTE      ADC0L
      00000092H   SFRSYM    DATA     WORD      TMR3RL
      000000D8H   SFRSYM    DATA     BYTE      PCA0CN0
      000000E0H   SFRSYM    DATA     BYTE      ACC
      000000FBH   SFRSYM    DATA     WORD      PCA0CP0
      000000E9H   SFRSYM    DATA     WORD      PCA0CP1
      000000EBH   SFRSYM    DATA     WORD      PCA0CP2
      000000CEH   SFRSYM    DATA     BYTE      CRC0CN0
      00000090H.4 SFRSYM    DATA     BIT       BSP_LED0
      0000008CH   SFRSYM    DATA     BYTE      TH0
      000000B8H.4 SFRSYM    DATA     BIT       IP_PS0
      0000008DH   SFRSYM    DATA     BYTE      TH1
      000000FAH   SFRSYM    DATA     BYTE      PCA0H
      000000B8H.1 SFRSYM    DATA     BIT       IP_PT0
      000000B8H.3 SFRSYM    DATA     BIT       IP_PT1
      000000C0H.2 SFRSYM    DATA     BIT       SMB0CN0_ARBLOST
      000000B8H.5 SFRSYM    DATA     BIT       IP_PT2
      0000008AH   SFRSYM    DATA     BYTE      TL0
      000000F8H.1 SFRSYM    DATA     BIT       SPI0CN0_TXBMT
      000000D0H.5 SFRSYM    DATA     BIT       PSW_F0
      000000A8H.6 SFRSYM    DATA     BIT       IE_ESPI0
      0000008BH   SFRSYM    DATA     BYTE      TL1
      000000F9H   SFRSYM    DATA     BYTE      PCA0L
      000000C0H   SFRSYM    DATA     BIT       SMB0CN0_SI
      000000D0H.1 SFRSYM    DATA     BIT       PSW_F1
      00000080H   SFRSYM    DATA     BIT       P0_B0
      000000B8H   SFRSYM    DATA     BIT       IP_PX0
      00000090H   SFRSYM    DATA     BIT       P1_B0
      00000080H.1 SFRSYM    DATA     BIT       P0_B1
      000000B8H.2 SFRSYM    DATA     BIT       IP_PX1
      0000009BH   SFRSYM    DATA     BYTE      CMP0CN0
      00000088H.1 SFRSYM    DATA     BIT       TCON_IE0
      000000A0H   SFRSYM    DATA     BIT       P2_B0
      00000090H.1 SFRSYM    DATA     BIT       P1_B1
      00000080H.2 SFRSYM    DATA     BIT       P0_B2
      000000BFH   SFRSYM    DATA     BYTE      CMP1CN0
      00000088H.3 SFRSYM    DATA     BIT       TCON_IE1
      000000A0H.1 SFRSYM    DATA     BIT       P2_B1
      00000090H.2 SFRSYM    DATA     BIT       P1_B2
      00000080H.3 SFRSYM    DATA     BIT       P0_B3
      000000C0H   SFRSYM    DATA     BYTE      SMB0CN0
      00000090H.3 SFRSYM    DATA     BIT       P1_B3
      00000080H.4 SFRSYM    DATA     BIT       P0_B4
      00000090H.4 SFRSYM    DATA     BIT       P1_B4
      00000080H.5 SFRSYM    DATA     BIT       P0_B5
      00000090H.5 SFRSYM    DATA     BIT       P1_B5
      00000080H.6 SFRSYM    DATA     BIT       P0_B6
      00000090H.6 SFRSYM    DATA     BIT       P1_B6
      00000080H.7 SFRSYM    DATA     BIT       P0_B7
      00000090H.7 SFRSYM    DATA     BIT       P1_B7
      00000080H.2 SFRSYM    DATA     BIT       BSP_BTN0
      00000083H   SFRSYM    DATA     BYTE      DPH
LX51 LINKER/LOCATER V4.66.30.0                                                        01/20/2020  14:03:40  PAGE 79


      000000C4H   SFRSYM    DATA     BYTE      ADC0GTH
      000000C8H.7 SFRSYM    DATA     BIT       TMR2CN0_TF2H
      000000C8H.3 SFRSYM    DATA     BIT       TMR2CN0_T2SPLIT
      000000D0H.6 SFRSYM    DATA     BIT       PSW_AC
      000000F8H   SFRSYM    DATA     BYTE      SPI0CN0
      000000C7H   SFRSYM    DATA     BYTE      HFO0CAL
      00000088H.5 SFRSYM    DATA     BIT       TCON_TF0
      00000098H   SFRSYM    DATA     BIT       SCON0_RI
      00000082H   SFRSYM    DATA     BYTE      DPL
      00000088H.7 SFRSYM    DATA     BIT       TCON_TF1
      00000099H   SFRSYM    DATA     BYTE      SBUF0
      00000087H   SFRSYM    DATA     BYTE      PCON0
      000000C3H   SFRSYM    DATA     BYTE      ADC0GTL
      000000C8H.6 SFRSYM    DATA     BIT       TMR2CN0_TF2L
      00000098H.1 SFRSYM    DATA     BIT       SCON0_TI
      000000E8H   SFRSYM    DATA     BIT       ADC0CN0_ADCM0
      000000C6H   SFRSYM    DATA     BYTE      ADC0LTH
      00000088H   SFRSYM    DATA     BIT       TCON_IT0
      000000E8H.1 SFRSYM    DATA     BIT       ADC0CN0_ADCM1
      000000EFH   SFRSYM    DATA     BYTE      RSTSRC
      000000FDH   SFRSYM    DATA     BYTE      P0MAT
      000000DEH   SFRSYM    DATA     BYTE      CRC0DAT
      00000088H.2 SFRSYM    DATA     BIT       TCON_IT1
      000000E8H.2 SFRSYM    DATA     BIT       ADC0CN0_ADCM2
      00000098H   SFRSYM    DATA     BYTE      SCON0
      000000F6H   SFRSYM    DATA     BYTE      PRTDRV
      000000EDH   SFRSYM    DATA     BYTE      P1MAT
      000000E8H.3 SFRSYM    DATA     BIT       ADC0CN0_ADWINT
      000000E8H.4 SFRSYM    DATA     BIT       ADC0CN0_ADBUSY
      000000D6H   SFRSYM    DATA     BYTE      SMB0ADM
      000000C5H   SFRSYM    DATA     BYTE      ADC0LTL
      000000F8H.5 SFRSYM    DATA     BIT       SPI0CN0_MODF
      000000B8H.6 SFRSYM    DATA     BIT       IP_PSPI0
      0000009CH   SFRSYM    DATA     BYTE      PCA0CLR
      000000C8H   SFRSYM    DATA     BYTE      TMR2CN0
      00000091H   SFRSYM    DATA     BYTE      TMR3CN0
      000000D7H   SFRSYM    DATA     BYTE      SMB0ADR
      00000088H.4 SFRSYM    DATA     BIT       TCON_TR0
      000000C8H.4 SFRSYM    DATA     BIT       TMR2CN0_TF2CEN
      00000088H.6 SFRSYM    DATA     BIT       TCON_TR1
      000000C2H   SFRSYM    DATA     BYTE      SMB0DAT
      000000CDH   SFRSYM    DATA     BYTE      TMR2H
      000000A1H   SFRSYM    DATA     BYTE      SPI0CFG
      00000095H   SFRSYM    DATA     BYTE      TMR3H
      000000D3H   SFRSYM    DATA     BYTE      CRC0CNT
      00000096H   SFRSYM    DATA     BYTE      PCA0POL
      000000CCH   SFRSYM    DATA     BYTE      TMR2L
      000000F8H.7 SFRSYM    DATA     BIT       SPI0CN0_SPIF
      00000094H   SFRSYM    DATA     BYTE      TMR3L
      000000DFH   SFRSYM    DATA     BYTE      ADC0PWR
      000000A8H.7 SFRSYM    DATA     BIT       IE_EA
      000000C8H.5 SFRSYM    DATA     BIT       TMR2CN0_TF2LEN
      000000F8H.6 SFRSYM    DATA     BIT       SPI0CN0_WCOL
      000000F8H.2 SFRSYM    DATA     BIT       SPI0CN0_NSSMD0
      000000D0H.7 SFRSYM    DATA     BIT       PSW_CY
      000000A3H   SFRSYM    DATA     BYTE      SPI0DAT
      000000F8H.3 SFRSYM    DATA     BIT       SPI0CN0_NSSMD1
      000000BDH   SFRSYM    DATA     WORD      ADC0
      000000D0H   SFRSYM    DATA     BYTE      PSW
      000000F7H   SFRSYM    DATA     BYTE      PCA0PWM
      000000B6H   SFRSYM    DATA     BYTE      REVID
      000000B7H   SFRSYM    DATA     BYTE      FLKEY
LX51 LINKER/LOCATER V4.66.30.0                                                        01/20/2020  14:03:40  PAGE 80


      000000B3H   SFRSYM    DATA     BYTE      ADC0AC
      00000020H.0 SYMBOL    BIT      BIT       motor_spinning
      02000035H   SYMBOL    XDATA    DWORD     accum_motor_current
      02000039H   SYMBOL    XDATA    WORD      opamp_offset
      00000020H.1 SYMBOL    BIT      BIT       rising_bemf
      0200003BH   SYMBOL    XDATA    BYTE      stall_check_count
      0200003CH   SYMBOL    XDATA    BYTE      accum_motor_current_count
      01000AD0H   SYMBOL    CODE     ---       MTR_process_errors
      00000020H.7 SYMBOL    BIT      BIT       motor_direction
      0100097DH   SYMBOL    CODE     ---       MTR_process_adc
      0200004FH   SYMBOL    XDATA    BYTE      average_motor_current_adc
      02000050H   SYMBOL    XDATA    WORD      prev_I
      02000054H   SYMBOL    XDATA    WORD      prev_rpm

      010018D1H   BLOCK     CODE     ---       LVL=0
      010018D1H   LINE      CODE     ---       #267
      010018D1H   LINE      CODE     ---       #268
      010018D1H   LINE      CODE     ---       #269
      010018D4H   LINE      CODE     ---       #270
      010018D6H   LINE      CODE     ---       #272
      010018D9H   LINE      CODE     ---       #273
      010018DBH   LINE      CODE     ---       #274
      010018DDH   LINE      CODE     ---       #275
      010018E3H   LINE      CODE     ---       #276
      010018E5H   LINE      CODE     ---       #281
      010018EBH   LINE      CODE     ---       #282
      010018EDH   LINE      CODE     ---       #283
      010018F1H   LINE      CODE     ---       #284
      010018F5H   LINE      CODE     ---       #285
      010018FBH   LINE      CODE     ---       #295
      ---         BLOCKEND  ---      ---       LVL=0

      01001770H   BLOCK     CODE     ---       LVL=0
      01001770H   LINE      CODE     ---       #309
      01001770H   LINE      CODE     ---       #310
      01001770H   LINE      CODE     ---       #311
      01001773H   LINE      CODE     ---       #312
      01001776H   LINE      CODE     ---       #313
      0100177CH   LINE      CODE     ---       #314
      0100177CH   LINE      CODE     ---       #316
      01001782H   LINE      CODE     ---       #317
      0100178CH   LINE      CODE     ---       #318
      01001791H   LINE      CODE     ---       #319
      01001797H   LINE      CODE     ---       #320
      01001799H   LINE      CODE     ---       #321
      0100179DH   LINE      CODE     ---       #322
      0100179DH   LINE      CODE     ---       #323
      010017A0H   LINE      CODE     ---       #326
      010017A3H   LINE      CODE     ---       #329
      010017A3H   LINE      CODE     ---       #332
      010017A6H   LINE      CODE     ---       #337
      ---         BLOCKEND  ---      ---       LVL=0

      01001925H   BLOCK     CODE     ---       LVL=0
      01001925H   LINE      CODE     ---       #353
      01001925H   LINE      CODE     ---       #354
      01001925H   LINE      CODE     ---       #355
      0100192DH   LINE      CODE     ---       #356
      0100192DH   LINE      CODE     ---       #358
      0100192DH   LINE      CODE     ---       #360
      01001931H   LINE      CODE     ---       #361
      01001934H   LINE      CODE     ---       #362
LX51 LINKER/LOCATER V4.66.30.0                                                        01/20/2020  14:03:40  PAGE 81


      01001937H   LINE      CODE     ---       #363
      01001937H   LINE      CODE     ---       #364
      0100193AH   LINE      CODE     ---       #365
      0100193AH   LINE      CODE     ---       #366
      0100193DH   LINE      CODE     ---       #370
      01001943H   LINE      CODE     ---       #371
      01001945H   LINE      CODE     ---       #372
      01001947H   LINE      CODE     ---       #375
      0100194BH   LINE      CODE     ---       #376
      ---         BLOCKEND  ---      ---       LVL=0

      0100163CH   BLOCK     CODE     ---       LVL=0
      0100163CH   BLOCK     CODE     NEAR LAB  LVL=1
      00000021H.4 SYMBOL    BIT      BIT       saved_ea
      ---         BLOCKEND  ---      ---       LVL=1
      0100163CH   LINE      CODE     ---       #396
      0100163CH   LINE      CODE     ---       #397
      0100163CH   LINE      CODE     ---       #401
      0100163EH   LINE      CODE     ---       #403
      01001641H   LINE      CODE     ---       #404
      01001648H   LINE      CODE     ---       #405
      01001648H   LINE      CODE     ---       #407
      01001648H   LINE      CODE     ---       #411
      0100164EH   LINE      CODE     ---       #412
      01001656H   LINE      CODE     ---       #413
      01001659H   LINE      CODE     ---       #414
      0100165DH   LINE      CODE     ---       #416
      01001660H   LINE      CODE     ---       #419
      01001663H   LINE      CODE     ---       #421
      01001667H   LINE      CODE     ---       #422
      0100166DH   LINE      CODE     ---       #423
      0100166FH   LINE      CODE     ---       #424
      01001675H   LINE      CODE     ---       #425
      0100167CH   LINE      CODE     ---       #426
      ---         BLOCKEND  ---      ---       LVL=0

      0100136EH   BLOCK     CODE     ---       LVL=0
      0100136EH   BLOCK     CODE     NEAR LAB  LVL=1
      00000058H   SYMBOL    DATA     BYTE      t1
      00000007H   SYMBOL    DATA     BYTE      t2
      00000006H   SYMBOL    DATA     BYTE      gap
      00000021H.4 SYMBOL    BIT      BIT       rising_zc_done
      00000021H.5 SYMBOL    BIT      BIT       cptout
      010013A9H   SYMBOL    CODE     VOID      check_direction
      010013C9H   SYMBOL    CODE     VOID      exit_check_spinning
      ---         BLOCKEND  ---      ---       LVL=1
      0100136EH   LINE      CODE     ---       #439
      0100136EH   LINE      CODE     ---       #440
      0100136EH   LINE      CODE     ---       #446
      01001371H   LINE      CODE     ---       #448
      01001374H   LINE      CODE     ---       #451
      01001377H   LINE      CODE     ---       #452
      0100137CH   LINE      CODE     ---       #453
      0100137CH   LINE      CODE     ---       #454
      0100137EH   LINE      CODE     ---       #455
      01001380H   LINE      CODE     ---       #457
      01001380H   LINE      CODE     ---       #458
      01001383H   LINE      CODE     ---       #459
      01001388H   LINE      CODE     ---       #461
      01001390H   LINE      CODE     ---       #462
      01001390H   LINE      CODE     ---       #463
      01001392H   LINE      CODE     ---       #464
LX51 LINKER/LOCATER V4.66.30.0                                                        01/20/2020  14:03:40  PAGE 82


      01001394H   LINE      CODE     ---       #465
      01001397H   LINE      CODE     ---       #466
      01001399H   LINE      CODE     ---       #468
      010013A1H   LINE      CODE     ---       #469
      010013A1H   LINE      CODE     ---       #470
      010013A1H   LINE      CODE     ---       #471
      010013A1H   LINE      CODE     ---       #472
      010013A7H   LINE      CODE     ---       #474
      010013A9H   LINE      CODE     ---       #476
      010013A9H   LINE      CODE     ---       #479
      010013ACH   LINE      CODE     ---       #482
      010013AFH   LINE      CODE     ---       #483
      010013B2H   LINE      CODE     ---       #484
      010013BBH   LINE      CODE     ---       #485
      010013C3H   LINE      CODE     ---       #486
      010013C3H   LINE      CODE     ---       #487
      010013C5H   LINE      CODE     ---       #488
      010013C7H   LINE      CODE     ---       #490
      010013C7H   LINE      CODE     ---       #491
      010013C9H   LINE      CODE     ---       #492
      010013C9H   LINE      CODE     ---       #493
      010013C9H   LINE      CODE     ---       #494
      010013CCH   LINE      CODE     ---       #495
      010013CFH   LINE      CODE     ---       #496
      ---         BLOCKEND  ---      ---       LVL=0

      01001527H   BLOCK     CODE     ---       LVL=0
      01001527H   LINE      CODE     ---       #511
      01001527H   LINE      CODE     ---       #512
      01001527H   LINE      CODE     ---       #513
      01001531H   LINE      CODE     ---       #515
      01001558H   LINE      CODE     ---       #519
      0100155BH   LINE      CODE     ---       #520
      0100155BH   LINE      CODE     ---       #524
      01001561H   LINE      CODE     ---       #525
      01001562H   LINE      CODE     ---       #527
      01001562H   LINE      CODE     ---       #528
      0100156EH   LINE      CODE     ---       #529
      0100156EH   LINE      CODE     ---       #530
      ---         BLOCKEND  ---      ---       LVL=0

      010015B6H   BLOCK     CODE     VOID      LVL=0
      ---         BLOCKEND  ---      ---       LVL=0

      010015BFH   BLOCK     CODE     ---       LVL=0
      010015BFH   LINE      CODE     ---       #567
      010015BFH   LINE      CODE     ---       #568
      010015BFH   LINE      CODE     ---       #572
      010015CCH   LINE      CODE     ---       #574
      010015D1H   LINE      CODE     ---       #575
      010015D7H   LINE      CODE     ---       #576
      010015DBH   LINE      CODE     ---       #578
      010015DEH   LINE      CODE     ---       #580
      010015E1H   LINE      CODE     ---       #581
      010015E1H   LINE      CODE     ---       #582
      010015E3H   LINE      CODE     ---       #583
      010015EAH   LINE      CODE     ---       #584
      010015EDH   LINE      CODE     ---       #585
      010015EEH   LINE      CODE     ---       #588
      010015EEH   LINE      CODE     ---       #589
      010015F0H   LINE      CODE     ---       #590
      010015F7H   LINE      CODE     ---       #591
LX51 LINKER/LOCATER V4.66.30.0                                                        01/20/2020  14:03:40  PAGE 83


      010015FAH   LINE      CODE     ---       #592
      010015FAH   LINE      CODE     ---       #593
      ---         BLOCKEND  ---      ---       LVL=0

      010004E2H   BLOCK     CODE     ---       LVL=0
      010004E2H   BLOCK     CODE     NEAR LAB  LVL=1
      00000058H   SYMBOL    DATA     BYTE      idx
      00000059H   SYMBOL    DATA     BYTE      tmp
      00000021H.4 SYMBOL    BIT      BIT       saved_ea
      02000071H   SYMBOL    XDATA    DWORD     SIG_k_1
      02000075H   SYMBOL    XDATA    DWORD     SIG_k
      0000005AH   SYMBOL    DATA     WORD      T_k
      ---         BLOCKEND  ---      ---       LVL=1
      010004E2H   LINE      CODE     ---       #612
      010004E2H   LINE      CODE     ---       #613
      010004E2H   LINE      CODE     ---       #621
      010004E5H   LINE      CODE     ---       #623
      010004EEH   LINE      CODE     ---       #624
      010004F6H   LINE      CODE     ---       #626
      010004F8H   LINE      CODE     ---       #628
      01000502H   LINE      CODE     ---       #632
      01000505H   LINE      CODE     ---       #635
      0100050AH   LINE      CODE     ---       #638
      01000510H   LINE      CODE     ---       #639
      01000517H   LINE      CODE     ---       #642
      0100051AH   LINE      CODE     ---       #645
      0100051DH   LINE      CODE     ---       #646
      0100051FH   LINE      CODE     ---       #649
      0100051FH   LINE      CODE     ---       #650
      0100051FH   LINE      CODE     ---       #651
      01000522H   LINE      CODE     ---       #652
      01000526H   LINE      CODE     ---       #653
      01000529H   LINE      CODE     ---       #654
      01000532H   LINE      CODE     ---       #655
      01000532H   LINE      CODE     ---       #656
      01000537H   LINE      CODE     ---       #657
      01000539H   LINE      CODE     ---       #660
      0100053CH   LINE      CODE     ---       #661
      0100053EH   LINE      CODE     ---       #663
      0100053EH   LINE      CODE     ---       #665
      0100053EH   LINE      CODE     ---       #666
      0100053EH   LINE      CODE     ---       #667
      01000541H   LINE      CODE     ---       #668
      01000545H   LINE      CODE     ---       #670
      0100054CH   LINE      CODE     ---       #671
      0100054CH   LINE      CODE     ---       #672
      01000565H   LINE      CODE     ---       #673
      01000567H   LINE      CODE     ---       #675
      01000567H   LINE      CODE     ---       #679
      01000594H   LINE      CODE     ---       #680
      01000594H   LINE      CODE     ---       #681
      010005A8H   LINE      CODE     ---       #682
      010005CDH   LINE      CODE     ---       #684
      010005D9H   LINE      CODE     ---       #685
      010005DFH   LINE      CODE     ---       #686
      010005E2H   LINE      CODE     ---       #688
      010005E5H   LINE      CODE     ---       #690
      010005E8H   LINE      CODE     ---       #691
      010005EBH   LINE      CODE     ---       #692
      010005F2H   LINE      CODE     ---       #693
      010005F2H   LINE      CODE     ---       #694
      010005F7H   LINE      CODE     ---       #695
LX51 LINKER/LOCATER V4.66.30.0                                                        01/20/2020  14:03:40  PAGE 84


      010005F7H   LINE      CODE     ---       #696
      010005FAH   LINE      CODE     ---       #697
      010005FCH   LINE      CODE     ---       #698
      010005FCH   LINE      CODE     ---       #699
      01000601H   LINE      CODE     ---       #700
      01000601H   LINE      CODE     ---       #701
      01000604H   LINE      CODE     ---       #702
      0100060AH   LINE      CODE     ---       #703
      0100060DH   LINE      CODE     ---       #704
      01000610H   LINE      CODE     ---       #705
      01000614H   LINE      CODE     ---       #706
      01000614H   LINE      CODE     ---       #707
      01000616H   LINE      CODE     ---       #709
      01000619H   LINE      CODE     ---       #710
      01000627H   LINE      CODE     ---       #711
      01000627H   LINE      CODE     ---       #712
      01000627H   LINE      CODE     ---       #713
      01000627H   LINE      CODE     ---       #716
      01000638H   LINE      CODE     ---       #717
      01000643H   LINE      CODE     ---       #718
      01000655H   LINE      CODE     ---       #719
      01000655H   LINE      CODE     ---       #720
      0100065BH   LINE      CODE     ---       #721
      0100065BH   LINE      CODE     ---       #722
      01000661H   LINE      CODE     ---       #725
      01000664H   LINE      CODE     ---       #726
      01000667H   LINE      CODE     ---       #729
      0100066FH   LINE      CODE     ---       #730
      01000672H   LINE      CODE     ---       #731
      ---         BLOCKEND  ---      ---       LVL=0

      01000673H   BLOCK     CODE     ---       LVL=0
      01000673H   BLOCK     CODE     NEAR LAB  LVL=1
      00000021H.4 SYMBOL    BIT      BIT       saved_ea
      00000021H.5 SYMBOL    BIT      BIT       is_1st_crossing
      00000058H   SYMBOL    DATA     ---       ticks
      ---         BLOCKEND  ---      ---       LVL=1
      01000673H   LINE      CODE     ---       #745
      01000673H   LINE      CODE     ---       #746
      01000673H   LINE      CODE     ---       #754
      01000676H   LINE      CODE     ---       #758
      01000679H   LINE      CODE     ---       #760
      0100067EH   LINE      CODE     ---       #762
      01000681H   LINE      CODE     ---       #765
      01000686H   LINE      CODE     ---       #766
      0100068AH   LINE      CODE     ---       #768
      0100068DH   LINE      CODE     ---       #772
      01000691H   LINE      CODE     ---       #773
      01000693H   LINE      CODE     ---       #774
      01000698H   LINE      CODE     ---       #775
      01000698H   LINE      CODE     ---       #776
      0100069EH   LINE      CODE     ---       #777
      0100069EH   LINE      CODE     ---       #779
      010006A1H   LINE      CODE     ---       #780
      010006A1H   LINE      CODE     ---       #782
      010006A7H   LINE      CODE     ---       #783
      010006AAH   LINE      CODE     ---       #784
      010006AAH   LINE      CODE     ---       #785
      010006AAH   LINE      CODE     ---       #786
      010006AAH   LINE      CODE     ---       #787
      010006ACH   LINE      CODE     ---       #789
      010006ACH   LINE      CODE     ---       #791
LX51 LINKER/LOCATER V4.66.30.0                                                        01/20/2020  14:03:40  PAGE 85


      010006B2H   LINE      CODE     ---       #792
      010006B5H   LINE      CODE     ---       #793
      010006BBH   LINE      CODE     ---       #795
      010006C0H   LINE      CODE     ---       #796
      010006C3H   LINE      CODE     ---       #797
      010006C7H   LINE      CODE     ---       #798
      010006C7H   LINE      CODE     ---       #802
      010006CCH   LINE      CODE     ---       #803
      010006CCH   LINE      CODE     ---       #805
      010006CFH   LINE      CODE     ---       #806
      010006CFH   LINE      CODE     ---       #807
      010006D2H   LINE      CODE     ---       #808
      010006D5H   LINE      CODE     ---       #809
      010006D7H   LINE      CODE     ---       #812
      010006D7H   LINE      CODE     ---       #813
      010006DAH   LINE      CODE     ---       #814
      010006DDH   LINE      CODE     ---       #815
      010006DDH   LINE      CODE     ---       #816
      010006DFH   LINE      CODE     ---       #817
      010006E1H   LINE      CODE     ---       #819
      010006E6H   LINE      CODE     ---       #820
      010006E6H   LINE      CODE     ---       #822
      010006E9H   LINE      CODE     ---       #823
      010006E9H   LINE      CODE     ---       #824
      010006ECH   LINE      CODE     ---       #825
      010006EFH   LINE      CODE     ---       #826
      010006F1H   LINE      CODE     ---       #829
      010006F1H   LINE      CODE     ---       #830
      010006F4H   LINE      CODE     ---       #831
      010006F7H   LINE      CODE     ---       #832
      010006F7H   LINE      CODE     ---       #833
      010006F9H   LINE      CODE     ---       #834
      010006F9H   LINE      CODE     ---       #836
      010006FCH   LINE      CODE     ---       #838
      010006FFH   LINE      CODE     ---       #839
      010006FFH   LINE      CODE     ---       #840
      01000701H   LINE      CODE     ---       #841
      01000703H   LINE      CODE     ---       #843
      01000703H   LINE      CODE     ---       #844
      01000703H   LINE      CODE     ---       #845
      01000703H   LINE      CODE     ---       #846
      01000703H   LINE      CODE     ---       #847
      01000703H   LINE      CODE     ---       #849
      01000708H   LINE      CODE     ---       #850
      01000708H   LINE      CODE     ---       #851
      0100070BH   LINE      CODE     ---       #853
      0100070BH   LINE      CODE     ---       #854
      0100070DH   LINE      CODE     ---       #863
      01000720H   LINE      CODE     ---       #868
      01000723H   LINE      CODE     ---       #869
      0100073CH   LINE      CODE     ---       #871
      01000742H   LINE      CODE     ---       #873
      01000745H   LINE      CODE     ---       #874
      0100076BH   LINE      CODE     ---       #875
      0100076EH   LINE      CODE     ---       #876
      01000778H   LINE      CODE     ---       #878
      0100077AH   LINE      CODE     ---       #879
      0100077DH   LINE      CODE     ---       #880
      01000780H   LINE      CODE     ---       #882
      01000782H   LINE      CODE     ---       #883
      01000784H   LINE      CODE     ---       #884
      01000788H   LINE      CODE     ---       #888
LX51 LINKER/LOCATER V4.66.30.0                                                        01/20/2020  14:03:40  PAGE 86


      0100078BH   LINE      CODE     ---       #889
      0100078EH   LINE      CODE     ---       #890
      0100079DH   LINE      CODE     ---       #891
      0100079FH   LINE      CODE     ---       #894
      010007A2H   LINE      CODE     ---       #895
      010007A5H   LINE      CODE     ---       #897
      010007A8H   LINE      CODE     ---       #899
      010007AAH   LINE      CODE     ---       #902
      010007ADH   LINE      CODE     ---       #908
      010007D7H   LINE      CODE     ---       #909
      010007D9H   LINE      CODE     ---       #910
      010007DBH   LINE      CODE     ---       #911
      010007E4H   LINE      CODE     ---       #912
      010007EEH   LINE      CODE     ---       #914
      010007F0H   LINE      CODE     ---       #915
      010007F7H   LINE      CODE     ---       #918
      010007FAH   LINE      CODE     ---       #920
      ---         BLOCKEND  ---      ---       LVL=0

      0100156FH   BLOCK     CODE     ---       LVL=0
      0100156FH   BLOCK     CODE     NEAR LAB  LVL=1
      02000071H   SYMBOL    XDATA    DWORD     t0
      00000021H.4 SYMBOL    BIT      BIT       saved_ea
      ---         BLOCKEND  ---      ---       LVL=1
      0100156FH   LINE      CODE     ---       #934
      0100156FH   LINE      CODE     ---       #935
      0100156FH   LINE      CODE     ---       #942
      01001572H   LINE      CODE     ---       #943
      01001572H   LINE      CODE     ---       #944
      01001574H   LINE      CODE     ---       #945
      0100157AH   LINE      CODE     ---       #946
      0100158EH   LINE      CODE     ---       #947
      01001592H   LINE      CODE     ---       #948
      010015B3H   LINE      CODE     ---       #950
      010015B5H   LINE      CODE     ---       #951
      010015B5H   LINE      CODE     ---       #952
      ---         BLOCKEND  ---      ---       LVL=0

      01001738H   BLOCK     CODE     ---       LVL=0
      01001738H   BLOCK     CODE     NEAR LAB  LVL=1
      00000023H   SYMBOL    DATA     BYTE      ovf
      ---         BLOCKEND  ---      ---       LVL=1
      01001738H   LINE      CODE     ---       #965
      01001738H   LINE      CODE     ---       #966
      01001738H   LINE      CODE     ---       #969
      01001748H   LINE      CODE     ---       #970
      0100174AH   LINE      CODE     ---       #971
      0100174DH   LINE      CODE     ---       #972
      01001750H   LINE      CODE     ---       #973
      01001756H   LINE      CODE     ---       #974
      0100175CH   LINE      CODE     ---       #975
      0100175EH   LINE      CODE     ---       #977
      01001767H   LINE      CODE     ---       #978
      01001767H   LINE      CODE     ---       #979
      0100176FH   LINE      CODE     ---       #980
      0100176FH   LINE      CODE     ---       #981
      ---         BLOCKEND  ---      ---       LVL=0

      01001B2DH   BLOCK     CODE     ---       LVL=0
      01001B2DH   LINE      CODE     ---       #996
      01001B2DH   LINE      CODE     ---       #997
      01001B2DH   LINE      CODE     ---       #1007
LX51 LINKER/LOCATER V4.66.30.0                                                        01/20/2020  14:03:40  PAGE 87


      01001B34H   LINE      CODE     ---       #1083
      ---         BLOCKEND  ---      ---       LVL=0

      01001AB9H   BLOCK     CODE     ---       LVL=0
      01001AB9H   BLOCK     CODE     NEAR LAB  LVL=1
      00000021H.6 SYMBOL    BIT      BIT       saved_ea
      00000006H   SYMBOL    DATA     WORD      xtime
      ---         BLOCKEND  ---      ---       LVL=1
      01001AB9H   LINE      CODE     ---       #1101
      01001AB9H   LINE      CODE     ---       #1102
      01001AB9H   LINE      CODE     ---       #1106
      01001ABFH   LINE      CODE     ---       #1107
      01001AC3H   LINE      CODE     ---       #1108
      01001AC7H   LINE      CODE     ---       #1110
      01001AC7H   LINE      CODE     ---       #1111
      ---         BLOCKEND  ---      ---       LVL=0

      01001A48H   BLOCK     CODE     ---       LVL=0
      00000007H   SYMBOL    DATA     BYTE      poles
      01001A48H   LINE      CODE     ---       #1124
      01001A48H   LINE      CODE     ---       #1125
      01001A48H   LINE      CODE     ---       #1126
      01001A4DH   LINE      CODE     ---       #1128
      01001A5BH   LINE      CODE     ---       #1129
      ---         BLOCKEND  ---      ---       LVL=0

      0100097DH   BLOCK     CODE     ---       LVL=0
      0100097DH   BLOCK     CODE     NEAR LAB  LVL=1
      02000030H   SYMBOL    XDATA    WORD      prev_opamp_offset
      02000071H   SYMBOL    XDATA    ---       tmp
      ---         BLOCKEND  ---      ---       LVL=1
      0100097DH   LINE      CODE     ---       #1140
      0100097DH   LINE      CODE     ---       #1141
      0100097DH   LINE      CODE     ---       #1145
      01000985H   LINE      CODE     ---       #1146
      01000985H   LINE      CODE     ---       #1148
      01000995H   LINE      CODE     ---       #1151
      0100099AH   LINE      CODE     ---       #1152
      0100099AH   LINE      CODE     ---       #1153
      010009A2H   LINE      CODE     ---       #1154
      010009D6H   LINE      CODE     ---       #1156
      010009DEH   LINE      CODE     ---       #1157
      010009E1H   LINE      CODE     ---       #1159
      010009E1H   LINE      CODE     ---       #1160
      010009F7H   LINE      CODE     ---       #1161
      010009F7H   LINE      CODE     ---       #1162
      010009FEH   LINE      CODE     ---       #1163
      01000A00H   LINE      CODE     ---       #1165
      01000A00H   LINE      CODE     ---       #1166
      01000A0DH   LINE      CODE     ---       #1167
      01000A0DH   LINE      CODE     ---       #1169
      01000A38H   LINE      CODE     ---       #1170
      01000A40H   LINE      CODE     ---       #1171
      01000A40H   LINE      CODE     ---       #1172
      01000A5BH   LINE      CODE     ---       #1173
      01000A6FH   LINE      CODE     ---       #1174
      01000A79H   LINE      CODE     ---       #1175
      01000A7FH   LINE      CODE     ---       #1181
      01000A9FH   LINE      CODE     ---       #1182
      01000A9FH   LINE      CODE     ---       #1183
      01000A9FH   LINE      CODE     ---       #1184
      01000A9FH   LINE      CODE     ---       #1187
LX51 LINKER/LOCATER V4.66.30.0                                                        01/20/2020  14:03:40  PAGE 88


      01000AA4H   LINE      CODE     ---       #1188
      01000AA4H   LINE      CODE     ---       #1190
      01000AB3H   LINE      CODE     ---       #1193
      01000ACFH   LINE      CODE     ---       #1196
      01000ACFH   LINE      CODE     ---       #1198
      ---         BLOCKEND  ---      ---       LVL=0

      01000AD0H   BLOCK     CODE     ---       LVL=0
      01000AD0H   BLOCK     CODE     NEAR LAB  LVL=1
      00000024H   SYMBOL    DATA     BYTE      oc_count
      00000006H   SYMBOL    DATA     WORD      gap
      00000058H   SYMBOL    DATA     WORD      delta_I
      0000005AH   SYMBOL    DATA     WORD      rpm_changes
      00000006H   SYMBOL    DATA     WORD      i_changes
      ---         BLOCKEND  ---      ---       LVL=1
      01000AD0H   LINE      CODE     ---       #1209
      01000AD0H   LINE      CODE     ---       #1210
      01000AD0H   LINE      CODE     ---       #1216
      01000AD6H   LINE      CODE     ---       #1217
      01000AD6H   LINE      CODE     ---       #1218
      01000AD8H   LINE      CODE     ---       #1219
      01000AE3H   LINE      CODE     ---       #1222
      01000AE3H   LINE      CODE     ---       #1224
      01000AE6H   LINE      CODE     ---       #1225
      01000AE6H   LINE      CODE     ---       #1226
      01000AF8H   LINE      CODE     ---       #1227
      01000B04H   LINE      CODE     ---       #1228
      01000B04H   LINE      CODE     ---       #1229
      01000B06H   LINE      CODE     ---       #1230
      01000B08H   LINE      CODE     ---       #1232
      01000B09H   LINE      CODE     ---       #1234
      01000B09H   LINE      CODE     ---       #1236
      01000B11H   LINE      CODE     ---       #1237
      01000B11H   LINE      CODE     ---       #1239
      01000B1FH   LINE      CODE     ---       #1240
      01000B1FH   LINE      CODE     ---       #1241
      01000B2DH   LINE      CODE     ---       #1243
      01000B2DH   LINE      CODE     ---       #1244
      01000B2FH   LINE      CODE     ---       #1245
      01000B34H   LINE      CODE     ---       #1246
      01000B34H   LINE      CODE     ---       #1247
      01000B36H   LINE      CODE     ---       #1248
      01000B36H   LINE      CODE     ---       #1249
      01000B38H   LINE      CODE     ---       #1251
      01000B38H   LINE      CODE     ---       #1252
      01000B3BH   LINE      CODE     ---       #1253
      01000B3BH   LINE      CODE     ---       #1254
      01000B3BH   LINE      CODE     ---       #1258
      01000B46H   LINE      CODE     ---       #1259
      01000B46H   LINE      CODE     ---       #1263
      01000B6EH   LINE      CODE     ---       #1264
      01000B6EH   LINE      CODE     ---       #1265
      01000B77H   LINE      CODE     ---       #1269
      01000B8FH   LINE      CODE     ---       #1270
      01000BAAH   LINE      CODE     ---       #1272
      01000BBDH   LINE      CODE     ---       #1273
      01000BE3H   LINE      CODE     ---       #1275
      01000BECH   LINE      CODE     ---       #1276
      01000BECH   LINE      CODE     ---       #1277
      01000BEEH   LINE      CODE     ---       #1278
      01000BEEH   LINE      CODE     ---       #1279
      01000BEEH   LINE      CODE     ---       #1280
LX51 LINKER/LOCATER V4.66.30.0                                                        01/20/2020  14:03:40  PAGE 89


      01000BF4H   LINE      CODE     ---       #1281
      01000C03H   LINE      CODE     ---       #1282
      01000C12H   LINE      CODE     ---       #1283
      01000C12H   LINE      CODE     ---       #1285
      01000C12H   LINE      CODE     ---       #1287
      01000C15H   LINE      CODE     ---       #1288
      01000C15H   LINE      CODE     ---       #1289
      01000C18H   LINE      CODE     ---       #1290
      01000C1AH   LINE      CODE     ---       #1291
      01000C1CH   LINE      CODE     ---       #1292
      01000C1CH   LINE      CODE     ---       #1294
      ---         BLOCKEND  ---      ---       LVL=0

      ---         MODULE    ---      ---       MTRAPP
      01000E5DH   PUBLIC    CODE     ---       MTRAPP_read_target_speed
      01001812H   PUBLIC    CODE     ---       MTRAPP_read_direction
      01000D54H   PUBLIC    CODE     ---       MTRAPP_task
      0100167DH   PUBLIC    CODE     ---       MTRAPP_init
      000000A2H   SFRSYM    DATA     BYTE      SPI0CKR
      00000080H   SFRSYM    DATA     BYTE      P0
      000000D0H.2 SFRSYM    DATA     BIT       PSW_OV
      00000090H   SFRSYM    DATA     BYTE      P1
      00000097H   SFRSYM    DATA     BYTE      WDTCN
      000000A0H   SFRSYM    DATA     BYTE      P2
      000000BCH   SFRSYM    DATA     BYTE      ADC0CF
      000000C8H   SFRSYM    DATA     BIT       TMR2CN0_T2XCLK
      000000C0H.7 SFRSYM    DATA     BIT       SMB0CN0_MASTER
      000000F9H   SFRSYM    DATA     WORD      PCA0
      000000E6H   SFRSYM    DATA     BYTE      EIE1
      000000C0H.1 SFRSYM    DATA     BIT       SMB0CN0_ACK
      0000008FH   SFRSYM    DATA     BYTE      PSCTL
      000000E4H   SFRSYM    DATA     BYTE      IT01CF
      000000C0H.6 SFRSYM    DATA     BIT       SMB0CN0_TXMODE
      000000ADH   SFRSYM    DATA     BYTE      DERIVID
      000000A4H   SFRSYM    DATA     BYTE      P0MDOUT
      000000A5H   SFRSYM    DATA     BYTE      P1MDOUT
      000000E8H.5 SFRSYM    DATA     BIT       ADC0CN0_ADINT
      000000CBH   SFRSYM    DATA     BYTE      TMR2RLH
      000000A6H   SFRSYM    DATA     BYTE      P2MDOUT
      000000A8H   SFRSYM    DATA     BYTE      IE
      00000093H   SFRSYM    DATA     BYTE      TMR3RLH
      000000F3H   SFRSYM    DATA     BYTE      EIP1
      00000098H.2 SFRSYM    DATA     BIT       SCON0_RB8
      000000CAH   SFRSYM    DATA     BYTE      TMR2RLL
      000000FCH   SFRSYM    DATA     BYTE      PCA0CPH0
      00000092H   SFRSYM    DATA     BYTE      TMR3RLL
      000000EAH   SFRSYM    DATA     BYTE      PCA0CPH1
      00000098H.3 SFRSYM    DATA     BIT       SCON0_TB8
      000000F0H   SFRSYM    DATA     BIT       B_B0
      00000082H   SFRSYM    DATA     WORD      DP
      000000ECH   SFRSYM    DATA     BYTE      PCA0CPH2
      000000A0H.1 SFRSYM    DATA     BIT       BTN0
      000000F0H.1 SFRSYM    DATA     BIT       B_B1
      000000C3H   SFRSYM    DATA     WORD      ADC0GT
      00000090H.1 SFRSYM    DATA     BIT       BTN1
      000000F0H.2 SFRSYM    DATA     BIT       B_B2
      000000FBH   SFRSYM    DATA     BYTE      PCA0CPL0
      000000F0H.3 SFRSYM    DATA     BIT       B_B3
      000000D9H   SFRSYM    DATA     BYTE      PCA0MD
      000000DAH   SFRSYM    DATA     BYTE      PCA0CPM0
      000000E9H   SFRSYM    DATA     BYTE      PCA0CPL1
      000000F0H.4 SFRSYM    DATA     BIT       B_B4
LX51 LINKER/LOCATER V4.66.30.0                                                        01/20/2020  14:03:40  PAGE 90


      000000DBH   SFRSYM    DATA     BYTE      PCA0CPM1
      000000EBH   SFRSYM    DATA     BYTE      PCA0CPL2
      000000F0H.5 SFRSYM    DATA     BIT       B_B5
      000000DCH   SFRSYM    DATA     BYTE      PCA0CPM2
      000000B8H   SFRSYM    DATA     BYTE      IP
      000000B9H   SFRSYM    DATA     BYTE      ADC0TK
      000000F0H.6 SFRSYM    DATA     BIT       B_B6
      000000C5H   SFRSYM    DATA     WORD      ADC0LT
      00000098H.5 SFRSYM    DATA     BIT       SCON0_MCE
      000000F0H.7 SFRSYM    DATA     BIT       B_B7
      000000E1H   SFRSYM    DATA     BYTE      XBR0
      000000C1H   SFRSYM    DATA     BYTE      SMB0CF
      000000E2H   SFRSYM    DATA     BYTE      XBR1
      000000C0H.5 SFRSYM    DATA     BIT       SMB0CN0_STA
      000000E3H   SFRSYM    DATA     BYTE      XBR2
      000000BBH   SFRSYM    DATA     BYTE      ADC0MX
      000000E0H   SFRSYM    DATA     BIT       ACC_ACC0
      000000D1H   SFRSYM    DATA     BYTE      REF0CN
      0000008EH   SFRSYM    DATA     BYTE      CKCON0
      000000E0H.1 SFRSYM    DATA     BIT       ACC_ACC1
      000000C9H   SFRSYM    DATA     BYTE      REG0CN
      000000DDH   SFRSYM    DATA     BYTE      CRC0IN
      000000C8H.2 SFRSYM    DATA     BIT       TMR2CN0_TR2
      000000E0H.2 SFRSYM    DATA     BIT       ACC_ACC2
      000000E0H.3 SFRSYM    DATA     BIT       ACC_ACC3
      00000081H   SFRSYM    DATA     BYTE      SP
      0000009DH   SFRSYM    DATA     BYTE      CMP0MD
      000000E0H.4 SFRSYM    DATA     BIT       ACC_ACC4
      000000B1H   SFRSYM    DATA     BYTE      LFO0CN
      000000ABH   SFRSYM    DATA     BYTE      CMP1MD
      000000D8H   SFRSYM    DATA     BIT       PCA0CN0_CCF0
      000000E0H.5 SFRSYM    DATA     BIT       ACC_ACC5
      000000D8H.1 SFRSYM    DATA     BIT       PCA0CN0_CCF1
      000000E0H.6 SFRSYM    DATA     BIT       ACC_ACC6
      000000CCH   SFRSYM    DATA     WORD      TMR2
      000000D8H.2 SFRSYM    DATA     BIT       PCA0CN0_CCF2
      000000E0H.7 SFRSYM    DATA     BIT       ACC_ACC7
      00000094H   SFRSYM    DATA     WORD      TMR3
      000000C0H.3 SFRSYM    DATA     BIT       SMB0CN0_ACKRQ
      000000FFH   SFRSYM    DATA     BYTE      VDM0CN
      000000F1H   SFRSYM    DATA     BYTE      P0MDIN
      00000098H.4 SFRSYM    DATA     BIT       SCON0_REN
      000000ACH   SFRSYM    DATA     BYTE      SMB0TC
      000000F2H   SFRSYM    DATA     BYTE      P1MDIN
      000000C0H.4 SFRSYM    DATA     BIT       SMB0CN0_STO
      000000FEH   SFRSYM    DATA     BYTE      P0MASK
      000000EEH   SFRSYM    DATA     BYTE      P1MASK
      000000D0H.3 SFRSYM    DATA     BIT       PSW_RS0
      000000D8H.7 SFRSYM    DATA     BIT       PCA0CN0_CF
      0000009EH   SFRSYM    DATA     BYTE      PCA0CENT
      000000F8H.4 SFRSYM    DATA     BIT       SPI0CN0_RXOVRN
      000000D0H.4 SFRSYM    DATA     BIT       PSW_RS1
      000000E8H.7 SFRSYM    DATA     BIT       ADC0CN0_ADEN
      00000089H   SFRSYM    DATA     BYTE      TMOD
      00000088H   SFRSYM    DATA     BYTE      TCON
      000000CFH   SFRSYM    DATA     BYTE      CRC0FLIP
      000000D0H   SFRSYM    DATA     BIT       PSW_PARITY
      000000A8H.4 SFRSYM    DATA     BIT       IE_ES0
      0000009FH   SFRSYM    DATA     BYTE      CMP0MX
      000000A8H.1 SFRSYM    DATA     BIT       IE_ET0
      000000AAH   SFRSYM    DATA     BYTE      CMP1MX
      000000A8H.3 SFRSYM    DATA     BIT       IE_ET1
LX51 LINKER/LOCATER V4.66.30.0                                                        01/20/2020  14:03:40  PAGE 91


      000000D4H   SFRSYM    DATA     BYTE      P0SKIP
      000000A8H.5 SFRSYM    DATA     BIT       IE_ET2
      000000D5H   SFRSYM    DATA     BYTE      P1SKIP
      000000E8H   SFRSYM    DATA     BYTE      ADC0CN0
      000000A8H   SFRSYM    DATA     BIT       IE_EX0
      000000B2H   SFRSYM    DATA     BYTE      ADC0CN1
      000000D8H.6 SFRSYM    DATA     BIT       PCA0CN0_CR
      000000A8H.2 SFRSYM    DATA     BIT       IE_EX1
      00000098H.7 SFRSYM    DATA     BIT       SCON0_SMODE
      000000B5H   SFRSYM    DATA     BYTE      DEVICEID
      000000A9H   SFRSYM    DATA     BYTE      CLKSEL
      000000F8H   SFRSYM    DATA     BIT       SPI0CN0_SPIEN
      000000F0H   SFRSYM    DATA     BYTE      B
      000000BEH   SFRSYM    DATA     BYTE      ADC0H
      000000D2H   SFRSYM    DATA     BYTE      CRC0AUTO
      000000E8H.6 SFRSYM    DATA     BIT       ADC0CN0_ADBMEN
      000000CAH   SFRSYM    DATA     WORD      TMR2RL
      000000BDH   SFRSYM    DATA     BYTE      ADC0L
      00000092H   SFRSYM    DATA     WORD      TMR3RL
      000000D8H   SFRSYM    DATA     BYTE      PCA0CN0
      000000E0H   SFRSYM    DATA     BYTE      ACC
      000000FBH   SFRSYM    DATA     WORD      PCA0CP0
      000000E9H   SFRSYM    DATA     WORD      PCA0CP1
      000000EBH   SFRSYM    DATA     WORD      PCA0CP2
      000000CEH   SFRSYM    DATA     BYTE      CRC0CN0
      00000090H.4 SFRSYM    DATA     BIT       BSP_LED0
      0000008CH   SFRSYM    DATA     BYTE      TH0
      000000B8H.4 SFRSYM    DATA     BIT       IP_PS0
      0000008DH   SFRSYM    DATA     BYTE      TH1
      000000FAH   SFRSYM    DATA     BYTE      PCA0H
      000000B8H.1 SFRSYM    DATA     BIT       IP_PT0
      000000B8H.3 SFRSYM    DATA     BIT       IP_PT1
      000000C0H.2 SFRSYM    DATA     BIT       SMB0CN0_ARBLOST
      000000B8H.5 SFRSYM    DATA     BIT       IP_PT2
      0000008AH   SFRSYM    DATA     BYTE      TL0
      000000F8H.1 SFRSYM    DATA     BIT       SPI0CN0_TXBMT
      000000D0H.5 SFRSYM    DATA     BIT       PSW_F0
      000000A8H.6 SFRSYM    DATA     BIT       IE_ESPI0
      0000008BH   SFRSYM    DATA     BYTE      TL1
      000000F9H   SFRSYM    DATA     BYTE      PCA0L
      000000C0H   SFRSYM    DATA     BIT       SMB0CN0_SI
      000000D0H.1 SFRSYM    DATA     BIT       PSW_F1
      00000080H   SFRSYM    DATA     BIT       P0_B0
      000000B8H   SFRSYM    DATA     BIT       IP_PX0
      00000090H   SFRSYM    DATA     BIT       P1_B0
      00000080H.1 SFRSYM    DATA     BIT       P0_B1
      000000B8H.2 SFRSYM    DATA     BIT       IP_PX1
      0000009BH   SFRSYM    DATA     BYTE      CMP0CN0
      00000088H.1 SFRSYM    DATA     BIT       TCON_IE0
      000000A0H   SFRSYM    DATA     BIT       P2_B0
      00000090H.1 SFRSYM    DATA     BIT       P1_B1
      00000080H.2 SFRSYM    DATA     BIT       P0_B2
      000000BFH   SFRSYM    DATA     BYTE      CMP1CN0
      00000088H.3 SFRSYM    DATA     BIT       TCON_IE1
      000000A0H.1 SFRSYM    DATA     BIT       P2_B1
      00000090H.2 SFRSYM    DATA     BIT       P1_B2
      00000080H.3 SFRSYM    DATA     BIT       P0_B3
      000000C0H   SFRSYM    DATA     BYTE      SMB0CN0
      00000090H.3 SFRSYM    DATA     BIT       P1_B3
      00000080H.4 SFRSYM    DATA     BIT       P0_B4
      00000090H.4 SFRSYM    DATA     BIT       P1_B4
      00000080H.5 SFRSYM    DATA     BIT       P0_B5
LX51 LINKER/LOCATER V4.66.30.0                                                        01/20/2020  14:03:40  PAGE 92


      00000090H.5 SFRSYM    DATA     BIT       P1_B5
      00000080H.6 SFRSYM    DATA     BIT       P0_B6
      00000090H.6 SFRSYM    DATA     BIT       P1_B6
      00000080H.7 SFRSYM    DATA     BIT       P0_B7
      00000090H.7 SFRSYM    DATA     BIT       P1_B7
      00000080H.2 SFRSYM    DATA     BIT       BSP_BTN0
      00000083H   SFRSYM    DATA     BYTE      DPH
      000000C4H   SFRSYM    DATA     BYTE      ADC0GTH
      000000C8H.7 SFRSYM    DATA     BIT       TMR2CN0_TF2H
      000000C8H.3 SFRSYM    DATA     BIT       TMR2CN0_T2SPLIT
      000000D0H.6 SFRSYM    DATA     BIT       PSW_AC
      000000F8H   SFRSYM    DATA     BYTE      SPI0CN0
      000000C7H   SFRSYM    DATA     BYTE      HFO0CAL
      00000088H.5 SFRSYM    DATA     BIT       TCON_TF0
      00000098H   SFRSYM    DATA     BIT       SCON0_RI
      00000082H   SFRSYM    DATA     BYTE      DPL
      00000088H.7 SFRSYM    DATA     BIT       TCON_TF1
      00000099H   SFRSYM    DATA     BYTE      SBUF0
      00000087H   SFRSYM    DATA     BYTE      PCON0
      000000C3H   SFRSYM    DATA     BYTE      ADC0GTL
      000000C8H.6 SFRSYM    DATA     BIT       TMR2CN0_TF2L
      00000098H.1 SFRSYM    DATA     BIT       SCON0_TI
      000000E8H   SFRSYM    DATA     BIT       ADC0CN0_ADCM0
      000000C6H   SFRSYM    DATA     BYTE      ADC0LTH
      00000088H   SFRSYM    DATA     BIT       TCON_IT0
      000000E8H.1 SFRSYM    DATA     BIT       ADC0CN0_ADCM1
      000000EFH   SFRSYM    DATA     BYTE      RSTSRC
      000000FDH   SFRSYM    DATA     BYTE      P0MAT
      000000DEH   SFRSYM    DATA     BYTE      CRC0DAT
      00000088H.2 SFRSYM    DATA     BIT       TCON_IT1
      000000E8H.2 SFRSYM    DATA     BIT       ADC0CN0_ADCM2
      00000098H   SFRSYM    DATA     BYTE      SCON0
      000000F6H   SFRSYM    DATA     BYTE      PRTDRV
      000000EDH   SFRSYM    DATA     BYTE      P1MAT
      000000E8H.3 SFRSYM    DATA     BIT       ADC0CN0_ADWINT
      000000E8H.4 SFRSYM    DATA     BIT       ADC0CN0_ADBUSY
      000000D6H   SFRSYM    DATA     BYTE      SMB0ADM
      000000C5H   SFRSYM    DATA     BYTE      ADC0LTL
      000000F8H.5 SFRSYM    DATA     BIT       SPI0CN0_MODF
      000000B8H.6 SFRSYM    DATA     BIT       IP_PSPI0
      0000009CH   SFRSYM    DATA     BYTE      PCA0CLR
      000000C8H   SFRSYM    DATA     BYTE      TMR2CN0
      00000091H   SFRSYM    DATA     BYTE      TMR3CN0
      000000D7H   SFRSYM    DATA     BYTE      SMB0ADR
      00000088H.4 SFRSYM    DATA     BIT       TCON_TR0
      000000C8H.4 SFRSYM    DATA     BIT       TMR2CN0_TF2CEN
      00000088H.6 SFRSYM    DATA     BIT       TCON_TR1
      000000C2H   SFRSYM    DATA     BYTE      SMB0DAT
      000000CDH   SFRSYM    DATA     BYTE      TMR2H
      000000A1H   SFRSYM    DATA     BYTE      SPI0CFG
      00000095H   SFRSYM    DATA     BYTE      TMR3H
      000000D3H   SFRSYM    DATA     BYTE      CRC0CNT
      00000096H   SFRSYM    DATA     BYTE      PCA0POL
      000000CCH   SFRSYM    DATA     BYTE      TMR2L
      000000F8H.7 SFRSYM    DATA     BIT       SPI0CN0_SPIF
      00000094H   SFRSYM    DATA     BYTE      TMR3L
      000000DFH   SFRSYM    DATA     BYTE      ADC0PWR
      000000A8H.7 SFRSYM    DATA     BIT       IE_EA
      000000C8H.5 SFRSYM    DATA     BIT       TMR2CN0_TF2LEN
      000000F8H.6 SFRSYM    DATA     BIT       SPI0CN0_WCOL
      000000F8H.2 SFRSYM    DATA     BIT       SPI0CN0_NSSMD0
      000000D0H.7 SFRSYM    DATA     BIT       PSW_CY
LX51 LINKER/LOCATER V4.66.30.0                                                        01/20/2020  14:03:40  PAGE 93


      000000A3H   SFRSYM    DATA     BYTE      SPI0DAT
      000000F8H.3 SFRSYM    DATA     BIT       SPI0CN0_NSSMD1
      000000BDH   SFRSYM    DATA     WORD      ADC0
      000000D0H   SFRSYM    DATA     BYTE      PSW
      000000F7H   SFRSYM    DATA     BYTE      PCA0PWM
      000000B6H   SFRSYM    DATA     BYTE      REVID
      000000B7H   SFRSYM    DATA     BYTE      FLKEY
      000000B3H   SFRSYM    DATA     BYTE      ADC0AC
      02000089H   SYMBOL    XDATA    WORD      pot_reading
      00000022H.3 SYMBOL    BIT      BIT       speed_ctrl_by_pc
      00000022H.4 SYMBOL    BIT      BIT       start_by_pc
      00000068H   SYMBOL    DATA     WORD      prev_target_rpm
      0200008BH   SYMBOL    XDATA    WORD      read_speed_interval

      0100167DH   BLOCK     CODE     ---       LVL=0
      0100167DH   LINE      CODE     ---       #55
      0100167DH   LINE      CODE     ---       #56
      0100167DH   LINE      CODE     ---       #57
      01001686H   LINE      CODE     ---       #58
      01001690H   LINE      CODE     ---       #59
      0100169AH   LINE      CODE     ---       #60
      010016A7H   LINE      CODE     ---       #61
      010016A9H   LINE      CODE     ---       #62
      010016ABH   LINE      CODE     ---       #64
      010016B0H   LINE      CODE     ---       #66
      010016B6H   LINE      CODE     ---       #67
      010016BCH   LINE      CODE     ---       #72
      ---         BLOCKEND  ---      ---       LVL=0

      01000D54H   BLOCK     CODE     ---       LVL=0
      01000D54H   BLOCK     CODE     NEAR LAB  LVL=1
      0200006DH   SYMBOL    XDATA    WORD      Pg
      0200006FH   SYMBOL    XDATA    WORD      Ig
      00000065H   SYMBOL    DATA     BYTE      last_report
      00000057H   SYMBOL    DATA     BYTE      tmp
      00000021H.3 SYMBOL    BIT      BIT       run_dir
      ---         BLOCKEND  ---      ---       LVL=1
      01000D54H   LINE      CODE     ---       #85
      01000D54H   LINE      CODE     ---       #86
      01000D54H   LINE      CODE     ---       #96
      01000D57H   LINE      CODE     ---       #98
      01000D5CH   LINE      CODE     ---       #99
      01000D64H   LINE      CODE     ---       #100
      01000D64H   LINE      CODE     ---       #101
      01000D6BH   LINE      CODE     ---       #102
      01000D6BH   LINE      CODE     ---       #103
      01000D6EH   LINE      CODE     ---       #104
      01000D6EH   LINE      CODE     ---       #105
      01000D74H   LINE      CODE     ---       #106
      01000D74H   LINE      CODE     ---       #111
      01000D77H   LINE      CODE     ---       #112
      01000D77H   LINE      CODE     ---       #114
      01000D7BH   LINE      CODE     ---       #115
      01000D7BH   LINE      CODE     ---       #117
      01000D7DH   LINE      CODE     ---       #118
      01000D7DH   LINE      CODE     ---       #120
      01000D80H   LINE      CODE     ---       #127
      01000D8CH   LINE      CODE     ---       #129
      01000D8CH   LINE      CODE     ---       #130
      01000D8EH   LINE      CODE     ---       #131
      01000D8EH   LINE      CODE     ---       #135
      01000D91H   LINE      CODE     ---       #140
LX51 LINKER/LOCATER V4.66.30.0                                                        01/20/2020  14:03:40  PAGE 94


      01000D9BH   LINE      CODE     ---       #141
      01000DA5H   LINE      CODE     ---       #142
      01000DB2H   LINE      CODE     ---       #143
      01000DBEH   LINE      CODE     ---       #153
      01000DCBH   LINE      CODE     ---       #154
      01000DDAH   LINE      CODE     ---       #155
      01000DE5H   LINE      CODE     ---       #157
      01000DE7H   LINE      CODE     ---       #158
      01000DEDH   LINE      CODE     ---       #159
      01000DEDH   LINE      CODE     ---       #161
      01000DF7H   LINE      CODE     ---       #166
      01000DF7H   LINE      CODE     ---       #167
      01000DFAH   LINE      CODE     ---       #174
      01000DFAH   LINE      CODE     ---       #175
      01000DFAH   LINE      CODE     ---       #177
      01000DFFH   LINE      CODE     ---       #178
      01000E0AH   LINE      CODE     ---       #179
      01000E0AH   LINE      CODE     ---       #180
      01000E0CH   LINE      CODE     ---       #181
      01000E1BH   LINE      CODE     ---       #183
      01000E26H   LINE      CODE     ---       #184
      01000E30H   LINE      CODE     ---       #185
      01000E3CH   LINE      CODE     ---       #187
      01000E3CH   LINE      CODE     ---       #191
      01000E3FH   LINE      CODE     ---       #195
      01000E4EH   LINE      CODE     ---       #201
      ---         BLOCKEND  ---      ---       LVL=0

      01001812H   BLOCK     CODE     ---       LVL=0
      01001812H   BLOCK     CODE     NEAR LAB  LVL=1
      00000022H.2 SYMBOL    BIT      BIT       wait_release
      ---         BLOCKEND  ---      ---       LVL=1
      01001812H   LINE      CODE     ---       #216
      01001812H   LINE      CODE     ---       #217
      01001812H   LINE      CODE     ---       #220
      01001815H   LINE      CODE     ---       #221
      01001815H   LINE      CODE     ---       #222
      01001818H   LINE      CODE     ---       #223
      01001818H   LINE      CODE     ---       #224
      0100181AH   LINE      CODE     ---       #225
      0100181AH   LINE      CODE     ---       #226
      0100181CH   LINE      CODE     ---       #227
      01001829H   LINE      CODE     ---       #228
      01001829H   LINE      CODE     ---       #229
      0100182BH   LINE      CODE     ---       #230
      01001837H   LINE      CODE     ---       #232
      01001839H   LINE      CODE     ---       #233
      01001839H   LINE      CODE     ---       #235
      01001843H   LINE      CODE     ---       #236
      ---         BLOCKEND  ---      ---       LVL=0

      01000E5DH   BLOCK     CODE     ---       LVL=0
      01000E5DH   BLOCK     CODE     NEAR LAB  LVL=1
      00000066H   SYMBOL    DATA     WORD      last_read_speed_time
      00000058H   SYMBOL    DATA     WORD      temp
      ---         BLOCKEND  ---      ---       LVL=1
      01000E5DH   LINE      CODE     ---       #251
      01000E5DH   LINE      CODE     ---       #252
      01000E5DH   LINE      CODE     ---       #258
      01000E79H   LINE      CODE     ---       #259
      01000E79H   LINE      CODE     ---       #261
      01000E79H   LINE      CODE     ---       #262
LX51 LINKER/LOCATER V4.66.30.0                                                        01/20/2020  14:03:40  PAGE 95


      01000E80H   LINE      CODE     ---       #264
      01000E88H   LINE      CODE     ---       #265
      01000E88H   LINE      CODE     ---       #267
      01000E91H   LINE      CODE     ---       #268
      01000E9DH   LINE      CODE     ---       #269
      01000E9DH   LINE      CODE     ---       #270
      01000EA5H   LINE      CODE     ---       #271
      01000EA5H   LINE      CODE     ---       #273
      01000EA7H   LINE      CODE     ---       #276
      01000EB2H   LINE      CODE     ---       #277
      01000EB4H   LINE      CODE     ---       #279
      01000EB4H   LINE      CODE     ---       #280
      01000EBAH   LINE      CODE     ---       #281
      01000EBAH   LINE      CODE     ---       #282
      01000EBCH   LINE      CODE     ---       #283
      01000EBCH   LINE      CODE     ---       #284
      01000EBCH   LINE      CODE     ---       #287
      01000EC6H   LINE      CODE     ---       #289
      01000ED3H   LINE      CODE     ---       #291
      01000EDFH   LINE      CODE     ---       #293
      01000EFAH   LINE      CODE     ---       #294
      01000F0EH   LINE      CODE     ---       #295
      01000F12H   LINE      CODE     ---       #296
      01000F1AH   LINE      CODE     ---       #297
      01000F1AH   LINE      CODE     ---       #298
      01000F24H   LINE      CODE     ---       #299
      01000F24H   LINE      CODE     ---       #301
      01000F27H   LINE      CODE     ---       #302
      01000F27H   LINE      CODE     ---       #304
      01000F31H   LINE      CODE     ---       #306
      01000F3CH   LINE      CODE     ---       #307
      01000F3CH   LINE      CODE     ---       #371
      ---         BLOCKEND  ---      ---       LVL=0

      ---         MODULE    ---      ---       MTRPID
      00000022H.6 PUBLIC    BIT      BIT       pid_done
      01001AD6H   PUBLIC    CODE     ---       MTR_pid_compute_newpwm
      01001A5CH   PUBLIC    CODE     ---       MTR_pid_init
      01001AA8H   PUBLIC    CODE     ---       _SL_MTR_change_pid_gain
      000000A2H   SFRSYM    DATA     BYTE      SPI0CKR
      00000080H   SFRSYM    DATA     BYTE      P0
      000000D0H.2 SFRSYM    DATA     BIT       PSW_OV
      00000090H   SFRSYM    DATA     BYTE      P1
      00000097H   SFRSYM    DATA     BYTE      WDTCN
      000000A0H   SFRSYM    DATA     BYTE      P2
      000000BCH   SFRSYM    DATA     BYTE      ADC0CF
      000000C8H   SFRSYM    DATA     BIT       TMR2CN0_T2XCLK
      000000C0H.7 SFRSYM    DATA     BIT       SMB0CN0_MASTER
      000000F9H   SFRSYM    DATA     WORD      PCA0
      000000E6H   SFRSYM    DATA     BYTE      EIE1
      000000C0H.1 SFRSYM    DATA     BIT       SMB0CN0_ACK
      0000008FH   SFRSYM    DATA     BYTE      PSCTL
      000000E4H   SFRSYM    DATA     BYTE      IT01CF
      000000C0H.6 SFRSYM    DATA     BIT       SMB0CN0_TXMODE
      000000ADH   SFRSYM    DATA     BYTE      DERIVID
      000000A4H   SFRSYM    DATA     BYTE      P0MDOUT
      000000A5H   SFRSYM    DATA     BYTE      P1MDOUT
      000000E8H.5 SFRSYM    DATA     BIT       ADC0CN0_ADINT
      000000CBH   SFRSYM    DATA     BYTE      TMR2RLH
      000000A6H   SFRSYM    DATA     BYTE      P2MDOUT
      000000A8H   SFRSYM    DATA     BYTE      IE
      00000093H   SFRSYM    DATA     BYTE      TMR3RLH
LX51 LINKER/LOCATER V4.66.30.0                                                        01/20/2020  14:03:40  PAGE 96


      000000F3H   SFRSYM    DATA     BYTE      EIP1
      00000098H.2 SFRSYM    DATA     BIT       SCON0_RB8
      000000CAH   SFRSYM    DATA     BYTE      TMR2RLL
      000000FCH   SFRSYM    DATA     BYTE      PCA0CPH0
      00000092H   SFRSYM    DATA     BYTE      TMR3RLL
      000000EAH   SFRSYM    DATA     BYTE      PCA0CPH1
      00000098H.3 SFRSYM    DATA     BIT       SCON0_TB8
      000000F0H   SFRSYM    DATA     BIT       B_B0
      00000082H   SFRSYM    DATA     WORD      DP
      000000ECH   SFRSYM    DATA     BYTE      PCA0CPH2
      000000A0H.1 SFRSYM    DATA     BIT       BTN0
      000000F0H.1 SFRSYM    DATA     BIT       B_B1
      000000C3H   SFRSYM    DATA     WORD      ADC0GT
      00000090H.1 SFRSYM    DATA     BIT       BTN1
      000000F0H.2 SFRSYM    DATA     BIT       B_B2
      000000FBH   SFRSYM    DATA     BYTE      PCA0CPL0
      000000F0H.3 SFRSYM    DATA     BIT       B_B3
      000000D9H   SFRSYM    DATA     BYTE      PCA0MD
      000000DAH   SFRSYM    DATA     BYTE      PCA0CPM0
      000000E9H   SFRSYM    DATA     BYTE      PCA0CPL1
      000000F0H.4 SFRSYM    DATA     BIT       B_B4
      000000DBH   SFRSYM    DATA     BYTE      PCA0CPM1
      000000EBH   SFRSYM    DATA     BYTE      PCA0CPL2
      000000F0H.5 SFRSYM    DATA     BIT       B_B5
      000000DCH   SFRSYM    DATA     BYTE      PCA0CPM2
      000000B8H   SFRSYM    DATA     BYTE      IP
      000000B9H   SFRSYM    DATA     BYTE      ADC0TK
      000000F0H.6 SFRSYM    DATA     BIT       B_B6
      000000C5H   SFRSYM    DATA     WORD      ADC0LT
      00000098H.5 SFRSYM    DATA     BIT       SCON0_MCE
      000000F0H.7 SFRSYM    DATA     BIT       B_B7
      000000E1H   SFRSYM    DATA     BYTE      XBR0
      000000C1H   SFRSYM    DATA     BYTE      SMB0CF
      000000E2H   SFRSYM    DATA     BYTE      XBR1
      000000C0H.5 SFRSYM    DATA     BIT       SMB0CN0_STA
      000000E3H   SFRSYM    DATA     BYTE      XBR2
      000000BBH   SFRSYM    DATA     BYTE      ADC0MX
      000000E0H   SFRSYM    DATA     BIT       ACC_ACC0
      000000D1H   SFRSYM    DATA     BYTE      REF0CN
      0000008EH   SFRSYM    DATA     BYTE      CKCON0
      000000E0H.1 SFRSYM    DATA     BIT       ACC_ACC1
      000000C9H   SFRSYM    DATA     BYTE      REG0CN
      000000DDH   SFRSYM    DATA     BYTE      CRC0IN
      000000C8H.2 SFRSYM    DATA     BIT       TMR2CN0_TR2
      000000E0H.2 SFRSYM    DATA     BIT       ACC_ACC2
      000000E0H.3 SFRSYM    DATA     BIT       ACC_ACC3
      00000081H   SFRSYM    DATA     BYTE      SP
      0000009DH   SFRSYM    DATA     BYTE      CMP0MD
      000000E0H.4 SFRSYM    DATA     BIT       ACC_ACC4
      000000B1H   SFRSYM    DATA     BYTE      LFO0CN
      000000ABH   SFRSYM    DATA     BYTE      CMP1MD
      000000D8H   SFRSYM    DATA     BIT       PCA0CN0_CCF0
      000000E0H.5 SFRSYM    DATA     BIT       ACC_ACC5
      000000D8H.1 SFRSYM    DATA     BIT       PCA0CN0_CCF1
      000000E0H.6 SFRSYM    DATA     BIT       ACC_ACC6
      000000CCH   SFRSYM    DATA     WORD      TMR2
      000000D8H.2 SFRSYM    DATA     BIT       PCA0CN0_CCF2
      000000E0H.7 SFRSYM    DATA     BIT       ACC_ACC7
      00000094H   SFRSYM    DATA     WORD      TMR3
      000000C0H.3 SFRSYM    DATA     BIT       SMB0CN0_ACKRQ
      000000FFH   SFRSYM    DATA     BYTE      VDM0CN
      000000F1H   SFRSYM    DATA     BYTE      P0MDIN
LX51 LINKER/LOCATER V4.66.30.0                                                        01/20/2020  14:03:40  PAGE 97


      00000098H.4 SFRSYM    DATA     BIT       SCON0_REN
      000000ACH   SFRSYM    DATA     BYTE      SMB0TC
      000000F2H   SFRSYM    DATA     BYTE      P1MDIN
      000000C0H.4 SFRSYM    DATA     BIT       SMB0CN0_STO
      000000FEH   SFRSYM    DATA     BYTE      P0MASK
      000000EEH   SFRSYM    DATA     BYTE      P1MASK
      000000D0H.3 SFRSYM    DATA     BIT       PSW_RS0
      000000D8H.7 SFRSYM    DATA     BIT       PCA0CN0_CF
      0000009EH   SFRSYM    DATA     BYTE      PCA0CENT
      000000F8H.4 SFRSYM    DATA     BIT       SPI0CN0_RXOVRN
      000000D0H.4 SFRSYM    DATA     BIT       PSW_RS1
      000000E8H.7 SFRSYM    DATA     BIT       ADC0CN0_ADEN
      00000089H   SFRSYM    DATA     BYTE      TMOD
      00000088H   SFRSYM    DATA     BYTE      TCON
      000000CFH   SFRSYM    DATA     BYTE      CRC0FLIP
      000000D0H   SFRSYM    DATA     BIT       PSW_PARITY
      000000A8H.4 SFRSYM    DATA     BIT       IE_ES0
      0000009FH   SFRSYM    DATA     BYTE      CMP0MX
      000000A8H.1 SFRSYM    DATA     BIT       IE_ET0
      000000AAH   SFRSYM    DATA     BYTE      CMP1MX
      000000A8H.3 SFRSYM    DATA     BIT       IE_ET1
      000000D4H   SFRSYM    DATA     BYTE      P0SKIP
      000000A8H.5 SFRSYM    DATA     BIT       IE_ET2
      000000D5H   SFRSYM    DATA     BYTE      P1SKIP
      000000E8H   SFRSYM    DATA     BYTE      ADC0CN0
      000000A8H   SFRSYM    DATA     BIT       IE_EX0
      000000B2H   SFRSYM    DATA     BYTE      ADC0CN1
      000000D8H.6 SFRSYM    DATA     BIT       PCA0CN0_CR
      000000A8H.2 SFRSYM    DATA     BIT       IE_EX1
      00000098H.7 SFRSYM    DATA     BIT       SCON0_SMODE
      000000B5H   SFRSYM    DATA     BYTE      DEVICEID
      000000A9H   SFRSYM    DATA     BYTE      CLKSEL
      000000F8H   SFRSYM    DATA     BIT       SPI0CN0_SPIEN
      000000F0H   SFRSYM    DATA     BYTE      B
      000000BEH   SFRSYM    DATA     BYTE      ADC0H
      000000D2H   SFRSYM    DATA     BYTE      CRC0AUTO
      000000E8H.6 SFRSYM    DATA     BIT       ADC0CN0_ADBMEN
      000000CAH   SFRSYM    DATA     WORD      TMR2RL
      000000BDH   SFRSYM    DATA     BYTE      ADC0L
      00000092H   SFRSYM    DATA     WORD      TMR3RL
      000000D8H   SFRSYM    DATA     BYTE      PCA0CN0
      000000E0H   SFRSYM    DATA     BYTE      ACC
      000000FBH   SFRSYM    DATA     WORD      PCA0CP0
      000000E9H   SFRSYM    DATA     WORD      PCA0CP1
      000000EBH   SFRSYM    DATA     WORD      PCA0CP2
      000000CEH   SFRSYM    DATA     BYTE      CRC0CN0
      00000090H.4 SFRSYM    DATA     BIT       BSP_LED0
      0000008CH   SFRSYM    DATA     BYTE      TH0
      000000B8H.4 SFRSYM    DATA     BIT       IP_PS0
      0000008DH   SFRSYM    DATA     BYTE      TH1
      000000FAH   SFRSYM    DATA     BYTE      PCA0H
      000000B8H.1 SFRSYM    DATA     BIT       IP_PT0
      000000B8H.3 SFRSYM    DATA     BIT       IP_PT1
      000000C0H.2 SFRSYM    DATA     BIT       SMB0CN0_ARBLOST
      000000B8H.5 SFRSYM    DATA     BIT       IP_PT2
      0000008AH   SFRSYM    DATA     BYTE      TL0
      000000F8H.1 SFRSYM    DATA     BIT       SPI0CN0_TXBMT
      000000D0H.5 SFRSYM    DATA     BIT       PSW_F0
      000000A8H.6 SFRSYM    DATA     BIT       IE_ESPI0
      0000008BH   SFRSYM    DATA     BYTE      TL1
      000000F9H   SFRSYM    DATA     BYTE      PCA0L
      000000C0H   SFRSYM    DATA     BIT       SMB0CN0_SI
LX51 LINKER/LOCATER V4.66.30.0                                                        01/20/2020  14:03:40  PAGE 98


      000000D0H.1 SFRSYM    DATA     BIT       PSW_F1
      00000080H   SFRSYM    DATA     BIT       P0_B0
      000000B8H   SFRSYM    DATA     BIT       IP_PX0
      00000090H   SFRSYM    DATA     BIT       P1_B0
      00000080H.1 SFRSYM    DATA     BIT       P0_B1
      000000B8H.2 SFRSYM    DATA     BIT       IP_PX1
      0000009BH   SFRSYM    DATA     BYTE      CMP0CN0
      00000088H.1 SFRSYM    DATA     BIT       TCON_IE0
      000000A0H   SFRSYM    DATA     BIT       P2_B0
      00000090H.1 SFRSYM    DATA     BIT       P1_B1
      00000080H.2 SFRSYM    DATA     BIT       P0_B2
      000000BFH   SFRSYM    DATA     BYTE      CMP1CN0
      00000088H.3 SFRSYM    DATA     BIT       TCON_IE1
      000000A0H.1 SFRSYM    DATA     BIT       P2_B1
      00000090H.2 SFRSYM    DATA     BIT       P1_B2
      00000080H.3 SFRSYM    DATA     BIT       P0_B3
      000000C0H   SFRSYM    DATA     BYTE      SMB0CN0
      00000090H.3 SFRSYM    DATA     BIT       P1_B3
      00000080H.4 SFRSYM    DATA     BIT       P0_B4
      00000090H.4 SFRSYM    DATA     BIT       P1_B4
      00000080H.5 SFRSYM    DATA     BIT       P0_B5
      00000090H.5 SFRSYM    DATA     BIT       P1_B5
      00000080H.6 SFRSYM    DATA     BIT       P0_B6
      00000090H.6 SFRSYM    DATA     BIT       P1_B6
      00000080H.7 SFRSYM    DATA     BIT       P0_B7
      00000090H.7 SFRSYM    DATA     BIT       P1_B7
      00000080H.2 SFRSYM    DATA     BIT       BSP_BTN0
      00000083H   SFRSYM    DATA     BYTE      DPH
      000000C4H   SFRSYM    DATA     BYTE      ADC0GTH
      000000C8H.7 SFRSYM    DATA     BIT       TMR2CN0_TF2H
      000000C8H.3 SFRSYM    DATA     BIT       TMR2CN0_T2SPLIT
      000000D0H.6 SFRSYM    DATA     BIT       PSW_AC
      000000F8H   SFRSYM    DATA     BYTE      SPI0CN0
      000000C7H   SFRSYM    DATA     BYTE      HFO0CAL
      00000088H.5 SFRSYM    DATA     BIT       TCON_TF0
      00000098H   SFRSYM    DATA     BIT       SCON0_RI
      00000082H   SFRSYM    DATA     BYTE      DPL
      00000088H.7 SFRSYM    DATA     BIT       TCON_TF1
      00000099H   SFRSYM    DATA     BYTE      SBUF0
      00000087H   SFRSYM    DATA     BYTE      PCON0
      000000C3H   SFRSYM    DATA     BYTE      ADC0GTL
      000000C8H.6 SFRSYM    DATA     BIT       TMR2CN0_TF2L
      00000098H.1 SFRSYM    DATA     BIT       SCON0_TI
      000000E8H   SFRSYM    DATA     BIT       ADC0CN0_ADCM0
      000000C6H   SFRSYM    DATA     BYTE      ADC0LTH
      00000088H   SFRSYM    DATA     BIT       TCON_IT0
      000000E8H.1 SFRSYM    DATA     BIT       ADC0CN0_ADCM1
      000000EFH   SFRSYM    DATA     BYTE      RSTSRC
      000000FDH   SFRSYM    DATA     BYTE      P0MAT
      000000DEH   SFRSYM    DATA     BYTE      CRC0DAT
      00000088H.2 SFRSYM    DATA     BIT       TCON_IT1
      000000E8H.2 SFRSYM    DATA     BIT       ADC0CN0_ADCM2
      00000098H   SFRSYM    DATA     BYTE      SCON0
      000000F6H   SFRSYM    DATA     BYTE      PRTDRV
      000000EDH   SFRSYM    DATA     BYTE      P1MAT
      000000E8H.3 SFRSYM    DATA     BIT       ADC0CN0_ADWINT
      000000E8H.4 SFRSYM    DATA     BIT       ADC0CN0_ADBUSY
      000000D6H   SFRSYM    DATA     BYTE      SMB0ADM
      000000C5H   SFRSYM    DATA     BYTE      ADC0LTL
      000000F8H.5 SFRSYM    DATA     BIT       SPI0CN0_MODF
      000000B8H.6 SFRSYM    DATA     BIT       IP_PSPI0
      0000009CH   SFRSYM    DATA     BYTE      PCA0CLR
LX51 LINKER/LOCATER V4.66.30.0                                                        01/20/2020  14:03:40  PAGE 99


      000000C8H   SFRSYM    DATA     BYTE      TMR2CN0
      00000091H   SFRSYM    DATA     BYTE      TMR3CN0
      000000D7H   SFRSYM    DATA     BYTE      SMB0ADR
      00000088H.4 SFRSYM    DATA     BIT       TCON_TR0
      000000C8H.4 SFRSYM    DATA     BIT       TMR2CN0_TF2CEN
      00000088H.6 SFRSYM    DATA     BIT       TCON_TR1
      000000C2H   SFRSYM    DATA     BYTE      SMB0DAT
      000000CDH   SFRSYM    DATA     BYTE      TMR2H
      000000A1H   SFRSYM    DATA     BYTE      SPI0CFG
      00000095H   SFRSYM    DATA     BYTE      TMR3H
      000000D3H   SFRSYM    DATA     BYTE      CRC0CNT
      00000096H   SFRSYM    DATA     BYTE      PCA0POL
      000000CCH   SFRSYM    DATA     BYTE      TMR2L
      000000F8H.7 SFRSYM    DATA     BIT       SPI0CN0_SPIF
      00000094H   SFRSYM    DATA     BYTE      TMR3L
      000000DFH   SFRSYM    DATA     BYTE      ADC0PWR
      000000A8H.7 SFRSYM    DATA     BIT       IE_EA
      000000C8H.5 SFRSYM    DATA     BIT       TMR2CN0_TF2LEN
      000000F8H.6 SFRSYM    DATA     BIT       SPI0CN0_WCOL
      000000F8H.2 SFRSYM    DATA     BIT       SPI0CN0_NSSMD0
      000000D0H.7 SFRSYM    DATA     BIT       PSW_CY
      000000A3H   SFRSYM    DATA     BYTE      SPI0DAT
      000000F8H.3 SFRSYM    DATA     BIT       SPI0CN0_NSSMD1
      000000BDH   SFRSYM    DATA     WORD      ADC0
      000000D0H   SFRSYM    DATA     BYTE      PSW
      000000F7H   SFRSYM    DATA     BYTE      PCA0PWM
      000000B6H   SFRSYM    DATA     BYTE      REVID
      000000B7H   SFRSYM    DATA     BYTE      FLKEY
      000000B3H   SFRSYM    DATA     BYTE      ADC0AC
      02000079H   SYMBOL    XDATA    ---       tmpval
      0200007DH   SYMBOL    XDATA    ---       pidth
      0000001AH   SYMBOL    DATA     WORD      newpwm
      0200007FH   SYMBOL    XDATA    WORD      Ki
      02000081H   SYMBOL    XDATA    WORD      Kp
      0000001CH   SYMBOL    DATA     WORD      lastspeed
      010002FFH   SYMBOL    CODE     ---       MTR_pid_compute_thread
      0000001EH   SYMBOL    DATA     WORD      curspeed

      01001AA8H   BLOCK     CODE     ---       LVL=0
      00000006H   SYMBOL    DATA     WORD      proportion
      00000004H   SYMBOL    DATA     WORD      integral
      01001AA8H   LINE      CODE     ---       #42
      01001AA8H   LINE      CODE     ---       #43
      01001AA8H   LINE      CODE     ---       #44
      01001AB0H   LINE      CODE     ---       #45
      01001AB8H   LINE      CODE     ---       #46
      ---         BLOCKEND  ---      ---       LVL=0

      01001A5CH   BLOCK     CODE     ---       LVL=0
      01001A5CH   LINE      CODE     ---       #63
      01001A5CH   LINE      CODE     ---       #64
      01001A5CH   LINE      CODE     ---       #65
      01001A66H   LINE      CODE     ---       #66
      01001A68H   LINE      CODE     ---       #70
      01001A6FH   LINE      CODE     ---       #71
      ---         BLOCKEND  ---      ---       LVL=0

      01001AD6H   BLOCK     CODE     ---       LVL=0
      01001AD6H   LINE      CODE     ---       #87
      01001AD6H   LINE      CODE     ---       #88
      01001AD6H   LINE      CODE     ---       #89
      01001ADCH   LINE      CODE     ---       #91
LX51 LINKER/LOCATER V4.66.30.0                                                        01/20/2020  14:03:40  PAGE 100


      01001ADFH   LINE      CODE     ---       #93
      01001AE3H   LINE      CODE     ---       #94
      ---         BLOCKEND  ---      ---       LVL=0

      010002FFH   BLOCK     CODE     ---       LVL=0
      010002FFH   BLOCK     CODE     NEAR LAB  LVL=1
      00000058H   SYMBOL    DATA     CHAR      PT_YIELD_FLAG
      ---         BLOCKEND  ---      ---       LVL=1
      010002FFH   LINE      CODE     ---       #112
      010002FFH   LINE      CODE     ---       #113
      010002FFH   LINE      CODE     ---       #114
      01000327H   LINE      CODE     ---       #116
      01000327H   LINE      CODE     ---       #117
      01000327H   LINE      CODE     ---       #118
      01000336H   LINE      CODE     ---       #120
      01000338H   LINE      CODE     ---       #123
      01000342H   LINE      CODE     ---       #126
      0100037AH   LINE      CODE     ---       #128
      0100038CH   LINE      CODE     ---       #131
      010003EEH   LINE      CODE     ---       #133
      01000400H   LINE      CODE     ---       #136
      01000406H   LINE      CODE     ---       #139
      0100041FH   LINE      CODE     ---       #141
      01000428H   LINE      CODE     ---       #142
      01000428H   LINE      CODE     ---       #143
      0100043FH   LINE      CODE     ---       #144
      01000459H   LINE      CODE     ---       #145
      01000459H   LINE      CODE     ---       #146
      0100045FH   LINE      CODE     ---       #147
      01000461H   LINE      CODE     ---       #149
      01000461H   LINE      CODE     ---       #150
      0100046BH   LINE      CODE     ---       #151
      0100046BH   LINE      CODE     ---       #154
      01000476H   LINE      CODE     ---       #155
      01000476H   LINE      CODE     ---       #157
      01000477H   LINE      CODE     ---       #158
      01000479H   LINE      CODE     ---       #160
      01000479H   LINE      CODE     ---       #161
      01000486H   LINE      CODE     ---       #162
      01000486H   LINE      CODE     ---       #163
      01000488H   LINE      CODE     ---       #165
      01000488H   LINE      CODE     ---       #166
      010004A2H   LINE      CODE     ---       #167
      010004A2H   LINE      CODE     ---       #168
      010004A8H   LINE      CODE     ---       #169
      010004AAH   LINE      CODE     ---       #171
      010004AAH   LINE      CODE     ---       #172
      010004B4H   LINE      CODE     ---       #173
      010004B4H   LINE      CODE     ---       #174
      010004C0H   LINE      CODE     ---       #175
      010004CBH   LINE      CODE     ---       #176
      010004CBH   LINE      CODE     ---       #178
      010004D1H   LINE      CODE     ---       #179
      010004D1H   LINE      CODE     ---       #180
      010004D1H   LINE      CODE     ---       #181
      010004D3H   LINE      CODE     ---       #182
      010004D6H   LINE      CODE     ---       #183
      010004E1H   LINE      CODE     ---       #184
      ---         BLOCKEND  ---      ---       LVL=0

      ---         MODULE    ---      ---       PCA
      00000053H   PUBLIC    DATA     WORD      user_timer
LX51 LINKER/LOCATER V4.66.30.0                                                        01/20/2020  14:03:40  PAGE 101


      01000FE2H   PUBLIC    CODE     ---       _PCA_change_duty_cycle
      01001B4CH   PUBLIC    CODE     ---       PCA_enable_pwm
      01001B59H   PUBLIC    CODE     ---       PCA_set_initial_polarity
      000000A2H   SFRSYM    DATA     BYTE      SPI0CKR
      00000080H   SFRSYM    DATA     BYTE      P0
      000000D0H.2 SFRSYM    DATA     BIT       PSW_OV
      00000090H   SFRSYM    DATA     BYTE      P1
      00000097H   SFRSYM    DATA     BYTE      WDTCN
      000000A0H   SFRSYM    DATA     BYTE      P2
      000000BCH   SFRSYM    DATA     BYTE      ADC0CF
      000000C8H   SFRSYM    DATA     BIT       TMR2CN0_T2XCLK
      000000C0H.7 SFRSYM    DATA     BIT       SMB0CN0_MASTER
      000000F9H   SFRSYM    DATA     WORD      PCA0
      000000E6H   SFRSYM    DATA     BYTE      EIE1
      000000C0H.1 SFRSYM    DATA     BIT       SMB0CN0_ACK
      0000008FH   SFRSYM    DATA     BYTE      PSCTL
      000000E4H   SFRSYM    DATA     BYTE      IT01CF
      000000C0H.6 SFRSYM    DATA     BIT       SMB0CN0_TXMODE
      000000ADH   SFRSYM    DATA     BYTE      DERIVID
      000000A4H   SFRSYM    DATA     BYTE      P0MDOUT
      000000A5H   SFRSYM    DATA     BYTE      P1MDOUT
      000000E8H.5 SFRSYM    DATA     BIT       ADC0CN0_ADINT
      000000CBH   SFRSYM    DATA     BYTE      TMR2RLH
      000000A6H   SFRSYM    DATA     BYTE      P2MDOUT
      000000A8H   SFRSYM    DATA     BYTE      IE
      00000093H   SFRSYM    DATA     BYTE      TMR3RLH
      000000F3H   SFRSYM    DATA     BYTE      EIP1
      00000098H.2 SFRSYM    DATA     BIT       SCON0_RB8
      000000CAH   SFRSYM    DATA     BYTE      TMR2RLL
      000000FCH   SFRSYM    DATA     BYTE      PCA0CPH0
      00000092H   SFRSYM    DATA     BYTE      TMR3RLL
      000000EAH   SFRSYM    DATA     BYTE      PCA0CPH1
      00000098H.3 SFRSYM    DATA     BIT       SCON0_TB8
      000000F0H   SFRSYM    DATA     BIT       B_B0
      00000082H   SFRSYM    DATA     WORD      DP
      000000ECH   SFRSYM    DATA     BYTE      PCA0CPH2
      000000A0H.1 SFRSYM    DATA     BIT       BTN0
      000000F0H.1 SFRSYM    DATA     BIT       B_B1
      000000C3H   SFRSYM    DATA     WORD      ADC0GT
      00000090H.1 SFRSYM    DATA     BIT       BTN1
      000000F0H.2 SFRSYM    DATA     BIT       B_B2
      000000FBH   SFRSYM    DATA     BYTE      PCA0CPL0
      000000F0H.3 SFRSYM    DATA     BIT       B_B3
      000000D9H   SFRSYM    DATA     BYTE      PCA0MD
      000000DAH   SFRSYM    DATA     BYTE      PCA0CPM0
      000000E9H   SFRSYM    DATA     BYTE      PCA0CPL1
      000000F0H.4 SFRSYM    DATA     BIT       B_B4
      000000DBH   SFRSYM    DATA     BYTE      PCA0CPM1
      000000EBH   SFRSYM    DATA     BYTE      PCA0CPL2
      000000F0H.5 SFRSYM    DATA     BIT       B_B5
      000000DCH   SFRSYM    DATA     BYTE      PCA0CPM2
      000000B8H   SFRSYM    DATA     BYTE      IP
      000000B9H   SFRSYM    DATA     BYTE      ADC0TK
      000000F0H.6 SFRSYM    DATA     BIT       B_B6
      000000C5H   SFRSYM    DATA     WORD      ADC0LT
      00000098H.5 SFRSYM    DATA     BIT       SCON0_MCE
      000000F0H.7 SFRSYM    DATA     BIT       B_B7
      000000E1H   SFRSYM    DATA     BYTE      XBR0
      000000C1H   SFRSYM    DATA     BYTE      SMB0CF
      000000E2H   SFRSYM    DATA     BYTE      XBR1
      000000C0H.5 SFRSYM    DATA     BIT       SMB0CN0_STA
      000000E3H   SFRSYM    DATA     BYTE      XBR2
LX51 LINKER/LOCATER V4.66.30.0                                                        01/20/2020  14:03:40  PAGE 102


      000000BBH   SFRSYM    DATA     BYTE      ADC0MX
      000000E0H   SFRSYM    DATA     BIT       ACC_ACC0
      000000D1H   SFRSYM    DATA     BYTE      REF0CN
      0000008EH   SFRSYM    DATA     BYTE      CKCON0
      000000E0H.1 SFRSYM    DATA     BIT       ACC_ACC1
      000000C9H   SFRSYM    DATA     BYTE      REG0CN
      000000DDH   SFRSYM    DATA     BYTE      CRC0IN
      000000C8H.2 SFRSYM    DATA     BIT       TMR2CN0_TR2
      000000E0H.2 SFRSYM    DATA     BIT       ACC_ACC2
      000000E0H.3 SFRSYM    DATA     BIT       ACC_ACC3
      00000081H   SFRSYM    DATA     BYTE      SP
      0000009DH   SFRSYM    DATA     BYTE      CMP0MD
      000000E0H.4 SFRSYM    DATA     BIT       ACC_ACC4
      000000B1H   SFRSYM    DATA     BYTE      LFO0CN
      000000ABH   SFRSYM    DATA     BYTE      CMP1MD
      000000D8H   SFRSYM    DATA     BIT       PCA0CN0_CCF0
      000000E0H.5 SFRSYM    DATA     BIT       ACC_ACC5
      000000D8H.1 SFRSYM    DATA     BIT       PCA0CN0_CCF1
      000000E0H.6 SFRSYM    DATA     BIT       ACC_ACC6
      000000CCH   SFRSYM    DATA     WORD      TMR2
      000000D8H.2 SFRSYM    DATA     BIT       PCA0CN0_CCF2
      000000E0H.7 SFRSYM    DATA     BIT       ACC_ACC7
      00000094H   SFRSYM    DATA     WORD      TMR3
      000000C0H.3 SFRSYM    DATA     BIT       SMB0CN0_ACKRQ
      000000FFH   SFRSYM    DATA     BYTE      VDM0CN
      000000F1H   SFRSYM    DATA     BYTE      P0MDIN
      00000098H.4 SFRSYM    DATA     BIT       SCON0_REN
      000000ACH   SFRSYM    DATA     BYTE      SMB0TC
      000000F2H   SFRSYM    DATA     BYTE      P1MDIN
      000000C0H.4 SFRSYM    DATA     BIT       SMB0CN0_STO
      000000FEH   SFRSYM    DATA     BYTE      P0MASK
      000000EEH   SFRSYM    DATA     BYTE      P1MASK
      000000D0H.3 SFRSYM    DATA     BIT       PSW_RS0
      000000D8H.7 SFRSYM    DATA     BIT       PCA0CN0_CF
      0000009EH   SFRSYM    DATA     BYTE      PCA0CENT
      000000F8H.4 SFRSYM    DATA     BIT       SPI0CN0_RXOVRN
      000000D0H.4 SFRSYM    DATA     BIT       PSW_RS1
      000000E8H.7 SFRSYM    DATA     BIT       ADC0CN0_ADEN
      00000089H   SFRSYM    DATA     BYTE      TMOD
      00000088H   SFRSYM    DATA     BYTE      TCON
      000000CFH   SFRSYM    DATA     BYTE      CRC0FLIP
      000000D0H   SFRSYM    DATA     BIT       PSW_PARITY
      000000A8H.4 SFRSYM    DATA     BIT       IE_ES0
      0000009FH   SFRSYM    DATA     BYTE      CMP0MX
      000000A8H.1 SFRSYM    DATA     BIT       IE_ET0
      000000AAH   SFRSYM    DATA     BYTE      CMP1MX
      000000A8H.3 SFRSYM    DATA     BIT       IE_ET1
      000000D4H   SFRSYM    DATA     BYTE      P0SKIP
      000000A8H.5 SFRSYM    DATA     BIT       IE_ET2
      000000D5H   SFRSYM    DATA     BYTE      P1SKIP
      000000E8H   SFRSYM    DATA     BYTE      ADC0CN0
      000000A8H   SFRSYM    DATA     BIT       IE_EX0
      000000B2H   SFRSYM    DATA     BYTE      ADC0CN1
      000000D8H.6 SFRSYM    DATA     BIT       PCA0CN0_CR
      000000A8H.2 SFRSYM    DATA     BIT       IE_EX1
      00000098H.7 SFRSYM    DATA     BIT       SCON0_SMODE
      000000B5H   SFRSYM    DATA     BYTE      DEVICEID
      000000A9H   SFRSYM    DATA     BYTE      CLKSEL
      000000F8H   SFRSYM    DATA     BIT       SPI0CN0_SPIEN
      000000F0H   SFRSYM    DATA     BYTE      B
      000000BEH   SFRSYM    DATA     BYTE      ADC0H
      000000D2H   SFRSYM    DATA     BYTE      CRC0AUTO
LX51 LINKER/LOCATER V4.66.30.0                                                        01/20/2020  14:03:40  PAGE 103


      000000E8H.6 SFRSYM    DATA     BIT       ADC0CN0_ADBMEN
      000000CAH   SFRSYM    DATA     WORD      TMR2RL
      000000BDH   SFRSYM    DATA     BYTE      ADC0L
      00000092H   SFRSYM    DATA     WORD      TMR3RL
      000000D8H   SFRSYM    DATA     BYTE      PCA0CN0
      000000E0H   SFRSYM    DATA     BYTE      ACC
      000000FBH   SFRSYM    DATA     WORD      PCA0CP0
      000000E9H   SFRSYM    DATA     WORD      PCA0CP1
      000000EBH   SFRSYM    DATA     WORD      PCA0CP2
      000000CEH   SFRSYM    DATA     BYTE      CRC0CN0
      00000090H.4 SFRSYM    DATA     BIT       BSP_LED0
      0000008CH   SFRSYM    DATA     BYTE      TH0
      000000B8H.4 SFRSYM    DATA     BIT       IP_PS0
      0000008DH   SFRSYM    DATA     BYTE      TH1
      000000FAH   SFRSYM    DATA     BYTE      PCA0H
      000000B8H.1 SFRSYM    DATA     BIT       IP_PT0
      000000B8H.3 SFRSYM    DATA     BIT       IP_PT1
      000000C0H.2 SFRSYM    DATA     BIT       SMB0CN0_ARBLOST
      000000B8H.5 SFRSYM    DATA     BIT       IP_PT2
      0000008AH   SFRSYM    DATA     BYTE      TL0
      000000F8H.1 SFRSYM    DATA     BIT       SPI0CN0_TXBMT
      000000D0H.5 SFRSYM    DATA     BIT       PSW_F0
      000000A8H.6 SFRSYM    DATA     BIT       IE_ESPI0
      0000008BH   SFRSYM    DATA     BYTE      TL1
      000000F9H   SFRSYM    DATA     BYTE      PCA0L
      000000C0H   SFRSYM    DATA     BIT       SMB0CN0_SI
      000000D0H.1 SFRSYM    DATA     BIT       PSW_F1
      00000080H   SFRSYM    DATA     BIT       P0_B0
      000000B8H   SFRSYM    DATA     BIT       IP_PX0
      00000090H   SFRSYM    DATA     BIT       P1_B0
      00000080H.1 SFRSYM    DATA     BIT       P0_B1
      000000B8H.2 SFRSYM    DATA     BIT       IP_PX1
      0000009BH   SFRSYM    DATA     BYTE      CMP0CN0
      00000088H.1 SFRSYM    DATA     BIT       TCON_IE0
      000000A0H   SFRSYM    DATA     BIT       P2_B0
      00000090H.1 SFRSYM    DATA     BIT       P1_B1
      00000080H.2 SFRSYM    DATA     BIT       P0_B2
      000000BFH   SFRSYM    DATA     BYTE      CMP1CN0
      00000088H.3 SFRSYM    DATA     BIT       TCON_IE1
      000000A0H.1 SFRSYM    DATA     BIT       P2_B1
      00000090H.2 SFRSYM    DATA     BIT       P1_B2
      00000080H.3 SFRSYM    DATA     BIT       P0_B3
      000000C0H   SFRSYM    DATA     BYTE      SMB0CN0
      00000090H.3 SFRSYM    DATA     BIT       P1_B3
      00000080H.4 SFRSYM    DATA     BIT       P0_B4
      00000090H.4 SFRSYM    DATA     BIT       P1_B4
      00000080H.5 SFRSYM    DATA     BIT       P0_B5
      00000090H.5 SFRSYM    DATA     BIT       P1_B5
      00000080H.6 SFRSYM    DATA     BIT       P0_B6
      00000090H.6 SFRSYM    DATA     BIT       P1_B6
      00000080H.7 SFRSYM    DATA     BIT       P0_B7
      00000090H.7 SFRSYM    DATA     BIT       P1_B7
      00000080H.2 SFRSYM    DATA     BIT       BSP_BTN0
      00000083H   SFRSYM    DATA     BYTE      DPH
      000000C4H   SFRSYM    DATA     BYTE      ADC0GTH
      000000C8H.7 SFRSYM    DATA     BIT       TMR2CN0_TF2H
      000000C8H.3 SFRSYM    DATA     BIT       TMR2CN0_T2SPLIT
      000000D0H.6 SFRSYM    DATA     BIT       PSW_AC
      000000F8H   SFRSYM    DATA     BYTE      SPI0CN0
      000000C7H   SFRSYM    DATA     BYTE      HFO0CAL
      00000088H.5 SFRSYM    DATA     BIT       TCON_TF0
      00000098H   SFRSYM    DATA     BIT       SCON0_RI
LX51 LINKER/LOCATER V4.66.30.0                                                        01/20/2020  14:03:40  PAGE 104


      00000082H   SFRSYM    DATA     BYTE      DPL
      00000088H.7 SFRSYM    DATA     BIT       TCON_TF1
      00000099H   SFRSYM    DATA     BYTE      SBUF0
      00000087H   SFRSYM    DATA     BYTE      PCON0
      000000C3H   SFRSYM    DATA     BYTE      ADC0GTL
      000000C8H.6 SFRSYM    DATA     BIT       TMR2CN0_TF2L
      00000098H.1 SFRSYM    DATA     BIT       SCON0_TI
      000000E8H   SFRSYM    DATA     BIT       ADC0CN0_ADCM0
      000000C6H   SFRSYM    DATA     BYTE      ADC0LTH
      00000088H   SFRSYM    DATA     BIT       TCON_IT0
      000000E8H.1 SFRSYM    DATA     BIT       ADC0CN0_ADCM1
      000000EFH   SFRSYM    DATA     BYTE      RSTSRC
      000000FDH   SFRSYM    DATA     BYTE      P0MAT
      000000DEH   SFRSYM    DATA     BYTE      CRC0DAT
      00000088H.2 SFRSYM    DATA     BIT       TCON_IT1
      000000E8H.2 SFRSYM    DATA     BIT       ADC0CN0_ADCM2
      00000098H   SFRSYM    DATA     BYTE      SCON0
      000000F6H   SFRSYM    DATA     BYTE      PRTDRV
      000000EDH   SFRSYM    DATA     BYTE      P1MAT
      000000E8H.3 SFRSYM    DATA     BIT       ADC0CN0_ADWINT
      000000E8H.4 SFRSYM    DATA     BIT       ADC0CN0_ADBUSY
      000000D6H   SFRSYM    DATA     BYTE      SMB0ADM
      000000C5H   SFRSYM    DATA     BYTE      ADC0LTL
      000000F8H.5 SFRSYM    DATA     BIT       SPI0CN0_MODF
      000000B8H.6 SFRSYM    DATA     BIT       IP_PSPI0
      0000009CH   SFRSYM    DATA     BYTE      PCA0CLR
      000000C8H   SFRSYM    DATA     BYTE      TMR2CN0
      00000091H   SFRSYM    DATA     BYTE      TMR3CN0
      000000D7H   SFRSYM    DATA     BYTE      SMB0ADR
      00000088H.4 SFRSYM    DATA     BIT       TCON_TR0
      000000C8H.4 SFRSYM    DATA     BIT       TMR2CN0_TF2CEN
      00000088H.6 SFRSYM    DATA     BIT       TCON_TR1
      000000C2H   SFRSYM    DATA     BYTE      SMB0DAT
      000000CDH   SFRSYM    DATA     BYTE      TMR2H
      000000A1H   SFRSYM    DATA     BYTE      SPI0CFG
      00000095H   SFRSYM    DATA     BYTE      TMR3H
      000000D3H   SFRSYM    DATA     BYTE      CRC0CNT
      00000096H   SFRSYM    DATA     BYTE      PCA0POL
      000000CCH   SFRSYM    DATA     BYTE      TMR2L
      000000F8H.7 SFRSYM    DATA     BIT       SPI0CN0_SPIF
      00000094H   SFRSYM    DATA     BYTE      TMR3L
      000000DFH   SFRSYM    DATA     BYTE      ADC0PWR
      000000A8H.7 SFRSYM    DATA     BIT       IE_EA
      000000C8H.5 SFRSYM    DATA     BIT       TMR2CN0_TF2LEN
      000000F8H.6 SFRSYM    DATA     BIT       SPI0CN0_WCOL
      000000F8H.2 SFRSYM    DATA     BIT       SPI0CN0_NSSMD0
      000000D0H.7 SFRSYM    DATA     BIT       PSW_CY
      000000A3H   SFRSYM    DATA     BYTE      SPI0DAT
      000000F8H.3 SFRSYM    DATA     BIT       SPI0CN0_NSSMD1
      000000BDH   SFRSYM    DATA     WORD      ADC0
      000000D0H   SFRSYM    DATA     BYTE      PSW
      000000F7H   SFRSYM    DATA     BYTE      PCA0PWM
      000000B6H   SFRSYM    DATA     BYTE      REVID
      000000B7H   SFRSYM    DATA     BYTE      FLKEY
      000000B3H   SFRSYM    DATA     BYTE      ADC0AC

      01001B59H   BLOCK     CODE     ---       LVL=0
      01001B59H   LINE      CODE     ---       #48
      01001B59H   LINE      CODE     ---       #49
      01001B59H   LINE      CODE     ---       #50
      01001B5CH   LINE      CODE     ---       #51
      ---         BLOCKEND  ---      ---       LVL=0
LX51 LINKER/LOCATER V4.66.30.0                                                        01/20/2020  14:03:40  PAGE 105



      01001B4CH   BLOCK     CODE     ---       LVL=0
      01001B4CH   LINE      CODE     ---       #61
      01001B4CH   LINE      CODE     ---       #62
      01001B4CH   LINE      CODE     ---       #64
      01001B4FH   LINE      CODE     ---       #65
      01001B52H   LINE      CODE     ---       #66
      ---         BLOCKEND  ---      ---       LVL=0

      01000FE2H   BLOCK     CODE     ---       LVL=0
      00000002H   SYMBOL    DATA     WORD      duty
      01000FE6H   BLOCK     CODE     NEAR LAB  LVL=1
      0000004CH   SYMBOL    DATA     WORD      prev_duty
      0000004EH   SYMBOL    DATA     ---       new_duty
      00000050H   SYMBOL    DATA     ---       new_cpblank_duty
      00000052H   SYMBOL    DATA     BYTE      new_polarity
      00000021H.6 SYMBOL    BIT      BIT       saved_IE_EA
      00000004H   SYMBOL    DATA     WORD      ringing
      00000022H.7 SYMBOL    BIT      BIT       enable_during_pwmon
      00000001H   SYMBOL    DATA     BYTE      x_new_polarity
      0000005CH   SYMBOL    DATA     ---       x_new_cpblank_duty
      ---         BLOCKEND  ---      ---       LVL=1
      01000FE2H   LINE      CODE     ---       #104
      01000FE6H   LINE      CODE     ---       #105
      01000FE6H   LINE      CODE     ---       #119
      01000FF3H   LINE      CODE     ---       #120
      01000FFCH   LINE      CODE     ---       #121
      01000FFCH   LINE      CODE     ---       #123
      01000FFCH   LINE      CODE     ---       #124
      01001000H   LINE      CODE     ---       #128
      01001015H   LINE      CODE     ---       #129
      01001015H   LINE      CODE     ---       #130
      01001017H   LINE      CODE     ---       #131
      01001020H   LINE      CODE     ---       #132
      0100102FH   LINE      CODE     ---       #133
      01001038H   LINE      CODE     ---       #134
      0100103AH   LINE      CODE     ---       #135
      0100103CH   LINE      CODE     ---       #137
      0100103CH   LINE      CODE     ---       #138
      0100103EH   LINE      CODE     ---       #142
      01001050H   LINE      CODE     ---       #143
      01001058H   LINE      CODE     ---       #144
      0100105AH   LINE      CODE     ---       #145
      0100105AH   LINE      CODE     ---       #147
      01001060H   LINE      CODE     ---       #148
      01001062H   LINE      CODE     ---       #149
      01001068H   LINE      CODE     ---       #150
      0100106CH   LINE      CODE     ---       #151
      01001070H   LINE      CODE     ---       #155
      01001073H   LINE      CODE     ---       #156
      ---         BLOCKEND  ---      ---       LVL=0

      ---         MODULE    ---      ---       TIMERS
      00000070H   PUBLIC    DATA     ---       timer0_next
      0000006FH   PUBLIC    DATA     BYTE      timer0_state
      0000006EH   PUBLIC    DATA     BYTE      repeated_timer0
      0100194CH   PUBLIC    CODE     ---       _TMR_delay_timer3
      000000A2H   SFRSYM    DATA     BYTE      SPI0CKR
      00000080H   SFRSYM    DATA     BYTE      P0
      000000D0H.2 SFRSYM    DATA     BIT       PSW_OV
      00000090H   SFRSYM    DATA     BYTE      P1
      00000097H   SFRSYM    DATA     BYTE      WDTCN
LX51 LINKER/LOCATER V4.66.30.0                                                        01/20/2020  14:03:40  PAGE 106


      000000A0H   SFRSYM    DATA     BYTE      P2
      000000BCH   SFRSYM    DATA     BYTE      ADC0CF
      000000C8H   SFRSYM    DATA     BIT       TMR2CN0_T2XCLK
      000000C0H.7 SFRSYM    DATA     BIT       SMB0CN0_MASTER
      000000F9H   SFRSYM    DATA     WORD      PCA0
      000000E6H   SFRSYM    DATA     BYTE      EIE1
      000000C0H.1 SFRSYM    DATA     BIT       SMB0CN0_ACK
      0000008FH   SFRSYM    DATA     BYTE      PSCTL
      000000E4H   SFRSYM    DATA     BYTE      IT01CF
      000000C0H.6 SFRSYM    DATA     BIT       SMB0CN0_TXMODE
      000000ADH   SFRSYM    DATA     BYTE      DERIVID
      000000A4H   SFRSYM    DATA     BYTE      P0MDOUT
      000000A5H   SFRSYM    DATA     BYTE      P1MDOUT
      000000E8H.5 SFRSYM    DATA     BIT       ADC0CN0_ADINT
      000000CBH   SFRSYM    DATA     BYTE      TMR2RLH
      000000A6H   SFRSYM    DATA     BYTE      P2MDOUT
      000000A8H   SFRSYM    DATA     BYTE      IE
      00000093H   SFRSYM    DATA     BYTE      TMR3RLH
      000000F3H   SFRSYM    DATA     BYTE      EIP1
      00000098H.2 SFRSYM    DATA     BIT       SCON0_RB8
      000000CAH   SFRSYM    DATA     BYTE      TMR2RLL
      000000FCH   SFRSYM    DATA     BYTE      PCA0CPH0
      00000092H   SFRSYM    DATA     BYTE      TMR3RLL
      000000EAH   SFRSYM    DATA     BYTE      PCA0CPH1
      00000098H.3 SFRSYM    DATA     BIT       SCON0_TB8
      000000F0H   SFRSYM    DATA     BIT       B_B0
      00000082H   SFRSYM    DATA     WORD      DP
      000000ECH   SFRSYM    DATA     BYTE      PCA0CPH2
      000000A0H.1 SFRSYM    DATA     BIT       BTN0
      000000F0H.1 SFRSYM    DATA     BIT       B_B1
      000000C3H   SFRSYM    DATA     WORD      ADC0GT
      00000090H.1 SFRSYM    DATA     BIT       BTN1
      000000F0H.2 SFRSYM    DATA     BIT       B_B2
      000000FBH   SFRSYM    DATA     BYTE      PCA0CPL0
      000000F0H.3 SFRSYM    DATA     BIT       B_B3
      000000D9H   SFRSYM    DATA     BYTE      PCA0MD
      000000DAH   SFRSYM    DATA     BYTE      PCA0CPM0
      000000E9H   SFRSYM    DATA     BYTE      PCA0CPL1
      000000F0H.4 SFRSYM    DATA     BIT       B_B4
      000000DBH   SFRSYM    DATA     BYTE      PCA0CPM1
      000000EBH   SFRSYM    DATA     BYTE      PCA0CPL2
      000000F0H.5 SFRSYM    DATA     BIT       B_B5
      000000DCH   SFRSYM    DATA     BYTE      PCA0CPM2
      000000B8H   SFRSYM    DATA     BYTE      IP
      000000B9H   SFRSYM    DATA     BYTE      ADC0TK
      000000F0H.6 SFRSYM    DATA     BIT       B_B6
      000000C5H   SFRSYM    DATA     WORD      ADC0LT
      00000098H.5 SFRSYM    DATA     BIT       SCON0_MCE
      000000F0H.7 SFRSYM    DATA     BIT       B_B7
      000000E1H   SFRSYM    DATA     BYTE      XBR0
      000000C1H   SFRSYM    DATA     BYTE      SMB0CF
      000000E2H   SFRSYM    DATA     BYTE      XBR1
      000000C0H.5 SFRSYM    DATA     BIT       SMB0CN0_STA
      000000E3H   SFRSYM    DATA     BYTE      XBR2
      000000BBH   SFRSYM    DATA     BYTE      ADC0MX
      000000E0H   SFRSYM    DATA     BIT       ACC_ACC0
      000000D1H   SFRSYM    DATA     BYTE      REF0CN
      0000008EH   SFRSYM    DATA     BYTE      CKCON0
      000000E0H.1 SFRSYM    DATA     BIT       ACC_ACC1
      000000C9H   SFRSYM    DATA     BYTE      REG0CN
      000000DDH   SFRSYM    DATA     BYTE      CRC0IN
      000000C8H.2 SFRSYM    DATA     BIT       TMR2CN0_TR2
LX51 LINKER/LOCATER V4.66.30.0                                                        01/20/2020  14:03:40  PAGE 107


      000000E0H.2 SFRSYM    DATA     BIT       ACC_ACC2
      000000E0H.3 SFRSYM    DATA     BIT       ACC_ACC3
      00000081H   SFRSYM    DATA     BYTE      SP
      0000009DH   SFRSYM    DATA     BYTE      CMP0MD
      000000E0H.4 SFRSYM    DATA     BIT       ACC_ACC4
      000000B1H   SFRSYM    DATA     BYTE      LFO0CN
      000000ABH   SFRSYM    DATA     BYTE      CMP1MD
      000000D8H   SFRSYM    DATA     BIT       PCA0CN0_CCF0
      000000E0H.5 SFRSYM    DATA     BIT       ACC_ACC5
      000000D8H.1 SFRSYM    DATA     BIT       PCA0CN0_CCF1
      000000E0H.6 SFRSYM    DATA     BIT       ACC_ACC6
      000000CCH   SFRSYM    DATA     WORD      TMR2
      000000D8H.2 SFRSYM    DATA     BIT       PCA0CN0_CCF2
      000000E0H.7 SFRSYM    DATA     BIT       ACC_ACC7
      00000094H   SFRSYM    DATA     WORD      TMR3
      000000C0H.3 SFRSYM    DATA     BIT       SMB0CN0_ACKRQ
      000000FFH   SFRSYM    DATA     BYTE      VDM0CN
      000000F1H   SFRSYM    DATA     BYTE      P0MDIN
      00000098H.4 SFRSYM    DATA     BIT       SCON0_REN
      000000ACH   SFRSYM    DATA     BYTE      SMB0TC
      000000F2H   SFRSYM    DATA     BYTE      P1MDIN
      000000C0H.4 SFRSYM    DATA     BIT       SMB0CN0_STO
      000000FEH   SFRSYM    DATA     BYTE      P0MASK
      000000EEH   SFRSYM    DATA     BYTE      P1MASK
      000000D0H.3 SFRSYM    DATA     BIT       PSW_RS0
      000000D8H.7 SFRSYM    DATA     BIT       PCA0CN0_CF
      0000009EH   SFRSYM    DATA     BYTE      PCA0CENT
      000000F8H.4 SFRSYM    DATA     BIT       SPI0CN0_RXOVRN
      000000D0H.4 SFRSYM    DATA     BIT       PSW_RS1
      000000E8H.7 SFRSYM    DATA     BIT       ADC0CN0_ADEN
      00000089H   SFRSYM    DATA     BYTE      TMOD
      00000088H   SFRSYM    DATA     BYTE      TCON
      000000CFH   SFRSYM    DATA     BYTE      CRC0FLIP
      000000D0H   SFRSYM    DATA     BIT       PSW_PARITY
      000000A8H.4 SFRSYM    DATA     BIT       IE_ES0
      0000009FH   SFRSYM    DATA     BYTE      CMP0MX
      000000A8H.1 SFRSYM    DATA     BIT       IE_ET0
      000000AAH   SFRSYM    DATA     BYTE      CMP1MX
      000000A8H.3 SFRSYM    DATA     BIT       IE_ET1
      000000D4H   SFRSYM    DATA     BYTE      P0SKIP
      000000A8H.5 SFRSYM    DATA     BIT       IE_ET2
      000000D5H   SFRSYM    DATA     BYTE      P1SKIP
      000000E8H   SFRSYM    DATA     BYTE      ADC0CN0
      000000A8H   SFRSYM    DATA     BIT       IE_EX0
      000000B2H   SFRSYM    DATA     BYTE      ADC0CN1
      000000D8H.6 SFRSYM    DATA     BIT       PCA0CN0_CR
      000000A8H.2 SFRSYM    DATA     BIT       IE_EX1
      00000098H.7 SFRSYM    DATA     BIT       SCON0_SMODE
      000000B5H   SFRSYM    DATA     BYTE      DEVICEID
      000000A9H   SFRSYM    DATA     BYTE      CLKSEL
      000000F8H   SFRSYM    DATA     BIT       SPI0CN0_SPIEN
      000000F0H   SFRSYM    DATA     BYTE      B
      000000BEH   SFRSYM    DATA     BYTE      ADC0H
      000000D2H   SFRSYM    DATA     BYTE      CRC0AUTO
      000000E8H.6 SFRSYM    DATA     BIT       ADC0CN0_ADBMEN
      000000CAH   SFRSYM    DATA     WORD      TMR2RL
      000000BDH   SFRSYM    DATA     BYTE      ADC0L
      00000092H   SFRSYM    DATA     WORD      TMR3RL
      000000D8H   SFRSYM    DATA     BYTE      PCA0CN0
      000000E0H   SFRSYM    DATA     BYTE      ACC
      000000FBH   SFRSYM    DATA     WORD      PCA0CP0
      000000E9H   SFRSYM    DATA     WORD      PCA0CP1
LX51 LINKER/LOCATER V4.66.30.0                                                        01/20/2020  14:03:40  PAGE 108


      000000EBH   SFRSYM    DATA     WORD      PCA0CP2
      000000CEH   SFRSYM    DATA     BYTE      CRC0CN0
      00000090H.4 SFRSYM    DATA     BIT       BSP_LED0
      0000008CH   SFRSYM    DATA     BYTE      TH0
      000000B8H.4 SFRSYM    DATA     BIT       IP_PS0
      0000008DH   SFRSYM    DATA     BYTE      TH1
      000000FAH   SFRSYM    DATA     BYTE      PCA0H
      000000B8H.1 SFRSYM    DATA     BIT       IP_PT0
      000000B8H.3 SFRSYM    DATA     BIT       IP_PT1
      000000C0H.2 SFRSYM    DATA     BIT       SMB0CN0_ARBLOST
      000000B8H.5 SFRSYM    DATA     BIT       IP_PT2
      0000008AH   SFRSYM    DATA     BYTE      TL0
      000000F8H.1 SFRSYM    DATA     BIT       SPI0CN0_TXBMT
      000000D0H.5 SFRSYM    DATA     BIT       PSW_F0
      000000A8H.6 SFRSYM    DATA     BIT       IE_ESPI0
      0000008BH   SFRSYM    DATA     BYTE      TL1
      000000F9H   SFRSYM    DATA     BYTE      PCA0L
      000000C0H   SFRSYM    DATA     BIT       SMB0CN0_SI
      000000D0H.1 SFRSYM    DATA     BIT       PSW_F1
      00000080H   SFRSYM    DATA     BIT       P0_B0
      000000B8H   SFRSYM    DATA     BIT       IP_PX0
      00000090H   SFRSYM    DATA     BIT       P1_B0
      00000080H.1 SFRSYM    DATA     BIT       P0_B1
      000000B8H.2 SFRSYM    DATA     BIT       IP_PX1
      0000009BH   SFRSYM    DATA     BYTE      CMP0CN0
      00000088H.1 SFRSYM    DATA     BIT       TCON_IE0
      000000A0H   SFRSYM    DATA     BIT       P2_B0
      00000090H.1 SFRSYM    DATA     BIT       P1_B1
      00000080H.2 SFRSYM    DATA     BIT       P0_B2
      000000BFH   SFRSYM    DATA     BYTE      CMP1CN0
      00000088H.3 SFRSYM    DATA     BIT       TCON_IE1
      000000A0H.1 SFRSYM    DATA     BIT       P2_B1
      00000090H.2 SFRSYM    DATA     BIT       P1_B2
      00000080H.3 SFRSYM    DATA     BIT       P0_B3
      000000C0H   SFRSYM    DATA     BYTE      SMB0CN0
      00000090H.3 SFRSYM    DATA     BIT       P1_B3
      00000080H.4 SFRSYM    DATA     BIT       P0_B4
      00000090H.4 SFRSYM    DATA     BIT       P1_B4
      00000080H.5 SFRSYM    DATA     BIT       P0_B5
      00000090H.5 SFRSYM    DATA     BIT       P1_B5
      00000080H.6 SFRSYM    DATA     BIT       P0_B6
      00000090H.6 SFRSYM    DATA     BIT       P1_B6
      00000080H.7 SFRSYM    DATA     BIT       P0_B7
      00000090H.7 SFRSYM    DATA     BIT       P1_B7
      00000080H.2 SFRSYM    DATA     BIT       BSP_BTN0
      00000083H   SFRSYM    DATA     BYTE      DPH
      000000C4H   SFRSYM    DATA     BYTE      ADC0GTH
      000000C8H.7 SFRSYM    DATA     BIT       TMR2CN0_TF2H
      000000C8H.3 SFRSYM    DATA     BIT       TMR2CN0_T2SPLIT
      000000D0H.6 SFRSYM    DATA     BIT       PSW_AC
      000000F8H   SFRSYM    DATA     BYTE      SPI0CN0
      000000C7H   SFRSYM    DATA     BYTE      HFO0CAL
      00000088H.5 SFRSYM    DATA     BIT       TCON_TF0
      00000098H   SFRSYM    DATA     BIT       SCON0_RI
      00000082H   SFRSYM    DATA     BYTE      DPL
      00000088H.7 SFRSYM    DATA     BIT       TCON_TF1
      00000099H   SFRSYM    DATA     BYTE      SBUF0
      00000087H   SFRSYM    DATA     BYTE      PCON0
      000000C3H   SFRSYM    DATA     BYTE      ADC0GTL
      000000C8H.6 SFRSYM    DATA     BIT       TMR2CN0_TF2L
      00000098H.1 SFRSYM    DATA     BIT       SCON0_TI
      000000E8H   SFRSYM    DATA     BIT       ADC0CN0_ADCM0
LX51 LINKER/LOCATER V4.66.30.0                                                        01/20/2020  14:03:40  PAGE 109


      000000C6H   SFRSYM    DATA     BYTE      ADC0LTH
      00000088H   SFRSYM    DATA     BIT       TCON_IT0
      000000E8H.1 SFRSYM    DATA     BIT       ADC0CN0_ADCM1
      000000EFH   SFRSYM    DATA     BYTE      RSTSRC
      000000FDH   SFRSYM    DATA     BYTE      P0MAT
      000000DEH   SFRSYM    DATA     BYTE      CRC0DAT
      00000088H.2 SFRSYM    DATA     BIT       TCON_IT1
      000000E8H.2 SFRSYM    DATA     BIT       ADC0CN0_ADCM2
      00000098H   SFRSYM    DATA     BYTE      SCON0
      000000F6H   SFRSYM    DATA     BYTE      PRTDRV
      000000EDH   SFRSYM    DATA     BYTE      P1MAT
      000000E8H.3 SFRSYM    DATA     BIT       ADC0CN0_ADWINT
      000000E8H.4 SFRSYM    DATA     BIT       ADC0CN0_ADBUSY
      000000D6H   SFRSYM    DATA     BYTE      SMB0ADM
      000000C5H   SFRSYM    DATA     BYTE      ADC0LTL
      000000F8H.5 SFRSYM    DATA     BIT       SPI0CN0_MODF
      000000B8H.6 SFRSYM    DATA     BIT       IP_PSPI0
      0000009CH   SFRSYM    DATA     BYTE      PCA0CLR
      000000C8H   SFRSYM    DATA     BYTE      TMR2CN0
      00000091H   SFRSYM    DATA     BYTE      TMR3CN0
      000000D7H   SFRSYM    DATA     BYTE      SMB0ADR
      00000088H.4 SFRSYM    DATA     BIT       TCON_TR0
      000000C8H.4 SFRSYM    DATA     BIT       TMR2CN0_TF2CEN
      00000088H.6 SFRSYM    DATA     BIT       TCON_TR1
      000000C2H   SFRSYM    DATA     BYTE      SMB0DAT
      000000CDH   SFRSYM    DATA     BYTE      TMR2H
      000000A1H   SFRSYM    DATA     BYTE      SPI0CFG
      00000095H   SFRSYM    DATA     BYTE      TMR3H
      000000D3H   SFRSYM    DATA     BYTE      CRC0CNT
      00000096H   SFRSYM    DATA     BYTE      PCA0POL
      000000CCH   SFRSYM    DATA     BYTE      TMR2L
      000000F8H.7 SFRSYM    DATA     BIT       SPI0CN0_SPIF
      00000094H   SFRSYM    DATA     BYTE      TMR3L
      000000DFH   SFRSYM    DATA     BYTE      ADC0PWR
      000000A8H.7 SFRSYM    DATA     BIT       IE_EA
      000000C8H.5 SFRSYM    DATA     BIT       TMR2CN0_TF2LEN
      000000F8H.6 SFRSYM    DATA     BIT       SPI0CN0_WCOL
      000000F8H.2 SFRSYM    DATA     BIT       SPI0CN0_NSSMD0
      000000D0H.7 SFRSYM    DATA     BIT       PSW_CY
      000000A3H   SFRSYM    DATA     BYTE      SPI0DAT
      000000F8H.3 SFRSYM    DATA     BIT       SPI0CN0_NSSMD1
      000000BDH   SFRSYM    DATA     WORD      ADC0
      000000D0H   SFRSYM    DATA     BYTE      PSW
      000000F7H   SFRSYM    DATA     BYTE      PCA0PWM
      000000B6H   SFRSYM    DATA     BYTE      REVID
      000000B7H   SFRSYM    DATA     BYTE      FLKEY
      000000B3H   SFRSYM    DATA     BYTE      ADC0AC

      0100194CH   BLOCK     CODE     ---       LVL=0
      00000007H   SYMBOL    DATA     BYTE      delay_ms
      0100194CH   LINE      CODE     ---       #38
      0100194CH   LINE      CODE     ---       #39
      0100194CH   LINE      CODE     ---       #41
      0100194FH   LINE      CODE     ---       #43
      01001952H   LINE      CODE     ---       #44
      01001955H   LINE      CODE     ---       #46
      0100195BH   LINE      CODE     ---       #47
      0100195EH   LINE      CODE     ---       #48
      01001964H   LINE      CODE     ---       #49
      01001964H   LINE      CODE     ---       #50
      01001969H   LINE      CODE     ---       #51
      0100196CH   LINE      CODE     ---       #52
LX51 LINKER/LOCATER V4.66.30.0                                                        01/20/2020  14:03:40  PAGE 110


      0100196FH   LINE      CODE     ---       #54
      01001972H   LINE      CODE     ---       #55
      ---         BLOCKEND  ---      ---       LVL=0

      ---         MODULE    ---      ---       ?C_INIT
      010010BEH   PUBLIC    CODE     ---       ?C_START

      ---         MODULE    ---      ---       ?C?IMUL
      01000076H   PUBLIC    CODE     ---       ?C?IMUL

      ---         MODULE    ---      ---       ?C?UIDIV
      01000088H   PUBLIC    CODE     ---       ?C?UIDIV

      ---         MODULE    ---      ---       ?C?LMUL
      010000DDH   PUBLIC    CODE     ---       ?C?LMUL

      ---         MODULE    ---      ---       ?C?ULDIV
      01000168H   PUBLIC    CODE     ---       ?C?ULDIV

      ---         MODULE    ---      ---       ?C?LNEG
      010001FAH   PUBLIC    CODE     ---       ?C?LNEG

      ---         MODULE    ---      ---       ?C?SLCMP
      01000208H   PUBLIC    CODE     ---       ?C?SLCMP

      ---         MODULE    ---      ---       ?C?ULCMP
      0100021EH   PUBLIC    CODE     ---       ?C?ULCMP

      ---         MODULE    ---      ---       ?C?ULSHR
      0100022FH   PUBLIC    CODE     ---       ?C?ULSHR

      ---         MODULE    ---      ---       ?C?SLSHR
      01000242H   PUBLIC    CODE     ---       ?C?SLSHR

      ---         MODULE    ---      ---       ?C?LSTXDATA
      01000256H   PUBLIC    CODE     ---       ?C?LSTXDATA

      ---         MODULE    ---      ---       ?C?LSTKXDATA
      01000262H   PUBLIC    CODE     ---       ?C?LSTKXDATA

      ---         MODULE    ---      ---       ?C?OFFXADD
      01000293H   PUBLIC    CODE     ---       ?C?OFFXADD

      ---         MODULE    ---      ---       ?C?ICASE
      0100029FH   PUBLIC    CODE     ---       ?C?ICASE

      ---         MODULE    ---      ---       ?C?ICALL
      010002CCH   PUBLIC    CODE     ---       ?C?ICALL
      010002D0H   PUBLIC    CODE     ---       ?C?ICALL2

      ---         MODULE    ---      ---       ?C?LIMUL
      010002D2H   PUBLIC    CODE     ---       ?C?LIMUL

Program Size: data=181.0 xdata=143 const=51 code=7008
LX51 RUN COMPLETE.  0 WARNING(S),  0 ERROR(S)
